 ssp

 Timestamp is 5049fd6b (Fri Sep 07 22:58:03 2012)

 Preferred load address is 00400000

 Start         Length     Name                   Class
 0001:00000000 0020f00aH .text                   CODE
 0001:0020f00a 000000c8H .text$AFX_AUX           CODE
 0001:0020f0d2 00000a19H .text$AFX_CMNCTL        CODE
 0001:0020faeb 00000093H .text$AFX_COL1          CODE
 0001:0020fb7e 000004c7H .text$AFX_COL2          CODE
 0001:00210045 000055e2H .text$AFX_CORE1         CODE
 0001:00215627 00000a94H .text$AFX_CORE2         CODE
 0001:002160bb 00000899H .text$AFX_CORE3         CODE
 0001:00216954 000003cdH .text$AFX_CORE4         CODE
 0001:00216d21 00000069H .text$AFX_INET          CODE
 0001:00216d8a 00001ceaH .text$AFX_INIT          CODE
 0001:00218a74 00000538H .text$AFX_OLE1          CODE
 0001:00218fac 0000018cH .text$AFX_OLE2          CODE
 0001:00219138 000001dbH .text$AFX_OLE3          CODE
 0001:00219313 00000ba6H .text$AFX_OLE4          CODE
 0001:00219eb9 00000000H .text$AFX_OLE5          CODE
 0001:00219eb9 000001fbH .text$AFX_TERM          CODE
 0001:0021a0c0 00018e53H .text$x                 CODE
 0002:00000000 000008b0H .idata$5                DATA
 0002:000008b0 0005caa5H .rdata                  DATA
 0002:0005d358 000012c4H .rdata$r                DATA
 0002:0005e620 00019c60H .xdata$x                DATA
 0002:00078280 00000118H .idata$2                DATA
 0002:00078398 00000014H .idata$3                DATA
 0002:000783ac 000008b0H .idata$4                DATA
 0002:00078c5c 00002496H .idata$6                DATA
 0002:0007b0f2 00000000H .edata                  DATA
 0003:00000000 00000004H .CRT$XCA                DATA
 0003:00000004 0000002cH .CRT$XCC                DATA
 0003:00000030 00000014H .CRT$XCL                DATA
 0003:00000044 000000b0H .CRT$XCU                DATA
 0003:000000f4 00000004H .CRT$XCZ                DATA
 0003:000000f8 00000004H .CRT$XIA                DATA
 0003:000000fc 0000000cH .CRT$XIC                DATA
 0003:00000108 00000004H .CRT$XIY                DATA
 0003:0000010c 00000004H .CRT$XIZ                DATA
 0003:00000110 00000004H .CRT$XLA                DATA
 0003:00000114 00000004H .CRT$XLZ                DATA
 0003:00000118 00000004H .CRT$XPA                DATA
 0003:0000011c 00000008H .CRT$XPX                DATA
 0003:00000124 00000004H .CRT$XPZ                DATA
 0003:00000128 00000004H .CRT$XTA                DATA
 0003:0000012c 00000004H .CRT$XTB                DATA
 0003:00000130 00000004H .CRT$XTZ                DATA
 0003:00000140 0001146cH .data                   DATA
 0003:000115b0 0000c698H .bss                    DATA
 0004:00000000 00000004H .tls                    DATA
 0004:00000008 000020a0H .tls$                   DATA
 0004:000020a8 00000004H .tls$ZZZ                DATA
 0005:00000000 0000133cH .rsrc$01                DATA
 0005:00001340 00019360H .rsrc$02                DATA

  Address         Publics by Value              Rva+Base     Lib:Object

 0001:00000000       ??0CAboutDlg@@QAE@XZ       00401000 f   AboutDlg.obj
 0001:000000b0       ??_GCFont@@UAEPAXI@Z       004010b0 f i AboutDlg.obj
 0001:000000b0       ??_ECFont@@UAEPAXI@Z       004010b0 f i AboutDlg.obj
 0001:000000e0       ??1CFont@@UAE@XZ           004010e0 f i AboutDlg.obj
 0001:00000120       ??_GCGdiObject@@UAEPAXI@Z  00401120 f i AboutDlg.obj
 0001:00000120       ??_ECGdiObject@@UAEPAXI@Z  00401120 f i AboutDlg.obj
 0001:00000150       ??1CGdiObject@@UAE@XZ      00401150 f i AboutDlg.obj
 0001:00000190       ?AttachStream@JMappedStream@@EAEXPAVJStreamObject@@@Z 00401190 f i AboutDlg.obj
 0001:00000190       ?SetAlphaPlane@JSurface@@UAEXPBE@Z 00401190 f i AboutDlg.obj
 0001:00000190       ?ExitInstance@JThreadLoop@@UAEXH@Z 00401190 f i AboutDlg.obj
 0001:00000190       ?DoDataExchange@CWnd@@MAEXPAVCDataExchange@@@Z 00401190 f i AboutDlg.obj
 0001:00000190       ?Serialize@CObject@@UAEXAAVCArchive@@@Z 00401190 f i AboutDlg.obj
 0001:000001a0       ?BeginModalState@CWnd@@UAEXXZ 004011a0 f i AboutDlg.obj
 0001:000001b0       ?EndModalState@CWnd@@UAEXXZ 004011b0 f i AboutDlg.obj
 0001:000001c0       ??_GCStatic@@UAEPAXI@Z     004011c0 f i AboutDlg.obj
 0001:000001c0       ??_ECStatic@@UAEPAXI@Z     004011c0 f i AboutDlg.obj
 0001:000001f0       ??_ECEdit@@UAEPAXI@Z       004011f0 f i AboutDlg.obj
 0001:000001f0       ??_GCEdit@@UAEPAXI@Z       004011f0 f i AboutDlg.obj
 0001:00000220       ??_GCAboutDlg@@UAEPAXI@Z   00401220 f i AboutDlg.obj
 0001:00000220       ??_ECAboutDlg@@UAEPAXI@Z   00401220 f i AboutDlg.obj
 0001:00000250       ??1CAboutDlg@@UAE@XZ       00401250 f i AboutDlg.obj
 0001:000002d0       ?DoDataExchange@CAboutDlg@@MAEXPAVCDataExchange@@@Z 004012d0 f   AboutDlg.obj
 0001:00000310       ?GetMessageMap@CAboutDlg@@MBEPBUAFX_MSGMAP@@XZ 00401310 f   AboutDlg.obj
 0001:00000320       ?OnOK@CAboutDlg@@MAEXXZ    00401320 f   AboutDlg.obj
 0001:00000330       ?OnInitDialog@CAboutDlg@@MAEHXZ 00401330 f   AboutDlg.obj
 0001:00000d70       ?OnCreate@CAboutDlg@@IAEHPAUtagCREATESTRUCTA@@@Z 00401d70 f   AboutDlg.obj
 0001:00000e60       ??1JLibPNG@@QAE@XZ         00401e60 f i AboutDlg.obj
 0001:00000e70       ?OnPaint@CAboutDlg@@IAEXXZ 00401e70 f   AboutDlg.obj
 0001:00000f00       ?OnDestroy@CAboutDlg@@IAEXXZ 00401f00 f   AboutDlg.obj
 0001:00000f30       ?OnCtlColor@CAboutDlg@@IAEPAUHBRUSH__@@PAVCDC@@PAVCWnd@@I@Z 00401f30 f   AboutDlg.obj
 0001:00000fb0       ?OnAboutUrlClick@CAboutDlg@@IAEXXZ 00401fb0 f   AboutDlg.obj
 0001:00000fc0       ?OnSetCursor@CAboutDlg@@IAEHPAVCWnd@@II@Z 00401fc0 f   AboutDlg.obj
 0001:00000ff0       ??0?$JArray@D@@QAE@K@Z     00401ff0 f i AboutDlg.obj
 0001:00001050       ?Last@?$JArray@D@@QAEAADXZ 00402050 f i AboutDlg.obj
 0001:00001070       ?Realloc@?$JArray@D@@QAE_NK@Z 00402070 f i AboutDlg.obj
 0001:00001100       ?Add@?$JArray@D@@QAEAADXZ  00402100 f i AboutDlg.obj
 0001:000011c0       ??0CCalendarWnd@@QAE@XZ    004021c0 f   CalendarWnd.obj
 0001:00001250       ??1CSimpleMenu@@QAE@XZ     00402250 f i CalendarWnd.obj
 0001:00001260       ??_ECCalendarWnd@@UAEPAXI@Z 00402260 f i CalendarWnd.obj
 0001:00001260       ??_GCCalendarWnd@@UAEPAXI@Z 00402260 f i CalendarWnd.obj
 0001:00001290       ??1CCalendarWnd@@UAE@XZ    00402290 f   CalendarWnd.obj
 0001:00001320       ?GetMessageMap@CCalendarWnd@@MBEPBUAFX_MSGMAP@@XZ 00402320 f   CalendarWnd.obj
 0001:00001330       ?OnCreate@CCalendarWnd@@IAEHPAUtagCREATESTRUCTA@@@Z 00402330 f   CalendarWnd.obj
 0001:00001480       ?SelectCell@CCalendarWnd@@AAEHAAVCPoint@@@Z 00402480 f   CalendarWnd.obj
 0001:00001530       ?OnLButtonDown@CCalendarWnd@@IAEXIVCPoint@@@Z 00402530 f   CalendarWnd.obj
 0001:00001570       ?OnLButtonDblClk@CCalendarWnd@@IAEXIVCPoint@@@Z 00402570 f   CalendarWnd.obj
 0001:000015c0       ?MakeAndSelectMenu@CCalendarWnd@@AAEHHHH@Z 004025c0 f   CalendarWnd.obj
 0001:00001690       ?SetMonth@CCalendarWnd@@AAEXHH@Z 00402690 f   CalendarWnd.obj
 0001:000016d0       ?OnLButtonUp@CCalendarWnd@@IAEXIVCPoint@@@Z 004026d0 f   CalendarWnd.obj
 0001:000017c0       ?OnRButtonUp@CCalendarWnd@@IAEXIVCPoint@@@Z 004027c0 f   CalendarWnd.obj
 0001:000018c0       ?OnKeyDown@CCalendarWnd@@IAEXIII@Z 004028c0 f   CalendarWnd.obj
 0001:000019b0       ?OnMouseMove@CCalendarWnd@@IAEXIVCPoint@@@Z 004029b0 f   CalendarWnd.obj
 0001:00001b00       ?OnPaint@CCalendarWnd@@IAEXXZ 00402b00 f   CalendarWnd.obj
 0001:00001b60       ?OnEraseBkgnd@CGhostTimeWnd@@IAEHPAVCDC@@@Z 00402b60 f   CalendarWnd.obj
 0001:00001b60       ?OnEraseBkgnd@CCalendarWnd@@IAEHPAVCDC@@@Z 00402b60 f   CalendarWnd.obj
 0001:00001b60       ?OnEraseBkgnd@CMessageWnd@@IAEHPAVCDC@@@Z 00402b60 f   CalendarWnd.obj
 0001:00001b70       ?OnMenuClose@CCalendarWnd@@IAEXXZ 00402b70 f   CalendarWnd.obj
 0001:00001b80       ?OnMenuEdit@CCalendarWnd@@IAEXXZ 00402b80 f   CalendarWnd.obj
 0001:00001b90       ?OnMenuNext@CCalendarWnd@@IAEXXZ 00402b90 f   CalendarWnd.obj
 0001:00001ba0       ?OnMenuPrev@CCalendarWnd@@IAEXXZ 00402ba0 f   CalendarWnd.obj
 0001:00001bb0       ?MoveMonth@CCalendarWnd@@QAEXH@Z 00402bb0 f   CalendarWnd.obj
 0001:00001c00       ?OnMouseWheel@CCalendarWnd@@IAEHIFVCPoint@@@Z 00402c00 f   CalendarWnd.obj
 0001:00001c40       ?UpdateWindowSize@CCalendarWnd@@QAEXXZ 00402c40 f   CalendarWnd.obj
 0001:00001c60       ?UpdateSkinMenu@CCalendarWnd@@QAEXXZ 00402c60 f   CalendarWnd.obj
 0001:00001dd0       ?UpdateSensorMenu@CCalendarWnd@@QAEXXZ 00402dd0 f   CalendarWnd.obj
 0001:00001e90       ?OnCommand@CCalendarWnd@@MAEHIJ@Z 00402e90 f   CalendarWnd.obj
 0001:00002030       ?DoPostSchedule@CCalendarWnd@@QAEXPAVSPScheduleSensorProp@@PAVSPScheduleEntry@@@Z 00403030 f   CalendarWnd.obj
 0001:00002050       ?OnMenuReadevent@CCalendarWnd@@IAEXXZ 00403050 f   CalendarWnd.obj
 0001:00002060       ?OnMenuTodaysschedule@CCalendarWnd@@IAEXXZ 00403060 f   CalendarWnd.obj
 0001:00002080       ?TimerExec@CCalendarWnd@@QAEXPAVSPGhost@@AAU_SYSTEMTIME@@@Z 00403080 f   CalendarWnd.obj
 0001:00002180       ?OnMenuTopmost@CCalendarWnd@@IAEXXZ 00403180 f   CalendarWnd.obj
 0001:00002210       ?OnMenuDelete@CCalendarWnd@@IAEXXZ 00403210 f   CalendarWnd.obj
 0001:00002280       ?OnMenuDeleteMonth@CCalendarWnd@@IAEXXZ 00403280 f   CalendarWnd.obj
 0001:000022c0       ?OnMenuDeleteYear@CCalendarWnd@@IAEXXZ 004032c0 f   CalendarWnd.obj
 0001:000022f0       ?OnDestroy@CCalendarWnd@@IAEXXZ 004032f0 f   CalendarWnd.obj
 0001:00002360       ?SaveWindowPos@CCalendarWnd@@AAEXXZ 00403360 f   CalendarWnd.obj
 0001:00002390       ?ShowScheduleSetting@CCalendarWnd@@AAEXXZ 00403390 f   CalendarWnd.obj
 0001:000025b0       ??3CObject@@SGXPAX@Z       004035b0 f i CalendarWnd.obj
 0001:000025d0       ??1SPDlgTemplate@@QAE@XZ   004035d0 f i CalendarWnd.obj
 0001:00002670       ?OnMenuCenter@CCalendarWnd@@IAEXXZ 00403670 f   CalendarWnd.obj
 0001:00002690       ?OnDrawItem@CCalendarWnd@@IAEXHPAUtagDRAWITEMSTRUCT@@@Z 00403690 f   CalendarWnd.obj
 0001:000026d0       ?OnMeasureItem@CCalendarWnd@@IAEXHPAUtagMEASUREITEMSTRUCT@@@Z 004036d0 f   CalendarWnd.obj
 0001:00002710       ??0?$JArray@G@@QAE@K@Z     00403710 f i CalendarWnd.obj
 0001:00002780       ?Add@?$JArray@G@@QAEAAGXZ  00403780 f i CalendarWnd.obj
 0001:00002850       ??0CCharBodyWnd@@QAE@XZ    00403850 f   CharBodyWnd.obj
 0001:000028b0       ??_GCCharBodyWnd@@UAEPAXI@Z 004038b0 f i CharBodyWnd.obj
 0001:000028b0       ??_ECCharBodyWnd@@UAEPAXI@Z 004038b0 f i CharBodyWnd.obj
 0001:000028e0       ??1CCharBodyWnd@@UAE@XZ    004038e0 f   CharBodyWnd.obj
 0001:00002940       ??_ECCharWndBase@@UAEPAXI@Z 00403940 f i CharBodyWnd.obj
 0001:00002940       ??_GCCharWndBase@@UAEPAXI@Z 00403940 f i CharBodyWnd.obj
 0001:00002970       ??1CCharWndBase@@UAE@XZ    00403970 f i CharBodyWnd.obj
 0001:000029d0       ?GetMessageMap@CCharBodyWnd@@MBEPBUAFX_MSGMAP@@XZ 004039d0 f   CharBodyWnd.obj
 0001:000029e0       ?OnLButtonDblClk@CCharBodyWnd@@IAEXIVCPoint@@@Z 004039e0 f   CharBodyWnd.obj
 0001:00002a10       ?OnMouseMove@CCharBodyWnd@@IAEXIVCPoint@@@Z 00403a10 f   CharBodyWnd.obj
 0001:00002a40       ?WindowProc@CCharBodyWnd@@MAEJIIJ@Z 00403a40 f   CharBodyWnd.obj
 0001:00002a90       ?GetDefaultWndPosX@CCharBodyWnd@@UAEHAAJAAVJRect@@1AAVJPoint@@@Z 00403a90 f   CharBodyWnd.obj
 0001:00002b40       ?SetCharWndProp@CCharBodyWnd@@QAEXHPAVCSakuraWnd@@@Z 00403b40 f   CharBodyWnd.obj
 0001:00002b70       ?OnDestroy@CKeroWnd@@IAEXXZ 00403b70 f   CharBodyWnd.obj
 0001:00002b70       ?OnDestroy@CCharBodyWnd@@IAEXXZ 00403b70 f   CharBodyWnd.obj
 0001:00002b90       ??_ECCharWndBase@@WDM@AEPAXI@Z 00403b90 f i CharBodyWnd.obj
 0001:00002ba0       ??_ECCharBodyWnd@@WDM@AEPAXI@Z 00403ba0 f i CharBodyWnd.obj
 0001:00002bb0       ?GetCharWndCodeManager@@YAAAVCCharWndCodeManager@@XZ 00403bb0 f   CharWndCode.obj
 0001:00002c00       ??0CCharWndCodeManager@@QAE@XZ 00403c00 f i CharWndCode.obj
 0001:00002d60       ??1CCharWndCodeManager@@QAE@XZ 00403d60 f i CharWndCode.obj
 0001:00002df0       ??0CCharWndCode@@QAE@XZ    00403df0 f   CharWndCode.obj
 0001:00003090       ??_ECCharWndCode@@UAEPAXI@Z 00404090 f i CharWndCode.obj
 0001:00003090       ??_GCCharWndCode@@UAEPAXI@Z 00404090 f i CharWndCode.obj
 0001:000030c0       ??1CCharWndCode@@UAE@XZ    004040c0 f   CharWndCode.obj
 0001:00003170       ?CCWC_Initialize@CCharWndCode@@IAEXXZ 00404170 f   CharWndCode.obj
 0001:000034b0       ??0CCharWndCodeFuncTable@@QAE@XZ 004044b0 f i CharWndCode.obj
 0001:00003760       ??1SPDynLoad@@UAE@XZ       00404760 f i CharWndCode.obj
 0001:000037b0       ??_ESPDynLoad@@UAEPAXI@Z   004047b0 f i CharWndCode.obj
 0001:000037b0       ??_GSPDynLoad@@UAEPAXI@Z   004047b0 f i CharWndCode.obj
 0001:000037e0       ??1SPDynLoadSystem@@UAE@XZ 004047e0 f i CharWndCode.obj
 0001:00003830       ??_GSPDynLoadSystem@@UAEPAXI@Z 00404830 f i CharWndCode.obj
 0001:00003830       ??_ESPDynLoadSystem@@UAEPAXI@Z 00404830 f i CharWndCode.obj
 0001:00003870       ??1CCharWndCodeFuncTable@@QAE@XZ 00404870 f i CharWndCode.obj
 0001:000038d0       ?CCWC_Destroy@CCharWndCode@@IAEXXZ 004048d0 f   CharWndCode.obj
 0001:00003af0       ?InitWndMenu@CCharWndCode@@QAEXXZ 00404af0 f   CharWndCode.obj
 0001:00003b60       ?ResetMenuState@CCharWndCode@@QAEXXZ 00404b60 f   CharWndCode.obj
 0001:00003b70       ?IsVisible@CCharWndCode@@QBE_NXZ 00404b70 f   CharWndCode.obj
 0001:00003b90       ?GetWindowRectOffsetMove@CCharWndCode@@QAEXAAVJRect@@@Z 00404b90 f   CharWndCode.obj
 0001:00003bf0       ?GGetCursorPos@CCharWndCode@@IBEXAAVJPoint@@@Z 00404bf0 f   CharWndCode.obj
 0001:00003c30       ?CWGetCursorPos@CCharWndCode@@IBEXAAVJPoint@@@Z 00404c30 f   CharWndCode.obj
 0001:00003c80       ?CCWC_OnMouseMove@CCharWndCode@@IAEHIABUtagPOINT@@@Z 00404c80 f   CharWndCode.obj
 0001:00003cc0       ?OnEXMouseMove@CCharWndCode@@AAEHABVJPoint@@_N1@Z 00404cc0 f   CharWndCode.obj
 0001:000042a0       ?SelectModeCol@CCharWndCode@@IAE?AW4SPSelectModeColID@@XZ 004052a0 f   CharWndCode.obj
 0001:000043e0       ?SelectModeProc@CCharWndCode@@IAEXABVJPoint@@@Z 004053e0 f   CharWndCode.obj
 0001:00004700       ?SendGestureEvent@CCharWndCode@@AAEHPAGABUtagPOINT@@0H@Z 00405700 f   CharWndCode.obj
 0001:00004860       ??1SPPluginEvent@@UAE@XZ   00405860 f i CharWndCode.obj
 0001:00004860       ??1SPShioriEvent@@UAE@XZ   00405860 f i CharWndCode.obj
 0001:00004870       ??_GSPModuleEvent@@UAEPAXI@Z 00405870 f i CharWndCode.obj
 0001:00004870       ??_ESPModuleEvent@@UAEPAXI@Z 00405870 f i CharWndCode.obj
 0001:000048a0       ??_GSPShioriEvent@@UAEPAXI@Z 004058a0 f i CharWndCode.obj
 0001:000048a0       ??_ESPShioriEvent@@UAEPAXI@Z 004058a0 f i CharWndCode.obj
 0001:000048d0       ?CCWC_OnMouseDoubleClick@CCharWndCode@@IAEHJJ@Z 004058d0 f   CharWndCode.obj
 0001:00004980       ?CCWC_PreTranslateMessage@CCharWndCode@@IAEHAAUtagMSG@@@Z 00405980 f   CharWndCode.obj
 0001:00004a10       ?CCWC_WindowProc@CCharWndCode@@IAEHIIJAAJ@Z 00405a10 f   CharWndCode.obj
 0001:00004b50       ?OnCWPaint@CCharWndCode@@IAEHIJAAJ@Z 00405b50 f   CharWndCode.obj
 0001:00004b90       ?OnCWPrintClient@CCharWndCode@@IAEHIJAAJ@Z 00405b90 f   CharWndCode.obj
 0001:00004bc0       ?OnCWEraseBkgnd@CCharWndCode@@IAEHIJAAJ@Z 00405bc0 f   CharWndCode.obj
 0001:00004be0       ?OnCWMouseWheel@CCharWndCode@@IAEHIJAAJ@Z 00405be0 f   CharWndCode.obj
 0001:00004d20       ?OnCWHScroll@CCharWndCode@@IAEHIJAAJ@Z 00405d20 f   CharWndCode.obj
 0001:00004dd0       ?OnCWVScroll@CCharWndCode@@IAEHIJAAJ@Z 00405dd0 f   CharWndCode.obj
 0001:00004e80       ?OnCWMove@CCharWndCode@@IAEHIJAAJ@Z 00405e80 f   CharWndCode.obj
 0001:00004f00       ?OnCWMXButtonDown@CCharWndCode@@IAEHIJAAJ@Z 00405f00 f   CharWndCode.obj
 0001:00004ff0       ?OnCWMXButtonUp@CCharWndCode@@IAEHIJAAJ@Z 00405ff0 f   CharWndCode.obj
 0001:00005120       ?OnCWMXButtonDoubleClick@CCharWndCode@@IAEHIJAAJ@Z 00406120 f   CharWndCode.obj
 0001:000051d0       ?OnCWSetCursor@CCharWndCode@@IAEHIJAAJ@Z 004061d0 f   CharWndCode.obj
 0001:00005380       ?OnCWLButtonDown@CCharWndCode@@IAEHIJAAJ@Z 00406380 f   CharWndCode.obj
 0001:000053c0       ?OnEXLButtonDown@CCharWndCode@@AAEHABVJPoint@@_N@Z 004063c0 f   CharWndCode.obj
 0001:00005560       ?OnCWLButtonUp@CCharWndCode@@IAEHIJAAJ@Z 00406560 f   CharWndCode.obj
 0001:000055a0       ?OnEXLButtonUp@CCharWndCode@@AAEHABVJPoint@@_N@Z 004065a0 f   CharWndCode.obj
 0001:00005780       ?OnCWRButtonDown@CCharWndCode@@IAEHIJAAJ@Z 00406780 f   CharWndCode.obj
 0001:000057b0       ?OnEXRButtonDown@CCharWndCode@@AAEHABVJPoint@@_N@Z 004067b0 f   CharWndCode.obj
 0001:00005880       ?OnCWRButtonDoubleClick@CCharWndCode@@IAEHIJAAJ@Z 00406880 f   CharWndCode.obj
 0001:00005900       ?InitDragValue@CCharWndCode@@AAEXXZ 00406900 f   CharWndCode.obj
 0001:00005a30       ?OnCWRButtonUp@CCharWndCode@@IAEHIJAAJ@Z 00406a30 f   CharWndCode.obj
 0001:00005a60       ?OnEXRButtonUp@CCharWndCode@@AAEHABVJPoint@@_N@Z 00406a60 f   CharWndCode.obj
 0001:00005b50       ?OnCWContextMenu@CCharWndCode@@IAEHIJAAJ@Z 00406b50 f   CharWndCode.obj
 0001:00005d90       ?ShowContextMenu@CCharWndCode@@IAEXXZ 00406d90 f   CharWndCode.obj
 0001:00005e00       ?OnCWKeyDown@CCharWndCode@@IAEHIJAAJ@Z 00406e00 f   CharWndCode.obj
 0001:00005e60       ?EX_OnKeyDown@CCharWndCode@@QAE_NIJPAUHWND__@@@Z 00406e60 f   CharWndCode.obj
 0001:00005f20       ?OnCWKeyUp@CCharWndCode@@IAEHIJAAJ@Z 00406f20 f   CharWndCode.obj
 0001:00005f90       ?ProcessKeyDown@CCharWndCode@@IAEXIJ@Z 00406f90 f   CharWndCode.obj
 0001:000061a0       ?OnCWDisplayChange@CCharWndCode@@IAEHIJAAJ@Z 004071a0 f   CharWndCode.obj
 0001:000061d0       ?OnCWDrawItem@CCharWndCode@@IAEHIJAAJ@Z 004071d0 f   CharWndCode.obj
 0001:00006230       ?OnCWMeasureItem@CCharWndCode@@IAEHIJAAJ@Z 00407230 f   CharWndCode.obj
 0001:00006260       ?OnCWDropFiles@CCharWndCode@@IAEHIJAAJ@Z 00407260 f   CharWndCode.obj
 0001:00006320       ?OnCWGetMinMaxInfo@CCharWndCode@@IAEHIJAAJ@Z 00407320 f   CharWndCode.obj
 0001:00006380       ?OnCWMenuSelect@CCharWndCode@@IAEHIJAAJ@Z 00407380 f   CharWndCode.obj
 0001:000064f0       ?OnCWTimer@CCharWndCode@@IAEHIJAAJ@Z 004074f0 f   CharWndCode.obj
 0001:000067e0       ?OnCWMouseLeave@CCharWndCode@@IAEHIJAAJ@Z 004077e0 f   CharWndCode.obj
 0001:00006890       ?OnCWNotify@CCharWndCode@@IAEHIJAAJ@Z 00407890 f   CharWndCode.obj
 0001:000068d0       ?OnCWSize@CCharWndCode@@IAEHIJAAJ@Z 004078d0 f   CharWndCode.obj
 0001:000069a0       ?OnCWTouch@CCharWndCode@@IAEHIJAAJ@Z 004079a0 f   CharWndCode.obj
 0001:00006b80       ?OnEXTouchDown@CCharWndCode@@AAEXKPBUtagTOUCHINPUT@@KK@Z 00407b80 f   CharWndCode.obj
 0001:00006c50       ?OnEXTouchUp@CCharWndCode@@AAEXKPBUtagTOUCHINPUT@@KK@Z 00407c50 f   CharWndCode.obj
 0001:00006d60       ?OnEXTouchMove@CCharWndCode@@AAEXPBUtagTOUCHINPUT@@KK@Z 00407d60 f   CharWndCode.obj
 0001:00006db0       ?OnEXTouchTimer@CCharWndCode@@AAEXXZ 00407db0 f   CharWndCode.obj
 0001:00006dc0       ?ProcessThumbnail@CCharWndCode@@IAEXI@Z 00407dc0 f   CharWndCode.obj
 0001:00007090       ?ModifyMenuWithTable@CCharWndCode@@IAEXPAVSPMenuItem@@PBUtagSPMENUMODIFYTABLE@@I@Z 00408090 f   CharWndCode.obj
 0001:00007390       ?Unlock@JThread@@UAEXXZ    00408390 f i CharWndCode.obj
 0001:00007390       ??1JLZWDecoder@@QAE@XZ     00408390 f i CharWndCode.obj
 0001:00007390       ??1JDummyLock@@QAE@XZ      00408390 f i CharWndCode.obj
 0001:00007390       ??1JRect@@QAE@XZ           00408390 f i CharWndCode.obj
 0001:00007390       ??1JPalette@@QAE@XZ        00408390 f i CharWndCode.obj
 0001:00007390       ?Unlock@JSurfaceObject@@UAEXXZ 00408390 f i CharWndCode.obj
 0001:00007390       ??1CMouseHitMap@@QAE@XZ    00408390 f i CharWndCode.obj
 0001:00007390       ??1SPInstallEvent@@QAE@XZ  00408390 f i CharWndCode.obj
 0001:00007390       ??1SPBalloonImage@@QAE@XZ  00408390 f i CharWndCode.obj
 0001:00007390       ??1JLibJPEG@@QAE@XZ        00408390 f i CharWndCode.obj
 0001:00007390       ?Unlock@JDummyLockSection@@UAEXXZ 00408390 f i CharWndCode.obj
 0001:00007390       ??1CObject@@UAE@XZ         00408390 f i CharWndCode.obj
 0001:00007390       ??1JExtent@@QAE@XZ         00408390 f i CharWndCode.obj
 0001:00007390       ??1SPGhostBoolResult@@QAE@XZ 00408390 f i CharWndCode.obj
 0001:00007390       ??1CCharWndCodeManagerData@@QAE@XZ 00408390 f i CharWndCode.obj
 0001:00007390       ?Update@JSurfaceObject@@UAEXXZ 00408390 f i CharWndCode.obj
 0001:000073a0       ?UpdateMessageWndPos@CCharWndCode@@QAEXXZ 004083a0 f   CharWndCode.obj
 0001:000073e0       ?UpdateWndRecommendation@CCharWndCode@@UAEXXZ 004083e0 f   CharWndCode.obj
 0001:00007570       ?ModifyPopupMenu@CCharWndCode@@MAEXXZ 00408570 f   CharWndCode.obj
 0001:00007830       ?ModifyPopupMenuEnableStateChar@CCharWndCode@@AAEX_N@Z 00408830 f   CharWndCode.obj
 0001:00007990       ?CCWC_OnCommand@CCharWndCode@@IAEHIJ@Z 00408990 f   CharWndCode.obj
 0001:00007d30       ?CCWC_OnSSPSysMsg@CCharWndCode@@IAEHIJ@Z 00408d30 f   CharWndCode.obj
 0001:00008120       ?GetDefaultWndPosX@CCharWndCode@@MAEHAAJAAVJRect@@1AAVJPoint@@@Z 00409120 f   CharWndCode.obj
 0001:00008200       ?GetDefaultWndPosXImpl@CCharWndCode@@AAEHPBGAAJAAVJRect@@2AAVJPoint@@@Z 00409200 f   CharWndCode.obj
 0001:00008360       ?GetDefaultWndPosY@CCharWndCode@@MAEHAAJAAVJRect@@1AAVJPoint@@@Z 00409360 f   CharWndCode.obj
 0001:00008400       ?GetDefaultWndPosYImpl@CCharWndCode@@AAEHPBGAAJAAVJRect@@2AAVJPoint@@@Z 00409400 f   CharWndCode.obj
 0001:00008560       ?UpdateWndSize@CCharWndCode@@QAEXIJJ@Z 00409560 f   CharWndCode.obj
 0001:00008a20       ?UpdateBindMenu@CCharWndCode@@QAEXXZ 00409a20 f   CharWndCode.obj
 0001:000090e0       ?UpdateBindMenuCheck@CCharWndCode@@QAEXXZ 0040a0e0 f   CharWndCode.obj
 0001:000091e0       ?MouseDragStartEnd@CCharWndCode@@AAEX_N@Z 0040a1e0 f   CharWndCode.obj
 0001:00009300       ?MouseDragFadeExec@CCharWndCode@@AAEX_N@Z 0040a300 f   CharWndCode.obj
 0001:00009370       ?ToolTipDispInfo@CCharWndCode@@AAE_NAAUtagNMTTDISPINFOA@@@Z 0040a370 f   CharWndCode.obj
 0001:00009660       ?ToolTipActivate@CCharWndCode@@AAEX_N@Z 0040a660 f   CharWndCode.obj
 0001:000096f0       ?Add@CCharWndCodeManager@@QAEXPAVCCharWndCode@@@Z 0040a6f0 f   CharWndCode.obj
 0001:000097d0       ??1JLock@@QAE@XZ           0040a7d0 f i CharWndCode.obj
 0001:000097d0       ??1JUnlock@@QAE@XZ         0040a7d0 f i CharWndCode.obj
 0001:000097e0       ?Delete@CCharWndCodeManager@@QAEXPAVCCharWndCode@@@Z 0040a7e0 f   CharWndCode.obj
 0001:000098a0       ?Find@CCharWndCodeManager@@AAEJPAVCCharWndCode@@@Z 0040a8a0 f   CharWndCode.obj
 0001:000098d0       ?Check@CCharWndCodeManager@@QAEXXZ 0040a8d0 f   CharWndCode.obj
 0001:0000a1a0       ?Size@?$JArray@D@@QBEKXZ   0040b1a0 f i CharWndCode.obj
 0001:0000a1c0       ?Last@?$JArray@G@@QAEAAGXZ 0040b1c0 f i CharWndCode.obj
 0001:0000a1e0       ?Size@?$JArray@G@@QBEKXZ   0040b1e0 f i CharWndCode.obj
 0001:0000a200       ?Search@?$JArray@PAX@@QBEJABQAX@Z 0040b200 f i CharWndCode.obj
 0001:0000a230       ?Add@?$JArray@PAX@@QAEXPBQAXJ@Z 0040b230 f i CharWndCode.obj
 0001:0000a330       ?Realloc@?$JArray@G@@QAE_NK@Z 0040b330 f i CharWndCode.obj
 0001:0000a3d0       ?Realloc@?$JArray@UtagPOINT@@@@QAE_NK@Z 0040b3d0 f i CharWndCode.obj
 0001:0000a3d0       ?Realloc@?$JArray@VSPSerikoRange@@@@QAE_NK@Z 0040b3d0 f i CharWndCode.obj
 0001:0000a3d0       ?Realloc@?$JArray@VJPoint@@@@QAE_NK@Z 0040b3d0 f i CharWndCode.obj
 0001:0000a3d0       ?Realloc@?$JArray@VSPGhostBindBlockEntry@@@@QAE_NK@Z 0040b3d0 f i CharWndCode.obj
 0001:0000a3d0       ?Realloc@?$JArray@VSPSerikoAnimationPlayPat@@@@QAE_NK@Z 0040b3d0 f i CharWndCode.obj
 0001:0000a480       ?Realloc@?$JArray@VCCharWndCodeManagerData@@@@QAE_NK@Z 0040b480 f i CharWndCode.obj
 0001:0000a550       ??0CDeveloperSettingDlg@@QAE@PAVCWnd@@@Z 0040b550 f   DeveloperSetting.obj
 0001:0000a640       ??_ECDeveloperSettingDlg@@UAEPAXI@Z 0040b640 f i DeveloperSetting.obj
 0001:0000a640       ??_GCDeveloperSettingDlg@@UAEPAXI@Z 0040b640 f i DeveloperSetting.obj
 0001:0000a670       ??1CDeveloperSettingDlg@@UAE@XZ 0040b670 f i DeveloperSetting.obj
 0001:0000a700       ?DoDataExchange@CDeveloperSettingDlg@@MAEXPAVCDataExchange@@@Z 0040b700 f   DeveloperSetting.obj
 0001:0000a760       ?GetMessageMap@CDeveloperSettingDlg@@MBEPBUAFX_MSGMAP@@XZ 0040b760 f   DeveloperSetting.obj
 0001:0000a770       ?OnInitDialog@CDeveloperSettingDlg@@MAEHXZ 0040b770 f   DeveloperSetting.obj
 0001:0000abd0       ?OnDestroy@CDeveloperSettingDlg@@IAEXXZ 0040bbd0 f   DeveloperSetting.obj
 0001:0000ad10       ?OnEnableChangeFmoName@CDeveloperSettingDlg@@IAEXXZ 0040bd10 f   DeveloperSetting.obj
 0001:0000ad90       ?OnChangeFmoName@CDeveloperSettingDlg@@IAEXXZ 0040bd90 f   DeveloperSetting.obj
 0001:0000ade0       ?OnUpdateDefChange@CDeveloperSettingDlg@@IAEXXZ 0040bde0 f   DeveloperSetting.obj
 0001:0000aea0       ?OnSetDirDrop@CDeveloperSettingDlg@@IAEXXZ 0040bea0 f   DeveloperSetting.obj
 0001:0000aec0       ?OnNarpathRadio@CDeveloperSettingDlg@@IAEXXZ 0040bec0 f   DeveloperSetting.obj
 0001:0000af20       ?OnNarPathUserAsk@CDeveloperSettingDlg@@IAEXXZ 0040bf20 f   DeveloperSetting.obj
 0001:0000b050       ??1SPFolderDialog@@QAE@XZ  0040c050 f i DeveloperSetting.obj
 0001:0000b0b0       ?OnUpdateBackupfiles@CDeveloperSettingDlg@@IAEXXZ 0040c0b0 f   DeveloperSetting.obj
 0001:0000b0d0       ?OnUpdateIgnoreReadonly@CDeveloperSettingDlg@@IAEXXZ 0040c0d0 f   DeveloperSetting.obj
 0001:0000b0f0       ?OnHideSurfaceError@CDeveloperSettingDlg@@IAEXXZ 0040c0f0 f   DeveloperSetting.obj
 0001:0000b120       ?OnChangeNarPath@CDeveloperSettingDlg@@IAEXXZ 0040c120 f   DeveloperSetting.obj
 0001:0000b170       ?OnNarDefault@CDeveloperSettingDlg@@IAEXXZ 0040c170 f   DeveloperSetting.obj
 0001:0000b260       ?OnNarBrowse@CDeveloperSettingDlg@@IAEXXZ 0040c260 f   DeveloperSetting.obj
 0001:0000b390       ?OnSakuraMutex@CDeveloperSettingDlg@@IAEXXZ 0040c390 f   DeveloperSetting.obj
 0001:0000b3c0       ?OnDisableVanish@CDeveloperSettingDlg@@IAEXXZ 0040c3c0 f   DeveloperSetting.obj
 0001:0000b400       ?OnDisableLock@CDeveloperSettingDlg@@IAEXXZ 0040c400 f   DeveloperSetting.obj
 0001:0000b420       ?OnTortoiseSVN@CDeveloperSettingDlg@@IAEXXZ 0040c420 f   DeveloperSetting.obj
 0001:0000b440       ?OnSelchangeNotifyError@CDeveloperSettingDlg@@IAEXXZ 0040c440 f   DeveloperSetting.obj
 0001:0000b480       ??0CDevPalette@@QAE@PAVCWnd@@@Z 0040c480 f   DevPalette.obj
 0001:0000b4b0       ??_GCExtAppDlg@@UAEPAXI@Z  0040c4b0 f i DevPalette.obj
 0001:0000b4b0       ??_GCDirectoryDrop@@UAEPAXI@Z 0040c4b0 f i DevPalette.obj
 0001:0000b4b0       ??_ECDirectoryDrop@@UAEPAXI@Z 0040c4b0 f i DevPalette.obj
 0001:0000b4b0       ??_ECDevPalette@@UAEPAXI@Z 0040c4b0 f i DevPalette.obj
 0001:0000b4b0       ??_GCDevPalette@@UAEPAXI@Z 0040c4b0 f i DevPalette.obj
 0001:0000b4b0       ??_ECExtAppDlg@@UAEPAXI@Z  0040c4b0 f i DevPalette.obj
 0001:0000b4e0       ??1CDevPalette@@UAE@XZ     0040c4e0 f i DevPalette.obj
 0001:0000b4e0       ??1CDirectoryDrop@@UAE@XZ  0040c4e0 f i DevPalette.obj
 0001:0000b4e0       ??1CExtAppDlg@@UAE@XZ      0040c4e0 f i DevPalette.obj
 0001:0000b4f0       ?GetMessageMap@CDevPalette@@MBEPBUAFX_MSGMAP@@XZ 0040c4f0 f   DevPalette.obj
 0001:0000b500       ?OnClose@CDevPalette@@IAEXXZ 0040c500 f   DevPalette.obj
 0001:0000b500       ?OnCancel@CDevPalette@@MAEXXZ 0040c500 f   DevPalette.obj
 0001:0000b520       ?SetGhost@CDevPalette@@QAEXPAVCSakuraWnd@@@Z 0040c520 f   DevPalette.obj
 0001:0000b540       ?OnInitDialog@CDevPalette@@MAEHXZ 0040c540 f   DevPalette.obj
 0001:0000b730       ?OnDestroy@CDevPalette@@IAEXXZ 0040c730 f   DevPalette.obj
 0001:0000b760       ?OnOpenScript@CDevPalette@@IAEXXZ 0040c760 f   DevPalette.obj
 0001:0000b780       ?OnOpenSurfacetest@CDevPalette@@IAEXXZ 0040c780 f   DevPalette.obj
 0001:0000b7a0       ?OnOpenErrorlog@CDevPalette@@IAEXXZ 0040c7a0 f   DevPalette.obj
 0001:0000b7c0       ?OnShowHitRect@CDevPalette@@IAEXXZ 0040c7c0 f   DevPalette.obj
 0001:0000b830       ?OnBalloonTest@CDevPalette@@IAEXXZ 0040c830 f   DevPalette.obj
 0001:0000b870       ??0SPShioriEventResult@@QAE@PBG@Z 0040c870 f i DevPalette.obj
 0001:0000b890       ?OnAdjustSerikoWait@CDevPalette@@IAEXXZ 0040c890 f   DevPalette.obj
 0001:0000ba20       ??1CStdInput@@UAE@XZ       0040ca20 f i DevPalette.obj
 0001:0000baa0       ?OnShioriLog@CDevPalette@@IAEXXZ 0040caa0 f   DevPalette.obj
 0001:0000baf0       ?OnExecReload@CDevPalette@@IAEXXZ 0040caf0 f   DevPalette.obj
 0001:0000bcf0       ??1CWaitCursor@@QAE@XZ     0040ccf0 f i DevPalette.obj
 0001:0000bd00       ?OnDummyUpdate@CDevPalette@@IAEXXZ 0040cd00 f   DevPalette.obj
 0001:0000bd40       ?OnChangeSender@CDevPalette@@IAEXXZ 0040cd40 f   DevPalette.obj
 0001:0000bec0       ?OnExecOpen@CDevPalette@@IAEXXZ 0040cec0 f   DevPalette.obj
 0001:0000c150       ??0CDirectoryDrop@@QAE@PAVCWnd@@@Z 0040d150 f   DirectoryDrop.obj
 0001:0000c180       ?GetMessageMap@CDirectoryDrop@@MBEPBUAFX_MSGMAP@@XZ 0040d180 f   DirectoryDrop.obj
 0001:0000c190       ?OnOK@CDirectoryDrop@@MAEXXZ 0040d190 f   DirectoryDrop.obj
 0001:0000c1e0       ?OnCancel@CDirectoryDrop@@MAEXXZ 0040d1e0 f   DirectoryDrop.obj
 0001:0000c200       ?OnInitDialog@CDirectoryDrop@@MAEHXZ 0040d200 f   DirectoryDrop.obj
 0001:0000c270       ??0CDirServPropDlg@@QAE@PAVCWnd@@@Z 0040d270 f   DirServPropDlg.obj
 0001:0000c350       ??_GCDirServPropDlg@@UAEPAXI@Z 0040d350 f i DirServPropDlg.obj
 0001:0000c350       ??_ECDirServPropDlg@@UAEPAXI@Z 0040d350 f i DirServPropDlg.obj
 0001:0000c380       ??1CDirServPropDlg@@UAE@XZ 0040d380 f i DirServPropDlg.obj
 0001:0000c410       ?DoDataExchange@CDirServPropDlg@@MAEXPAVCDataExchange@@@Z 0040d410 f   DirServPropDlg.obj
 0001:0000c480       ?GetMessageMap@CDirServPropDlg@@MBEPBUAFX_MSGMAP@@XZ 0040d480 f   DirServPropDlg.obj
 0001:0000c490       ?OnOK@CDirServPropDlg@@MAEXXZ 0040d490 f   DirServPropDlg.obj
 0001:0000c6e0       ?OnInitDialog@CDirServPropDlg@@MAEHXZ 0040d6e0 f   DirServPropDlg.obj
 0001:0000c790       ?CreateObject@CDispDlg@@SGPAVCObject@@XZ 0040d790 f   DispDlg.obj
 0001:0000c7f0       ?GetRuntimeClass@CDispDlg@@UBEPAUCRuntimeClass@@XZ 0040d7f0 f   DispDlg.obj
 0001:0000c800       ??0CDispDlg@@QAE@PAVCWnd@@@Z 0040d800 f   DispDlg.obj
 0001:0000c8a0       ??_GCSliderCtrl@@UAEPAXI@Z 0040d8a0 f i DispDlg.obj
 0001:0000c8a0       ??_ECSliderCtrl@@UAEPAXI@Z 0040d8a0 f i DispDlg.obj
 0001:0000c8d0       ??_ECDispDlg@@UAEPAXI@Z    0040d8d0 f i DispDlg.obj
 0001:0000c8d0       ??_GCDispDlg@@UAEPAXI@Z    0040d8d0 f i DispDlg.obj
 0001:0000c900       ??1CDispDlg@@UAE@XZ        0040d900 f i DispDlg.obj
 0001:0000c970       ?DoDataExchange@CDispDlg@@MAEXPAVCDataExchange@@@Z 0040d970 f   DispDlg.obj
 0001:0000c9c0       ?GetMessageMap@CDispDlg@@MBEPBUAFX_MSGMAP@@XZ 0040d9c0 f   DispDlg.obj
 0001:0000c9d0       ?OnInitDialog@CDispDlg@@MAEHXZ 0040d9d0 f   DispDlg.obj
 0001:0000cc50       ?OnHScroll@CDispDlg@@IAEXIIPAVCScrollBar@@@Z 0040dc50 f   DispDlg.obj
 0001:0000ce60       ?UpdateLWinConfigEnabled@CDispDlg@@IAEXXZ 0040de60 f   DispDlg.obj
 0001:0000cec0       ?OnLayered@CDispDlg@@IAEXXZ 0040dec0 f   DispDlg.obj
 0001:0000cf00       ?OnCrossfader@CDispDlg@@IAEXXZ 0040df00 f   DispDlg.obj
 0001:0000cf40       ?OnExtendMenuWidthClick@CDispDlg@@IAEXXZ 0040df40 f   DispDlg.obj
 0001:0000cf70       ?OnDontSetCursorClick@CDispDlg@@IAEXXZ 0040df70 f   DispDlg.obj
 0001:0000cfb0       ?OnChangeDesktopOffset@CDispDlg@@IAEXXZ 0040dfb0 f   DispDlg.obj
 0001:0000cff0       ?OnShowThumbnail@CDispDlg@@IAEXXZ 0040dff0 f   DispDlg.obj
 0001:0000d020       ?OnCreateSubmenu@CDispDlg@@IAEXXZ 0040e020 f   DispDlg.obj
 0001:0000d050       ?OnChangeMenuLimit@CDispDlg@@IAEXXZ 0040e050 f   DispDlg.obj
 0001:0000d090       ?OnDestroy@CDispDlg@@IAEXXZ 0040e090 f   DispDlg.obj
 0001:0000d1c0       ?OnChangeHistoryLimit@CDispDlg@@IAEXXZ 0040e1c0 f   DispDlg.obj
 0001:0000d1f0       ?OnChangeMenuHeight@CDispDlg@@IAEXXZ 0040e1f0 f   DispDlg.obj
 0001:0000d230       ?OnDragdrop@CDispDlg@@IAEXXZ 0040e230 f   DispDlg.obj
 0001:0000d260       ?OnFlip3d@CDispDlg@@IAEXXZ 0040e260 f   DispDlg.obj
 0001:0000d380       ?GetItemCheck@CDlgUtil@@SIJPAUHWND__@@H@Z 0040e380 f   DlgUtil.obj
 0001:0000d3b0       ?SetItemCheck@CDlgUtil@@SI_NPAUHWND__@@HH@Z 0040e3b0 f   DlgUtil.obj
 0001:0000d3f0       ?EnableItem@CDlgUtil@@SI_NPAUHWND__@@HH@Z 0040e3f0 f   DlgUtil.obj
 0001:0000d450       ?SetFocusItem@CDlgUtil@@SI_NPAUHWND__@@H@Z 0040e450 f   DlgUtil.obj
 0001:0000d490       ?GetItemRect@CDlgUtil@@SI_NPAUHWND__@@HAAUtagRECT@@@Z 0040e490 f   DlgUtil.obj
 0001:0000d4c0       ?ModifyStyle@CDlgUtil@@SI_NPAUHWND__@@HKK@Z 0040e4c0 f   DlgUtil.obj
 0001:0000d520       ?GetText@CDlgUtil@@SI_NPAUHWND__@@AAVJWString@@@Z 0040e520 f   DlgUtil.obj
 0001:0000d660       ?SetText@CDlgUtil@@SI_NPAUHWND__@@PBG@Z 0040e660 f   DlgUtil.obj
 0001:0000d770       ?GetItemText@CDlgUtil@@SI_NPAUHWND__@@HAAVJWString@@@Z 0040e770 f   DlgUtil.obj
 0001:0000d7a0       ?GetItemText@CDlgUtil@@SI_NPAUHWND__@@HAAVJString@@@Z 0040e7a0 f   DlgUtil.obj
 0001:0000d8c0       ?SetItemText@CDlgUtil@@SI_NPAUHWND__@@HPBD@Z 0040e8c0 f   DlgUtil.obj
 0001:0000d950       ?SetItemText@CDlgUtil@@SI_NPAUHWND__@@HPBG@Z 0040e950 f   DlgUtil.obj
 0001:0000d980       ?SetItemLimitText@CDlgUtil@@SI_NPAUHWND__@@HH@Z 0040e980 f   DlgUtil.obj
 0001:0000d9c0       ?SetItemNumAndSpin@CDlgUtil@@SI_NPAUHWND__@@HHHHH@Z 0040e9c0 f   DlgUtil.obj
 0001:0000dac0       ?GetItemNum@CDlgUtil@@SIHPAUHWND__@@H@Z 0040eac0 f   DlgUtil.obj
 0001:0000dc60       ?SetPos@CDlgUtil@@SI_NPAUHWND__@@HH@Z 0040ec60 f   DlgUtil.obj
 0001:0000dca0       ?SetRange@CDlgUtil@@SI_NPAUHWND__@@HHH@Z 0040eca0 f   DlgUtil.obj
 0001:0000dd40       ?SetClipboardText@CDlgUtil@@SI_NPAUHWND__@@PBG@Z 0040ed40 f   DlgUtil.obj
 0001:0000de40       ?LockWindowUpdate@CDlgUtil@@SIXAAVCWnd@@@Z 0040ee40 f   DlgUtil.obj
 0001:0000de60       ?UnlockWindowUpdate@CDlgUtil@@SIXAAVCWnd@@@Z 0040ee60 f   DlgUtil.obj
 0001:0000de90       ?SetDialogFontGUI@CDlgUtil@@SIXPAUHWND__@@@Z 0040ee90 f   DlgUtil.obj
 0001:0000deb0       ?SetDialogFont@CDlgUtil@@SIXPAUHWND__@@PAUHFONT__@@@Z 0040eeb0 f   DlgUtil.obj
 0001:0000df00       ?SetComboBoxTable@CDlgUtil@@SIXPAUHWND__@@PAD@Z 0040ef00 f   DlgUtil.obj
 0001:0000e090       ?CreateObject@CExtAppDlg@@SGPAVCObject@@XZ 0040f090 f   ExtAppDlg.obj
 0001:0000e0f0       ?GetRuntimeClass@CExtAppDlg@@UBEPAUCRuntimeClass@@XZ 0040f0f0 f   ExtAppDlg.obj
 0001:0000e100       ??0CExtAppDlg@@QAE@PAVCWnd@@@Z 0040f100 f   ExtAppDlg.obj
 0001:0000e130       ?GetMessageMap@CExtAppDlg@@MBEPBUAFX_MSGMAP@@XZ 0040f130 f   ExtAppDlg.obj
 0001:0000e140       ?ChoiceExeFile@CExtAppDlg@@AAEHAAVJString@@PBG@Z 0040f140 f   ExtAppDlg.obj
 0001:0000e1f0       ?OnRefBrowser@CExtAppDlg@@IAEXXZ 0040f1f0 f   ExtAppDlg.obj
 0001:0000e260       ?OnRefFiler@CExtAppDlg@@IAEXXZ 0040f260 f   ExtAppDlg.obj
 0001:0000e2d0       ?OnRefMailer@CExtAppDlg@@IAEXXZ 0040f2d0 f   ExtAppDlg.obj
 0001:0000e340       ?OnInitDialog@CExtAppDlg@@MAEHXZ 0040f340 f   ExtAppDlg.obj
 0001:0000e3f0       ?OnChangeDefaultBrowser@CExtAppDlg@@IAEXXZ 0040f3f0 f   ExtAppDlg.obj
 0001:0000e420       ?OnChangeDefaultFiler@CExtAppDlg@@IAEXXZ 0040f420 f   ExtAppDlg.obj
 0001:0000e450       ?OnChangeDefaultMailer@CExtAppDlg@@IAEXXZ 0040f450 f   ExtAppDlg.obj
 0001:0000e480       ?OnChangeDefaultMailerArg@CExtAppDlg@@IAEXXZ 0040f480 f   ExtAppDlg.obj
 0001:0000e4b0       ??0CFolderDlg@@QAE@PAVCWnd@@@Z 0040f4b0 f   FolderDlg.obj
 0001:0000e560       ??_GCFolderDlg@@UAEPAXI@Z  0040f560 f i FolderDlg.obj
 0001:0000e560       ??_ECFolderDlg@@UAEPAXI@Z  0040f560 f i FolderDlg.obj
 0001:0000e590       ??1CFolderDlg@@UAE@XZ      0040f590 f i FolderDlg.obj
 0001:0000e610       ?DoDataExchange@CFolderDlg@@MAEXPAVCDataExchange@@@Z 0040f610 f   FolderDlg.obj
 0001:0000e670       ?GetMessageMap@CFolderDlg@@MBEPBUAFX_MSGMAP@@XZ 0040f670 f   FolderDlg.obj
 0001:0000e680       ?OnInitDialog@CFolderDlg@@MAEHXZ 0040f680 f   FolderDlg.obj
 0001:0000e6a0       ?OnGhostEdit@CFolderDlg@@IAEXXZ 0040f6a0 f   FolderDlg.obj
 0001:0000e7f0       ??1SPStaticStringArrayW@@QAE@XZ 0040f7f0 f i FolderDlg.obj
 0001:0000e880       ??1SPDataPathList@@QAE@XZ  0040f880 f i FolderDlg.obj
 0001:0000e8f0       ??1CFolderEditDlg@@UAE@XZ  0040f8f0 f i FolderDlg.obj
 0001:0000e9b0       ?OnBalloonEdit@CFolderDlg@@IAEXXZ 0040f9b0 f   FolderDlg.obj
 0001:0000e9f0       ?OnHeadlineEdit@CFolderDlg@@IAEXXZ 0040f9f0 f   FolderDlg.obj
 0001:0000ea30       ?OnPluginEdit@CFolderDlg@@IAEXXZ 0040fa30 f   FolderDlg.obj
 0001:0000ea70       ?UpdateNum@CFolderDlg@@IAEXXZ 0040fa70 f   FolderDlg.obj
 0001:0000eb20       ?OnGhostReload@CFolderDlg@@IAEXXZ 0040fb20 f   FolderDlg.obj
 0001:0000eb50       ?OnBalloonReload@CFolderDlg@@IAEXXZ 0040fb50 f   FolderDlg.obj
 0001:0000eb80       ?OnHeadlineReload@CFolderDlg@@IAEXXZ 0040fb80 f   FolderDlg.obj
 0001:0000ebb0       ?OnPluginReload@CFolderDlg@@IAEXXZ 0040fbb0 f   FolderDlg.obj
 0001:0000ebe0       ??0CFolderEditDlg@@QAE@PAVCWnd@@@Z 0040fbe0 f   FolderEditDlg.obj
 0001:0000ecc0       ??_ECListCtrl@@UAEPAXI@Z   0040fcc0 f i FolderEditDlg.obj
 0001:0000ecc0       ??_GCListCtrl@@UAEPAXI@Z   0040fcc0 f i FolderEditDlg.obj
 0001:0000ecf0       ??0SPStaticStringArrayW@@QAE@XZ 0040fcf0 f i FolderEditDlg.obj
 0001:0000ed40       ??_ECFolderEditDlg@@UAEPAXI@Z 0040fd40 f i FolderEditDlg.obj
 0001:0000ed40       ??_GCFolderEditDlg@@UAEPAXI@Z 0040fd40 f i FolderEditDlg.obj
 0001:0000ed70       ?DoDataExchange@CFolderEditDlg@@MAEXPAVCDataExchange@@@Z 0040fd70 f   FolderEditDlg.obj
 0001:0000ed90       ?GetMessageMap@CFolderEditDlg@@MBEPBUAFX_MSGMAP@@XZ 0040fd90 f   FolderEditDlg.obj
 0001:0000eda0       ?OnInitDialog@CFolderEditDlg@@MAEHXZ 0040fda0 f   FolderEditDlg.obj
 0001:0000ef90       ?OnDestroy@CFolderEditDlg@@IAEXXZ 0040ff90 f   FolderEditDlg.obj
 0001:0000efc0       ?UpdateList@CFolderEditDlg@@IAEXXZ 0040ffc0 f   FolderEditDlg.obj
 0001:0000f440       ??0JString@@QAE@XZ         00410440 f i FolderEditDlg.obj
 0001:0000f600       ?GetListSel@CFolderEditDlg@@IAEHXZ 00410600 f   FolderEditDlg.obj
 0001:0000f640       ?SetListSel@CFolderEditDlg@@IAEXH@Z 00410640 f   FolderEditDlg.obj
 0001:0000f680       ?OnOK@CFolderEditDlg@@MAEXXZ 00410680 f   FolderEditDlg.obj
 0001:0000f6d0       ?OnCancel@CFolderEditDlg@@MAEXXZ 004106d0 f   FolderEditDlg.obj
 0001:0000f6f0       ?OnFolderModify@CFolderEditDlg@@IAEXXZ 004106f0 f   FolderEditDlg.obj
 0001:0000f8d0       ?OnFolderAdd@CFolderEditDlg@@IAEXXZ 004108d0 f   FolderEditDlg.obj
 0001:0000fa20       ?OnFolderEdit@CFolderEditDlg@@IAEXXZ 00410a20 f   FolderEditDlg.obj
 0001:0000fcb0       ?OnFolderDel@CFolderEditDlg@@IAEXXZ 00410cb0 f   FolderEditDlg.obj
 0001:0000fd00       ?OnDblclkFolderList@CFolderEditDlg@@IAEXPAUtagNMHDR@@PAJ@Z 00410d00 f   FolderEditDlg.obj
 0001:0000fd90       ?OnDropFiles@CFolderEditDlg@@IAEXPAUHDROP__@@@Z 00410d90 f   FolderEditDlg.obj
 0001:0000fe60       ??1SPMultiFile@@QAE@XZ     00410e60 f i FolderEditDlg.obj
 0001:0000fec0       ?OnFolderUp@CFolderEditDlg@@IAEXXZ 00410ec0 f   FolderEditDlg.obj
 0001:0000ff10       ?OnFolderDn@CFolderEditDlg@@IAEXXZ 00410f10 f   FolderEditDlg.obj
 0001:0000ff70       ?UpdateButtonState@CFolderEditDlg@@IAEXXZ 00410f70 f   FolderEditDlg.obj
 0001:00010150       ?OnItemChangedFolderList@CFolderEditDlg@@IAEXPAUtagNMHDR@@PAJ@Z 00411150 f   FolderEditDlg.obj
 0001:00010190       ?OnEndLabelEditFolderList@CFolderEditDlg@@IAEXPAUtagNMHDR@@PAJ@Z 00411190 f   FolderEditDlg.obj
 0001:00010240       ?Realloc@?$JArray@J@@QAE_NK@Z 00411240 f i FolderEditDlg.obj
 0001:00010240       ?Realloc@?$JArray@K@@QAE_NK@Z 00411240 f i FolderEditDlg.obj
 0001:00010240       ?Realloc@?$JArray@PAX@@QAE_NK@Z 00411240 f i FolderEditDlg.obj
 0001:000102f0       ??0CGhostDlg@@QAE@PAVCWnd@@@Z 004112f0 f   GhostDlg.obj
 0001:00010400       ??_ECSpinButtonCtrl@@UAEPAXI@Z 00411400 f i GhostDlg.obj
 0001:00010400       ??_GCSpinButtonCtrl@@UAEPAXI@Z 00411400 f i GhostDlg.obj
 0001:00010430       ??_ECGhostDlg@@UAEPAXI@Z   00411430 f i GhostDlg.obj
 0001:00010430       ??_GCGhostDlg@@UAEPAXI@Z   00411430 f i GhostDlg.obj
 0001:00010460       ??1CGhostDlg@@UAE@XZ       00411460 f i GhostDlg.obj
 0001:00010540       ?DoDataExchange@CGhostDlg@@MAEXPAVCDataExchange@@@Z 00411540 f   GhostDlg.obj
 0001:000105e0       ?GetMessageMap@CGhostDlg@@MBEPBUAFX_MSGMAP@@XZ 004115e0 f   GhostDlg.obj
 0001:000105f0       ?OnInitDialog@CGhostDlg@@MAEHXZ 004115f0 f   GhostDlg.obj
 0001:00010a90       ?OnCacheEnable@CGhostDlg@@IAEXXZ 00411a90 f   GhostDlg.obj
 0001:00010ae0       ?OnChangeCacheDuration@CGhostDlg@@IAEXXZ 00411ae0 f   GhostDlg.obj
 0001:00010b30       ?OnChangeCacheNum@CGhostDlg@@IAEXXZ 00411b30 f   GhostDlg.obj
 0001:00010b80       ?UpdateEnabled@CGhostDlg@@IAEXXZ 00411b80 f   GhostDlg.obj
 0001:00010c30       ?OnRandomGhostBoot@CGhostDlg@@IAEXXZ 00411c30 f   GhostDlg.obj
 0001:00010c60       ?OnNoMenuModify@CGhostDlg@@IAEXXZ 00411c60 f   GhostDlg.obj
 0001:00010cb0       ?OnAutoChangeEnable@CGhostDlg@@IAEXXZ 00411cb0 f   GhostDlg.obj
 0001:00010d00       ?OnAutoChangeRadio@CGhostDlg@@IAEXXZ 00411d00 f   GhostDlg.obj
 0001:00010d40       ?OnChangeAutoChangeDuration@CGhostDlg@@IAEXXZ 00411d40 f   GhostDlg.obj
 0001:00010d90       ?OnNoTalkMinimize@CGhostDlg@@IAEXXZ 00411d90 f   GhostDlg.obj
 0001:00010dd0       ?OnSelchangeUpdatecheckMethod@CGhostDlg@@IAEXXZ 00411dd0 f   GhostDlg.obj
 0001:00010e00       ?OnSelchangeStrictUpdateKey@CGhostDlg@@IAEXXZ 00411e00 f   GhostDlg.obj
 0001:00010e40       ?OnStrictUpdate@CGhostDlg@@IAEXXZ 00411e40 f   GhostDlg.obj
 0001:00010e80       ?OnMikire@CGhostDlg@@IAEXXZ 00411e80 f   GhostDlg.obj
 0001:00010eb0       ?OnKasanari@CGhostDlg@@IAEXXZ 00411eb0 f   GhostDlg.obj
 0001:00010ee0       ?OnUpdateCheckOther@CGhostDlg@@IAEXXZ 00411ee0 f   GhostDlg.obj
 0001:00010f00       ?OnDestroy@CNetworkDlg@@IAEXXZ 00411f00 f   GhostDlg.obj
 0001:00010f00       ?OnDestroy@CGhostDlg@@IAEXXZ 00411f00 f   GhostDlg.obj
 0001:00010f00       ?OnDestroy@CExtAppDlg@@IAEXXZ 00411f00 f   GhostDlg.obj
 0001:00010f10       ??0CGhostExtDlg@@QAE@PAVCWnd@@@Z 00411f10 f   GhostExtDlg.obj
 0001:00010f80       ??_ECProgressCtrl@@UAEPAXI@Z 00411f80 f i GhostExtDlg.obj
 0001:00010f80       ??_GCProgressCtrl@@UAEPAXI@Z 00411f80 f i GhostExtDlg.obj
 0001:00010fb0       ??_ECGhostExtDlg@@UAEPAXI@Z 00411fb0 f i GhostExtDlg.obj
 0001:00010fb0       ??_GCGhostExtDlg@@UAEPAXI@Z 00411fb0 f i GhostExtDlg.obj
 0001:00010fe0       ??1CGhostExtDlg@@UAE@XZ    00411fe0 f i GhostExtDlg.obj
 0001:00011030       ?DoDataExchange@CGhostExtDlg@@MAEXPAVCDataExchange@@@Z 00412030 f   GhostExtDlg.obj
 0001:00011050       ?GetMessageMap@CGhostExtDlg@@MBEPBUAFX_MSGMAP@@XZ 00412050 f   GhostExtDlg.obj
 0001:00011060       ?OnInitDialog@CGhostExtDlg@@MAEHXZ 00412060 f   GhostExtDlg.obj
 0001:00011230       ?OnTopmost@CGhostExtDlg@@IAEXXZ 00412230 f   GhostExtDlg.obj
 0001:00011260       ?OnDefinedSurfaceOnly@CGhostExtDlg@@IAEXXZ 00412260 f   GhostExtDlg.obj
 0001:00011290       ?OnIgnoreMove@CGhostExtDlg@@IAEXXZ 00412290 f   GhostExtDlg.obj
 0001:000112c0       ?OnSound@CGhostExtDlg@@IAEXXZ 004122c0 f   GhostExtDlg.obj
 0001:000112f0       ?OnBalloonmove@CGhostExtDlg@@IAEXXZ 004122f0 f   GhostExtDlg.obj
 0001:00011320       ?OnForceAlignRadio@CGhostExtDlg@@IAEXXZ 00412320 f   GhostExtDlg.obj
 0001:00011370       ?OnDeactivate@CGhostExtDlg@@IAEXXZ 00412370 f   GhostExtDlg.obj
 0001:000113a0       ?OnActivate@CGhostExtDlg@@IAEXXZ 004123a0 f   GhostExtDlg.obj
 0001:00011410       ?OnDestroy@CGhostExtDlg@@IAEXXZ 00412410 f   GhostExtDlg.obj
 0001:000114b0       ?OnReset@CGhostExtDlg@@IAEXXZ 004124b0 f   GhostExtDlg.obj
 0001:000114e0       ?ThreadProc@CGhostExtDlg@@QAEXXZ 004124e0 f   GhostExtDlg.obj
 0001:00011b50       ??0JWString@@QAE@XZ        00412b50 f i GhostExtDlg.obj
 0001:00011be0       ??1JHash@@QAE@XZ           00412be0 f i GhostExtDlg.obj
 0001:00011bf0       ??1SPSettings@@QAE@XZ      00412bf0 f i GhostExtDlg.obj
 0001:00011c90       ??0CGhostHelperWnd@@QAE@XZ 00412c90 f   GhostHelperWnd.obj
 0001:00011d30       ??_ECGhostHelperWnd@@UAEPAXI@Z 00412d30 f i GhostHelperWnd.obj
 0001:00011d30       ??_GCGhostHelperWnd@@UAEPAXI@Z 00412d30 f i GhostHelperWnd.obj
 0001:00011d60       ??1?$JPtrArray@PAVSPCompatibleWordEntry@@@@QAE@XZ 00412d60 f i GhostHelperWnd.obj
 0001:00011d60       ??1?$JPtrArray@PAVSPLogData@@@@QAE@XZ 00412d60 f i GhostHelperWnd.obj
 0001:00011d60       ??1?$JPtrArray@PAVSPAnimeScript@@@@QAE@XZ 00412d60 f i GhostHelperWnd.obj
 0001:00011d60       ??1?$JArray@UtagSPControlAdjusterData@@@@QAE@XZ 00412d60 f i GhostHelperWnd.obj
 0001:00011d60       ??1?$JArray@PAX@@QAE@XZ    00412d60 f i GhostHelperWnd.obj
 0001:00011d60       ??1?$JArray@USPSerikoAnimationQueue@@@@QAE@XZ 00412d60 f i GhostHelperWnd.obj
 0001:00011d60       ??1?$JArray@VCCharWndCodeManagerData@@@@QAE@XZ 00412d60 f i GhostHelperWnd.obj
 0001:00011d60       ??1?$JArray@VJSockAddr@@@@QAE@XZ 00412d60 f i GhostHelperWnd.obj
 0001:00011d60       ??1?$JPtrArray@PAVSPSTMThreadDesc@@@@QAE@XZ 00412d60 f i GhostHelperWnd.obj
 0001:00011d60       ?Release@?$JArray@PAX@@QAEXXZ 00412d60 f i GhostHelperWnd.obj
 0001:00011d60       ??1?$JPtrArray@PAVSPGhostDlgInfo@@@@QAE@XZ 00412d60 f i GhostHelperWnd.obj
 0001:00011d60       ?Release@?$JArray@D@@QAEXXZ 00412d60 f i GhostHelperWnd.obj
 0001:00011d60       ??1?$JPtrArray@PAVSPScriptEntry@@@@QAE@XZ 00412d60 f i GhostHelperWnd.obj
 0001:00011d60       ??1?$JArray@VSPSerikoRange@@@@QAE@XZ 00412d60 f i GhostHelperWnd.obj
 0001:00011d60       ??1?$JPtrArray@PAVSPBalloonDescHolder@@@@QAE@XZ 00412d60 f i GhostHelperWnd.obj
 0001:00011d60       ?Release@?$JArray@VSPSerikoRange@@@@QAEXXZ 00412d60 f i GhostHelperWnd.obj
 0001:00011d60       ??1?$JArray@V?$SPSparsePtrArrayDefPair@PAVSPAnimeBase@@@@@@QAE@XZ 00412d60 f i GhostHelperWnd.obj
 0001:00011d60       ??1?$JArray@UtagCTW_GHOSTTIMEDATA@@@@QAE@XZ 00412d60 f i GhostHelperWnd.obj
 0001:00011d60       ??1?$JPtrArray@PAVSPSurfaceTestData@@@@QAE@XZ 00412d60 f i GhostHelperWnd.obj
 0001:00011d60       ??1?$JPtrArray@P6AXKPAX0@Z@@QAE@XZ 00412d60 f i GhostHelperWnd.obj
 0001:00011d60       ??1?$JPtrArray@PBVTiXmlNode@@@@QAE@XZ 00412d60 f i GhostHelperWnd.obj
 0001:00011d60       ??1?$JPtrArray@PAVSPBindGroup@@@@QAE@XZ 00412d60 f i GhostHelperWnd.obj
 0001:00011d60       ??1?$JPtrArray@PAVSPPopAccount@@@@QAE@XZ 00412d60 f i GhostHelperWnd.obj
 0001:00011d60       ??1?$JPtrArray@PAVSPTimingEntry@@@@QAE@XZ 00412d60 f i GhostHelperWnd.obj
 0001:00011d60       ??1?$JPtrArray@PAVSPOtherGhostProp@@@@QAE@XZ 00412d60 f i GhostHelperWnd.obj
 0001:00011d60       ??1?$JPtrArray@PAVSPMessengerLogData@@@@QAE@XZ 00412d60 f i GhostHelperWnd.obj
 0001:00011d60       ??1?$JPtrArray@PAVSPRecommendProp@@@@QAE@XZ 00412d60 f i GhostHelperWnd.obj
 0001:00011d60       ??1?$JPtrArray@PAVSPCalendarSkinProp@@@@QAE@XZ 00412d60 f i GhostHelperWnd.obj
 0001:00011d60       ??1?$JArray@J@@QAE@XZ      00412d60 f i GhostHelperWnd.obj
 0001:00011d60       ??1?$JPtrArray@PAUHMENU__@@@@QAE@XZ 00412d60 f i GhostHelperWnd.obj
 0001:00011d60       ??1?$JPtrArray@PAVSPGhostMoveManagerInfo@@@@QAE@XZ 00412d60 f i GhostHelperWnd.obj
 0001:00011d60       ??1?$JPtrArray@PAVSPAnimeSurfaceElement@@@@QAE@XZ 00412d60 f i GhostHelperWnd.obj
 0001:00011d60       ??1?$JPtrArray@PAVJWString@@@@QAE@XZ 00412d60 f i GhostHelperWnd.obj
 0001:00011d60       ??1?$JPtrArray@PAVSPAnimePat@@@@QAE@XZ 00412d60 f i GhostHelperWnd.obj
 0001:00011d60       ??1?$JPtrArray@PAVSPURLTranslateData@@@@QAE@XZ 00412d60 f i GhostHelperWnd.obj
 0001:00011d60       ??1?$JPtrArray@PAVSPSerikoAnimation@@@@QAE@XZ 00412d60 f i GhostHelperWnd.obj
 0001:00011d60       ??1?$JPtrArray@PAVSPCmdListener@@@@QAE@XZ 00412d60 f i GhostHelperWnd.obj
 0001:00011d60       ??1?$JPtrArray@PAVSPCmdNotifier@@@@QAE@XZ 00412d60 f i GhostHelperWnd.obj
 0001:00011d60       ??1?$JPtrArray@PAVSPBalloonFontProp@@@@QAE@XZ 00412d60 f i GhostHelperWnd.obj
 0001:00011d60       ??1SPSimpleEncode@@QAE@XZ  00412d60 f i GhostHelperWnd.obj
 0001:00011d60       ??1?$JPtrArray@PAVSPBalloonDesc@@@@QAE@XZ 00412d60 f i GhostHelperWnd.obj
 0001:00011d60       ??1?$JPtrArray@PAVSPDataPathListData@@@@QAE@XZ 00412d60 f i GhostHelperWnd.obj
 0001:00011d60       ?Release@?$JArray@J@@QAEXXZ 00412d60 f i GhostHelperWnd.obj
 0001:00011d60       ??1?$JPtrArray@PAVSPPopMessage@@@@QAE@XZ 00412d60 f i GhostHelperWnd.obj
 0001:00011d60       ??1?$JPtrArray@PAVSPOtherFINEServerProp@@@@QAE@XZ 00412d60 f i GhostHelperWnd.obj
 0001:00011d60       ??1?$JPtrArray@PAVSPLSPString@@@@QAE@XZ 00412d60 f i GhostHelperWnd.obj
 0001:00011d60       ??1?$JPtrArray@PAVSPMultiFileEntry@@@@QAE@XZ 00412d60 f i GhostHelperWnd.obj
 0001:00011d60       ??1?$JPtrArray@PAVSPGhostProp@@@@QAE@XZ 00412d60 f i GhostHelperWnd.obj
 0001:00011d60       ??1?$JPtrArray@PAVSPFolderListData@@@@QAE@XZ 00412d60 f i GhostHelperWnd.obj
 0001:00011d60       ??1?$JPtrArray@PAVSPHeadline@@@@QAE@XZ 00412d60 f i GhostHelperWnd.obj
 0001:00011d60       ??1?$JPtrArray@PAVSPSongEntry@@@@QAE@XZ 00412d60 f i GhostHelperWnd.obj
 0001:00011d60       ??1?$JPtrArray@PAVSPDeviceInfo@@@@QAE@XZ 00412d60 f i GhostHelperWnd.obj
 0001:00011d60       ??1?$JPtrArray@PAVSPLanguageProp@@@@QAE@XZ 00412d60 f i GhostHelperWnd.obj
 0001:00011d60       ??1?$JPtrArray@PAVSPCollisionProp@@@@QAE@XZ 00412d60 f i GhostHelperWnd.obj
 0001:00011d60       ??1?$JPtrArray@PAVSPProp@@@@QAE@XZ 00412d60 f i GhostHelperWnd.obj
 0001:00011d60       ??1?$JPtrArray@PAVSPScriptCategory@@@@QAE@XZ 00412d60 f i GhostHelperWnd.obj
 0001:00011d60       ??1?$JPtrArray@PAVSPDirServProp@@@@QAE@XZ 00412d60 f i GhostHelperWnd.obj
 0001:00011d60       ??1?$JPtrArray@PAVCPlaySSFScript@@@@QAE@XZ 00412d60 f i GhostHelperWnd.obj
 0001:00011d60       ??1?$JPtrArray@PAVSPBalloonString@@@@QAE@XZ 00412d60 f i GhostHelperWnd.obj
 0001:00011d60       ??1?$JPtrArray@PBD@@QAE@XZ 00412d60 f i GhostHelperWnd.obj
 0001:00011d60       ??1?$JPtrArray@PAVSPScript@@@@QAE@XZ 00412d60 f i GhostHelperWnd.obj
 0001:00011d60       ??1?$JPtrArray@PAV?$JPtrArray@PAVSPRecommendProp@@@@@@QAE@XZ 00412d60 f i GhostHelperWnd.obj
 0001:00011d60       ??1?$JPtrArray@PAVSPMCIPlayerDesc@@@@QAE@XZ 00412d60 f i GhostHelperWnd.obj
 0001:00011d60       ??1?$JArray@D@@QAE@XZ      00412d60 f i GhostHelperWnd.obj
 0001:00011d60       ?Release@?$JArray@K@@QAEXXZ 00412d60 f i GhostHelperWnd.obj
 0001:00011d60       ??1?$JPtrArray@PAVSPSurface@@@@QAE@XZ 00412d60 f i GhostHelperWnd.obj
 0001:00011d60       ??1?$JPtrArray@PAVSPBalloonProp@@@@QAE@XZ 00412d60 f i GhostHelperWnd.obj
 0001:00011d60       ??1?$JPtrArray@PAE@@QAE@XZ 00412d60 f i GhostHelperWnd.obj
 0001:00011d60       ??1?$JPtrArray@PAVSPGhostSet@@@@QAE@XZ 00412d60 f i GhostHelperWnd.obj
 0001:00011d60       ??1?$JPtrArray@PAVSPBalloonImage@@@@QAE@XZ 00412d60 f i GhostHelperWnd.obj
 0001:00011d60       ??1?$JPtrArray@PAVSPScriptQueueData@@@@QAE@XZ 00412d60 f i GhostHelperWnd.obj
 0001:00011d60       ??1?$JPtrArray@PAVSPSerikoToolTipsEntry@@@@QAE@XZ 00412d60 f i GhostHelperWnd.obj
 0001:00011d60       ??1?$JPtrArray@PAVSPHeadlineRSSElement@@@@QAE@XZ 00412d60 f i GhostHelperWnd.obj
 0001:00011d60       ??1?$JPtrArray@PAVSPCookieEntry@@@@QAE@XZ 00412d60 f i GhostHelperWnd.obj
 0001:00011d60       ?Release@?$JArray@G@@QAEXXZ 00412d60 f i GhostHelperWnd.obj
 0001:00011d60       ??1?$JArray@VSPSerikoAnimationPlayPat@@@@QAE@XZ 00412d60 f i GhostHelperWnd.obj
 0001:00011d60       ??1?$JPtrArray@PAVSPMessengerUser@@@@QAE@XZ 00412d60 f i GhostHelperWnd.obj
 0001:00011d60       ??1?$JPtrArray@PAVSPCookieClient@@@@QAE@XZ 00412d60 f i GhostHelperWnd.obj
 0001:00011d60       ??1?$JPtrArray@PAVCSSPPropertyData@@@@QAE@XZ 00412d60 f i GhostHelperWnd.obj
 0001:00011d60       ??1?$JPtrArray@PAVSPGhostRaiseTimerBlock@@@@QAE@XZ 00412d60 f i GhostHelperWnd.obj
 0001:00011d60       ??1?$JPtrArray@PAVSPBindEntry@@@@QAE@XZ 00412d60 f i GhostHelperWnd.obj
 0001:00011d60       ??1?$JPtrArray@PAVSPSSTPServerSocket@@@@QAE@XZ 00412d60 f i GhostHelperWnd.obj
 0001:00011d60       ??1?$JArray@VJRect@@@@QAE@XZ 00412d60 f i GhostHelperWnd.obj
 0001:00011d60       ??1?$JPtrArray@PAVSPBindProp@@@@QAE@XZ 00412d60 f i GhostHelperWnd.obj
 0001:00011d60       ??1?$JPtrArray@PAVSPSSTPData@@@@QAE@XZ 00412d60 f i GhostHelperWnd.obj
 0001:00011d60       ??1?$JPtrArray@PAVSPTimeClientData@@@@QAE@XZ 00412d60 f i GhostHelperWnd.obj
 0001:00011d60       ??1?$JArray@VJPoint@@@@QAE@XZ 00412d60 f i GhostHelperWnd.obj
 0001:00011d60       ??1?$JPtrArray@PAVJSurface@@@@QAE@XZ 00412d60 f i GhostHelperWnd.obj
 0001:00011d60       ??1?$JPtrArray@PAVSPCalendarIconEntry@@@@QAE@XZ 00412d60 f i GhostHelperWnd.obj
 0001:00011d60       ??1?$JPtrArray@PAVSPSerikoTask@@@@QAE@XZ 00412d60 f i GhostHelperWnd.obj
 0001:00011d60       ??1?$JArray@K@@QAE@XZ      00412d60 f i GhostHelperWnd.obj
 0001:00011d60       ??1?$JPtrArray@PAVSPPlugin@@@@QAE@XZ 00412d60 f i GhostHelperWnd.obj
 0001:00011d60       ??1?$JPtrArray@PAVSPVanishData@@@@QAE@XZ 00412d60 f i GhostHelperWnd.obj
 0001:00011d60       ??1?$JPtrArray@PAVCCharBodyWnd@@@@QAE@XZ 00412d60 f i GhostHelperWnd.obj
 0001:00011d60       ??1?$JPtrArray@PAVSPUpdateFileDef@@@@QAE@XZ 00412d60 f i GhostHelperWnd.obj
 0001:00011d60       ??1?$JArray@G@@QAE@XZ      00412d60 f i GhostHelperWnd.obj
 0001:00011d60       ??1?$JPtrArray@PAVSPSerikoCursorEntry@@@@QAE@XZ 00412d60 f i GhostHelperWnd.obj
 0001:00011d60       ??1?$JPtrArray@PAVSPDlgTemplateItem@@@@QAE@XZ 00412d60 f i GhostHelperWnd.obj
 0001:00011d60       ??1?$JPtrArray@PAVSPCalendarImage@@@@QAE@XZ 00412d60 f i GhostHelperWnd.obj
 0001:00011d60       ??1?$JPtrArray@PAVSPSurfaceTable@@@@QAE@XZ 00412d60 f i GhostHelperWnd.obj
 0001:00011d60       ??1?$JPtrArray@PAVSPGhostTimeEntry@@@@QAE@XZ 00412d60 f i GhostHelperWnd.obj
 0001:00011d60       ??1?$JPtrArray@PAVSPBalloonWnd@@@@QAE@XZ 00412d60 f i GhostHelperWnd.obj
 0001:00011d60       ??1?$JPtrArray@PAVSPGhostLoaderInfo@@@@QAE@XZ 00412d60 f i GhostHelperWnd.obj
 0001:00011d60       ??1?$JArray@VCListDialogData@@@@QAE@XZ 00412d60 f i GhostHelperWnd.obj
 0001:00011d60       ??1?$JArray@UtagPOINT@@@@QAE@XZ 00412d60 f i GhostHelperWnd.obj
 0001:00011d60       ??1?$JPtrArray@PAVSPGhostRaiseBlock@@@@QAE@XZ 00412d60 f i GhostHelperWnd.obj
 0001:00011d60       ??1?$JPtrArray@PAVSPScheduleEntry@@@@QAE@XZ 00412d60 f i GhostHelperWnd.obj
 0001:00011d60       ??1?$JPtrArray@PAD@@QAE@XZ 00412d60 f i GhostHelperWnd.obj
 0001:00011d60       ??1?$JPtrArray@PAVSPGhost@@@@QAE@XZ 00412d60 f i GhostHelperWnd.obj
 0001:00011d60       ??1?$JPtrArray@PAVJGIFImage@@@@QAE@XZ 00412d60 f i GhostHelperWnd.obj
 0001:00011d60       ??1?$JPtrArray@PAVSPShellProp@@@@QAE@XZ 00412d60 f i GhostHelperWnd.obj
 0001:00011d60       ?Release@?$JArray@VJRect@@@@QAEXXZ 00412d60 f i GhostHelperWnd.obj
 0001:00011d60       ??1?$JArray@UtagSPMenuHackData@@@@QAE@XZ 00412d60 f i GhostHelperWnd.obj
 0001:00011d60       ??1?$JPtrArray@PAVSPMenuItem@@@@QAE@XZ 00412d60 f i GhostHelperWnd.obj
 0001:00011d60       ??1?$JPtrArray@PAVCInputWnd@@@@QAE@XZ 00412d60 f i GhostHelperWnd.obj
 0001:00011d60       ??1?$JPtrArray@PAVSPDirServLogon@@@@QAE@XZ 00412d60 f i GhostHelperWnd.obj
 0001:00011d60       ??1?$JPtrArray@PAVJString@@@@QAE@XZ 00412d60 f i GhostHelperWnd.obj
 0001:00011d60       ??1?$JPtrArray@PAG@@QAE@XZ 00412d60 f i GhostHelperWnd.obj
 0001:00011d60       ??1?$JPtrArray@PAVSPScheduleSensorProp@@@@QAE@XZ 00412d60 f i GhostHelperWnd.obj
 0001:00011d60       ?Release@?$JArray@VSPSerikoAnimationPlayPat@@@@QAEXXZ 00412d60 f i GhostHelperWnd.obj
 0001:00011d60       ??1?$JPtrArray@PAVSPUpdateEntry@@@@QAE@XZ 00412d60 f i GhostHelperWnd.obj
 0001:00011d90       ??1CGhostHelperWnd@@UAE@XZ 00412d90 f   GhostHelperWnd.obj
 0001:00011e00       ?GetMessageMap@CGhostHelperWnd@@MBEPBUAFX_MSGMAP@@XZ 00412e00 f   GhostHelperWnd.obj
 0001:00011e10       ?OnSSPSysMsg@CGhostHelperWnd@@IAEJIJ@Z 00412e10 f   GhostHelperWnd.obj
 0001:00011ea0       ?FindDevNameFromFile@CGhostHelperWnd@@AAEXPADPAPBD@Z 00412ea0 f   GhostHelperWnd.obj
 0001:000120a0       ?MCIPlayFile@CGhostHelperWnd@@AAEHPAVSPMCIPlayerDesc@@@Z 004130a0 f   GhostHelperWnd.obj
 0001:00012180       ?MCINotifyError@CGhostHelperWnd@@AAEXPAGKPAVSPMCIPlayerDesc@@@Z 00413180 f   GhostHelperWnd.obj
 0001:000122c0       ?OnMCIExecute@CGhostHelperWnd@@IAEJIJ@Z 004132c0 f   GhostHelperWnd.obj
 0001:00012310       ?OnMCIExecuteReal@CGhostHelperWnd@@AAEJGGJ@Z 00413310 f   GhostHelperWnd.obj
 0001:00012710       ?OnMCINotify@CGhostHelperWnd@@IAEJIJ@Z 00413710 f   GhostHelperWnd.obj
 0001:00012970       ?MCIStopAll@CGhostHelperWnd@@AAEXXZ 00413970 f   GhostHelperWnd.obj
 0001:000129b0       ?MCIPlayCDTrack@CGhostHelperWnd@@AAEHPAVSPMCIPlayerDesc@@I@Z 004139b0 f   GhostHelperWnd.obj
 0001:00012a90       ?MCIDoAll@CGhostHelperWnd@@AAEXI@Z 00413a90 f   GhostHelperWnd.obj
 0001:00012ad0       ?OnDestroy@CGhostHelperWnd@@IAEXXZ 00413ad0 f   GhostHelperWnd.obj
 0001:00012af0       ?Delete@?$SPCacheObj@VSPGhostRaiseBlock@@VJDummyLockSection@@VJDummyLock@@@@QAEXPAVSPGhostRaiseBlock@@@Z 00413af0 f i GhostHelperWnd.obj
 0001:00012c50       ??0CGhostProfile@@QAE@PAVCWnd@@@Z 00413c50 f   GhostProfile.obj
 0001:00012d20       ??1SPControlAdjuster@@QAE@XZ 00413d20 f i GhostProfile.obj
 0001:00012d80       ??0SPProp@@QAE@XZ          00413d80 f i GhostProfile.obj
 0001:00012f00       ??1SPSystemNode@@UAE@XZ    00413f00 f i GhostProfile.obj
 0001:00012f00       ??1SPVarSystemNode@@UAE@XZ 00413f00 f i GhostProfile.obj
 0001:00012f10       ??_ESPVarSystemNode@@UAEPAXI@Z 00413f10 f i GhostProfile.obj
 0001:00012f10       ??_GSPVarSystemNode@@UAEPAXI@Z 00413f10 f i GhostProfile.obj
 0001:00012f40       ??1SPProp@@UAE@XZ          00413f40 f i GhostProfile.obj
 0001:00013000       ??_GCGhostProfile@@UAEPAXI@Z 00414000 f i GhostProfile.obj
 0001:00013000       ??_ECGhostProfile@@UAEPAXI@Z 00414000 f i GhostProfile.obj
 0001:00013030       ??_ESPProp@@UAEPAXI@Z      00414030 f i GhostProfile.obj
 0001:00013090       ??1CGhostProfile@@UAE@XZ   00414090 f   GhostProfile.obj
 0001:00013150       ?DoDataExchange@CGhostProfile@@MAEXPAVCDataExchange@@@Z 00414150 f   GhostProfile.obj
 0001:00013170       ?GetMessageMap@CGhostProfile@@MBEPBUAFX_MSGMAP@@XZ 00414170 f   GhostProfile.obj
 0001:00013180       ?OnInitDialog@CGhostProfile@@MAEHXZ 00414180 f   GhostProfile.obj
 0001:000132c0       ?InitData@CGhostProfile@@AAEXXZ 004142c0 f   GhostProfile.obj
 0001:00013300       ?OnOK@CGhostProfile@@MAEXXZ 00414300 f   GhostProfile.obj
 0001:00013300       ?OnClose@CGhostProfile@@IAEXXZ 00414300 f   GhostProfile.obj
 0001:00013320       ?OnEditchangeProfileKind@CGhostProfile@@IAEXXZ 00414320 f   GhostProfile.obj
 0001:00013340       ?SetGhost@CGhostProfile@@QAEHPAVSPGhost@@@Z 00414340 f   GhostProfile.obj
 0001:000135e0       ?SetPropA@CGhostProfile@@QAEHPAVSPProp@@@Z 004145e0 f   GhostProfile.obj
 0001:00013770       ?LoadData@CGhostProfile@@AAEXH@Z 00414770 f   GhostProfile.obj
 0001:00013980       ?LoadReadme@CGhostProfile@@AAEHPADAAVJWString@@@Z 00414980 f   GhostProfile.obj
 0001:00013c80       ??1JStream@@UAE@XZ         00414c80 f i GhostProfile.obj
 0001:00013ca0       ?Open@JStream@@UAEHPAVJStreamObject@@PBDH@Z 00414ca0 f i GhostProfile.obj
 0001:00013ce0       ?OpenW@JStream@@UAEHPAVJStreamObject@@PBGH@Z 00414ce0 f i GhostProfile.obj
 0001:00013d20       ?Open@JStream@@UAEHPBDH@Z  00414d20 f i GhostProfile.obj
 0001:00013d50       ?OpenW@JStream@@UAEHPBGH@Z 00414d50 f i GhostProfile.obj
 0001:00013d80       ?AttachStream@JStream@@UAEXPAVJStreamObject@@@Z 00414d80 f i GhostProfile.obj
 0001:00013db0       ?DetachStream@JStream@@UAEPAVJStreamObject@@XZ 00414db0 f i GhostProfile.obj
 0001:00013dc0       ?Close@JStream@@UAEXXZ     00414dc0 f i GhostProfile.obj
 0001:00013dd0       ?Read@JStream@@UAEEXZ      00414dd0 f i GhostProfile.obj
 0001:00013e00       ?Read@JStream@@UAEKPAXK@Z  00414e00 f i GhostProfile.obj
 0001:00013e40       ?Write@JStream@@UAEKE@Z    00414e40 f i GhostProfile.obj
 0001:00013e70       ?Write@JStream@@UAEKPBXK@Z 00414e70 f i GhostProfile.obj
 0001:00013eb0       ?Seek@JStream@@UAEHJH@Z    00414eb0 f i GhostProfile.obj
 0001:00013ee0       ?Length@JStream@@UAEKXZ    00414ee0 f i GhostProfile.obj
 0001:00013ef0       ?Pos@JStream@@UAEKXZ       00414ef0 f i GhostProfile.obj
 0001:00013f00       ?OnWrite@JStream@@UAEXPAEK@Z 00414f00 f i GhostProfile.obj
 0001:00013f00       ?OnRead@JStream@@UAEXPAEK@Z 00414f00 f i GhostProfile.obj
 0001:00013f10       ??_EJStream@@UAEPAXI@Z     00414f10 f i GhostProfile.obj
 0001:00013f10       ??_GJStream@@UAEPAXI@Z     00414f10 f i GhostProfile.obj
 0001:00013f40       ??1JMappedStream@@UAE@XZ   00414f40 f i GhostProfile.obj
 0001:00013fa0       ?GetPalette@JSurfaceObject@@UAEPAUtagRGBQUAD@@XZ 00414fa0 f i GhostProfile.obj
 0001:00013fa0       ?ToElement@TiXmlNode@@UBEPBVTiXmlElement@@XZ 00414fa0 f i GhostProfile.obj
 0001:00013fa0       ?ToComment@TiXmlNode@@UAEPAVTiXmlComment@@XZ 00414fa0 f i GhostProfile.obj
 0001:00013fa0       ?ToUnknown@TiXmlNode@@UBEPBVTiXmlUnknown@@XZ 00414fa0 f i GhostProfile.obj
 0001:00013fa0       ?DetachStream@JMappedStream@@EAEPAVJStreamObject@@XZ 00414fa0 f i GhostProfile.obj
 0001:00013fa0       ?ToDeclaration@TiXmlNode@@UBEPBVTiXmlDeclaration@@XZ 00414fa0 f i GhostProfile.obj
 0001:00013fa0       ?GetAlphaPlane@JSurface@@UAEPAEXZ 00414fa0 f i GhostProfile.obj
 0001:00013fa0       ?ToDocument@TiXmlNode@@UAEPAVTiXmlDocument@@XZ 00414fa0 f i GhostProfile.obj
 0001:00013fa0       ?ToElement@TiXmlNode@@UAEPAVTiXmlElement@@XZ 00414fa0 f i GhostProfile.obj
 0001:00013fa0       ?ToDeclaration@TiXmlNode@@UAEPAVTiXmlDeclaration@@XZ 00414fa0 f i GhostProfile.obj
 0001:00013fa0       ?Bitmap@JSurfaceObject@@UAEPAXXZ 00414fa0 f i GhostProfile.obj
 0001:00013fa0       ?Handle@JSurfaceObject@@UAEPAXXZ 00414fa0 f i GhostProfile.obj
 0001:00013fa0       ?ToText@TiXmlNode@@UAEPAVTiXmlText@@XZ 00414fa0 f i GhostProfile.obj
 0001:00013fa0       ?Pitch@JSurfaceObject@@UAEJXZ 00414fa0 f i GhostProfile.obj
 0001:00013fa0       ?ToUnknown@TiXmlNode@@UAEPAVTiXmlUnknown@@XZ 00414fa0 f i GhostProfile.obj
 0001:00013fa0       ?ToText@TiXmlNode@@UBEPBVTiXmlText@@XZ 00414fa0 f i GhostProfile.obj
 0001:00013fa0       ?ToComment@TiXmlNode@@UBEPBVTiXmlComment@@XZ 00414fa0 f i GhostProfile.obj
 0001:00013fa0       ?BitmapBits@JSurfaceObject@@UAEPAEXZ 00414fa0 f i GhostProfile.obj
 0001:00013fa0       ?IsExecutable@SPLogManagerError@@UAEHXZ 00414fa0 f i GhostProfile.obj
 0001:00013fa0       ?ToDocument@TiXmlNode@@UBEPBVTiXmlDocument@@XZ 00414fa0 f i GhostProfile.obj
 0001:00013fb0       ?Open@JMappedStream@@EAEHPAVJStreamObject@@PBDH@Z 00414fb0 f i GhostProfile.obj
 0001:00013fb0       ?OpenW@JMappedStream@@EAEHPAVJStreamObject@@PBGH@Z 00414fb0 f i GhostProfile.obj
 0001:00013fc0       ?GetPalette@JSurfaceObject@@UAEHAAVJPalette@@@Z 00414fc0 f i GhostProfile.obj
 0001:00013fc0       ?Load@JSurfaceObject@@UAEHAAVJStream@@@Z 00414fc0 f i GhostProfile.obj
 0001:00013fc0       ?Write@JMappedStream@@EAEKE@Z 00414fc0 f i GhostProfile.obj
 0001:00013fc0       ?ReadLineImpl@SPStreamFilterGZip@@UAEPADAAJ@Z 00414fc0 f i GhostProfile.obj
 0001:00013fc0       ?SetPalette@JSurfaceObject@@UAEHAAVJPalette@@@Z 00414fc0 f i GhostProfile.obj
 0001:00013fc0       ?Save@JSurfaceObject@@UAEHAAVJStream@@@Z 00414fc0 f i GhostProfile.obj
 0001:00013fc0       ?SetSourceFilter@SPStreamFilterSocket@@UAEHPAVSPStreamFilter@@@Z 00414fc0 f i GhostProfile.obj
 0001:00013fc0       ?ReadLineImpl@SPStreamFilterHttpChunk@@UAEPADAAJ@Z 00414fc0 f i GhostProfile.obj
 0001:00013fd0       ?Write@JMappedStream@@EAEKPAXK@Z 00414fd0 f i GhostProfile.obj
 0001:00013fd0       ?Compare@JList@@UAEHPAV1@H@Z 00414fd0 f i GhostProfile.obj
 0001:00013fd0       ?GetIntensity@JSurface@@UAEJJJ@Z 00414fd0 f i GhostProfile.obj
 0001:00013fd0       ?GetPixelIndex@JSurface@@UAEKJJ@Z 00414fd0 f i GhostProfile.obj
 0001:00013fe0       ?Read@JMappedStream@@UAEEXZ 00414fe0 f i GhostProfile.obj
 0001:00014000       ?Length@JMappedStream@@UAEKXZ 00415000 f i GhostProfile.obj
 0001:00014010       ?Pos@JMappedStream@@UAEKXZ 00415010 f i GhostProfile.obj
 0001:00014020       ??_GJMappedStream@@UAEPAXI@Z 00415020 f i GhostProfile.obj
 0001:00014020       ??_EJMappedStream@@UAEPAXI@Z 00415020 f i GhostProfile.obj
 0001:00014050       ?OnCraftmanURLClick@CGhostProfile@@IAEXXZ 00415050 f   GhostProfile.obj
 0001:00014140       ?OnSize@CGhostProfile@@IAEXIHH@Z 00415140 f   GhostProfile.obj
 0001:00014180       ?WindowProc@CGhostProfile@@MAEJIIJ@Z 00415180 f   GhostProfile.obj
 0001:00014270       ??0CGhostTimeWnd@@QAE@XZ   00415270 f   GhostTimeWnd.obj
 0001:000142a0       ??_ECGhostTimeWnd@@UAEPAXI@Z 004152a0 f i GhostTimeWnd.obj
 0001:000142a0       ??_GCGhostTimeWnd@@UAEPAXI@Z 004152a0 f i GhostTimeWnd.obj
 0001:000142d0       ??1CGhostTimeWnd@@UAE@XZ   004152d0 f   GhostTimeWnd.obj
 0001:00014360       ?GetMessageMap@CGhostTimeWnd@@MBEPBUAFX_MSGMAP@@XZ 00415360 f   GhostTimeWnd.obj
 0001:00014370       ?CreateMe@CGhostTimeWnd@@QAEHXZ 00415370 f   GhostTimeWnd.obj
 0001:00014510       ?OnCreate@CGhostTimeWnd@@IAEHPAUtagCREATESTRUCTA@@@Z 00415510 f   GhostTimeWnd.obj
 0001:00014550       ?OnPaint@CGhostTimeWnd@@IAEXXZ 00415550 f   GhostTimeWnd.obj
 0001:000145d0       ?DrawBackBuffer@CGhostTimeWnd@@AAEXXZ 004155d0 f   GhostTimeWnd.obj
 0001:00015660       ??_ECPen@@UAEPAXI@Z        00416660 f i GhostTimeWnd.obj
 0001:00015660       ??_GCPen@@UAEPAXI@Z        00416660 f i GhostTimeWnd.obj
 0001:00015690       ??1CPen@@UAE@XZ            00416690 f i GhostTimeWnd.obj
 0001:000156d0       ??1CBrush@@UAE@XZ          004166d0 f i GhostTimeWnd.obj
 0001:00015770       ?SaveBackBuffer@CGhostTimeWnd@@AAEXXZ 00416770 f   GhostTimeWnd.obj
 0001:000158c0       ?OnKeyDown@CGhostTimeWnd@@IAEXIII@Z 004168c0 f   GhostTimeWnd.obj
 0001:000159a0       ?WindowProc@CGhostTimeWnd@@MAEJIIJ@Z 004169a0 f   GhostTimeWnd.obj
 0001:00015a30       ?OnDestroy@CGhostTimeWnd@@IAEXXZ 00416a30 f   GhostTimeWnd.obj
 0001:00015a80       ?GetHitTestID@CGhostTimeWnd@@AAEKXZ 00416a80 f   GhostTimeWnd.obj
 0001:00015b80       ??0CMouseHitMap@@QAE@IJJJJ@Z 00416b80 f i GhostTimeWnd.obj
 0001:00015bd0       ?AdjustRect@CGhostTimeWnd@@AAEXAAUtagRECT@@@Z 00416bd0 f   GhostTimeWnd.obj
 0001:00015c00       ?GetMaxPage@CGhostTimeWnd@@AAEJXZ 00416c00 f   GhostTimeWnd.obj
 0001:00015c30       ?MovePage@CGhostTimeWnd@@AAEXH@Z 00416c30 f   GhostTimeWnd.obj
 0001:00015c70       ?OnLButtonUp@CGhostTimeWnd@@IAEXIVCPoint@@@Z 00416c70 f   GhostTimeWnd.obj
 0001:00015cf0       ?OnNcRButtonUp@CGhostTimeWnd@@IAEXIVCPoint@@@Z 00416cf0 f   GhostTimeWnd.obj
 0001:00016310       ?GetRankingHitTest@CGhostTimeWnd@@AAEJXZ 00417310 f   GhostTimeWnd.obj
 0001:00016380       ?PreTranslateMessage@CGhostTimeWnd@@UAEHPAUtagMSG@@@Z 00417380 f   GhostTimeWnd.obj
 0001:000163c0       ?ProcessShortcut@CGhostTimeWnd@@AAEHI@Z 004173c0 f   GhostTimeWnd.obj
 0001:00016410       ?Realloc@?$JArray@VJRect@@@@QAE_NK@Z 00417410 f i GhostTimeWnd.obj
 0001:000164b0       ?Realloc@?$JArray@UtagCTW_GHOSTTIMEDATA@@@@QAE_NK@Z 004174b0 f i GhostTimeWnd.obj
 0001:00016560       ??0CHelperMainWnd@@QAE@XZ  00417560 f   HelperMainWnd.obj
 0001:00016580       ??_GCHelperMainWnd@@UAEPAXI@Z 00417580 f i HelperMainWnd.obj
 0001:00016580       ??_ECHelperMainWnd@@UAEPAXI@Z 00417580 f i HelperMainWnd.obj
 0001:000165b0       ??1CHelperMainWnd@@UAE@XZ  004175b0 f   HelperMainWnd.obj
 0001:000165c0       ?GetMessageMap@CHelperMainWnd@@MBEPBUAFX_MSGMAP@@XZ 004175c0 f   HelperMainWnd.obj
 0001:000165d0       ?OnClose@CHelperMainWnd@@IAEXXZ 004175d0 f   HelperMainWnd.obj
 0001:00016660       ?ProcessSSF@CHelperMainWnd@@AAEXPAVJString@@@Z 00417660 f   HelperMainWnd.obj
 0001:000166f0       ?ProcessTaskList@CHelperMainWnd@@AAEXPAVJString@@@Z 004176f0 f   HelperMainWnd.obj
 0001:00016770       ?ProcessDownload@CHelperMainWnd@@AAEXPAVSPDownloadInfo@@@Z 00417770 f   HelperMainWnd.obj
 0001:000169d0       ?DownloadProc@CHelperMainWnd@@CAXPAXPCH@Z 004179d0 f   HelperMainWnd.obj
 0001:000171f0       ??_ESPCmdListener@@UAEPAXI@Z 004181f0 f i HelperMainWnd.obj
 0001:000171f0       ??_GSPCmdListener@@UAEPAXI@Z 004181f0 f i HelperMainWnd.obj
 0001:00017220       ??1SPCmdListener@@UAE@XZ   00418220 f i HelperMainWnd.obj
 0001:00017280       ??1JSocket@@QAE@XZ         00418280 f i HelperMainWnd.obj
 0001:00017310       ??1SPHttp@@QAE@XZ          00418310 f i HelperMainWnd.obj
 0001:00017480       ?SPCNotify@SPGhostBreakClass@@UAE_NKPAPAXK@Z 00418480 f i HelperMainWnd.obj
 0001:000174c0       ??_ESPGhostBreakClass@@UAEPAXI@Z 004184c0 f i HelperMainWnd.obj
 0001:000174c0       ??_GSPGhostBreakClass@@UAEPAXI@Z 004184c0 f i HelperMainWnd.obj
 0001:000174f0       ??1SPGhostBreakClass@@UAE@XZ 004184f0 f i HelperMainWnd.obj
 0001:00017550       ?DownloadProcAutoDiscovery@CHelperMainWnd@@CIHPAVSPDownloadInfo@@@Z 00418550 f   HelperMainWnd.obj
 0001:00017bb0       ??0SPCmdListener@@QAE@XZ   00418bb0 f i HelperMainWnd.obj
 0001:00017bd0       ?DownloadProcRSS@CHelperMainWnd@@CIHPAVSPDownloadInfo@@@Z 00418bd0 f   HelperMainWnd.obj
 0001:00017cd0       ?DownloadProcRSSReal@CHelperMainWnd@@CIHPAVSPDownloadInfo@@AAVSPInstallEvent@@_N@Z 00418cd0 f   HelperMainWnd.obj
 0001:00018eb0       ?DownloadProcSSF@CHelperMainWnd@@CIXPAVSPDownloadInfo@@AAVJString@@@Z 00419eb0 f   HelperMainWnd.obj
 0001:00018ec0       ?DownloadProcNar@CHelperMainWnd@@CIXPAVSPDownloadInfo@@AAVJString@@@Z 00419ec0 f   HelperMainWnd.obj
 0001:00018ed0       ?DownloadProcNarSSF@CHelperMainWnd@@CIXPAVSPDownloadInfo@@AAVJString@@PBG@Z 00419ed0 f   HelperMainWnd.obj
 0001:00019920       ?OnSSPSysMsg@CHelperMainWnd@@IAEJIJ@Z 0041a920 f   HelperMainWnd.obj
 0001:000199c0       ?OnMainWindowCreateFinished@CHelperMainWnd@@QAEXXZ 0041a9c0 f   HelperMainWnd.obj
 0001:00019a90       ?OnCreate@CHelperMainWnd@@IAEHPAUtagCREATESTRUCTA@@@Z 0041aa90 f   HelperMainWnd.obj
 0001:00019ac0       ?ShowProgressWindow@CHelperMainWnd@@AAEXPBG@Z 0041aac0 f   HelperMainWnd.obj
 0001:00019c00       ?ShowThumbnailWindow@CHelperMainWnd@@AAEXPBD@Z 0041ac00 f   HelperMainWnd.obj
 0001:0001a050       ?WindowProc@CHelperMainWnd@@MAEJIIJ@Z 0041b050 f   HelperMainWnd.obj
 0001:0001a0b0       ?OnPaint@CHelperMainWnd@@IAEXXZ 0041b0b0 f   HelperMainWnd.obj
 0001:0001a150       ?Alloc@?$JArray@D@@QAE_NK@Z 0041b150 f i HelperMainWnd.obj
 0001:0001a1f0       ??0?$JPtrArray@PAVSPMultiFileEntry@@@@QAE@J@Z 0041b1f0 f i HelperMainWnd.obj
 0001:0001a260       ??_ESPGhostLoaderInfo@@AAEPAXI@Z 0041b260 f i HelperMainWnd.obj
 0001:0001a2c0       ?CreateObject@CHelperThread@@SGPAVCObject@@XZ 0041b2c0 f   HelperThread.obj
 0001:0001a320       ?GetRuntimeClass@CHelperThread@@UBEPAUCRuntimeClass@@XZ 0041b320 f   HelperThread.obj
 0001:0001a330       ??0CHelperThread@@QAE@XZ   0041b330 f   HelperThread.obj
 0001:0001a360       ??_GCHelperThread@@UAEPAXI@Z 0041b360 f i HelperThread.obj
 0001:0001a360       ??_ECHelperThread@@UAEPAXI@Z 0041b360 f i HelperThread.obj
 0001:0001a390       ??1CHelperThread@@UAE@XZ   0041b390 f   HelperThread.obj
 0001:0001a3b0       ?InitInstance@CHelperThread@@UAEHXZ 0041b3b0 f   HelperThread.obj
 0001:0001a4a0       ?ExitInstance@CHelperThread@@UAEHXZ 0041b4a0 f   HelperThread.obj
 0001:0001a4d0       ?WaitForThreadBoot@CHelperThread@@QAEXXZ 0041b4d0 f   HelperThread.obj
 0001:0001a500       ?GetMessageMap@CHelperThread@@MBEPBUAFX_MSGMAP@@XZ 0041b500 f   HelperThread.obj
 0001:0001a510       ??0CImageListEx@@QAE@XZ    0041b510 f   ImageListEx.obj
 0001:0001a530       ??_GCImageListEx@@UAEPAXI@Z 0041b530 f i ImageListEx.obj
 0001:0001a530       ??_ECImageListEx@@UAEPAXI@Z 0041b530 f i ImageListEx.obj
 0001:0001a560       ??1CImageListEx@@UAE@XZ    0041b560 f   ImageListEx.obj
 0001:0001a570       ?CreateEx@CImageListEx@@QAEHIHHK@Z 0041b570 f   ImageListEx.obj
 0001:0001a670       ??_ECBitmap@@UAEPAXI@Z     0041b670 f i ImageListEx.obj
 0001:0001a670       ??_GCBitmap@@UAEPAXI@Z     0041b670 f i ImageListEx.obj
 0001:0001a6a0       ??1CBitmap@@UAE@XZ         0041b6a0 f i ImageListEx.obj
 0001:0001a6e0       ??0CInputDropTarget@@QAE@XZ 0041b6e0 f   InputDropTarget.obj
 0001:0001a700       ??_ECInputDropTarget@@UAEPAXI@Z 0041b700 f i InputDropTarget.obj
 0001:0001a700       ??_GCInputDropTarget@@UAEPAXI@Z 0041b700 f i InputDropTarget.obj
 0001:0001a730       ??1CInputDropTarget@@UAE@XZ 0041b730 f   InputDropTarget.obj
 0001:0001a740       ?OnDragEnter@CInputDropTarget@@UAEKPAVCWnd@@PAVCOleDataObject@@KVCPoint@@@Z 0041b740 f   InputDropTarget.obj
 0001:0001a770       ?OnDragOver@CInputDropTarget@@UAEKPAVCWnd@@PAVCOleDataObject@@KVCPoint@@@Z 0041b770 f   InputDropTarget.obj
 0001:0001a7a0       ?OnDrop@CInputDropTarget@@UAEHPAVCWnd@@PAVCOleDataObject@@KVCPoint@@@Z 0041b7a0 f   InputDropTarget.obj
 0001:0001a800       ?RegisterMe@CInputDropTarget@@QAEHPAVCWnd@@@Z 0041b800 f   InputDropTarget.obj
 0001:0001a830       ??0CInputEdit@@QAE@XZ      0041b830 f   InputEdit.obj
 0001:0001a850       ??_ECInputEdit@@UAEPAXI@Z  0041b850 f i InputEdit.obj
 0001:0001a850       ??_GCInputEdit@@UAEPAXI@Z  0041b850 f i InputEdit.obj
 0001:0001a880       ??1CInputEdit@@UAE@XZ      0041b880 f   InputEdit.obj
 0001:0001a8e0       ?GetMessageMap@CInputEdit@@MBEPBUAFX_MSGMAP@@XZ 0041b8e0 f   InputEdit.obj
 0001:0001a8f0       ?Create@CInputEdit@@QAEHKABUtagRECT@@PAVCWnd@@I@Z 0041b8f0 f   InputEdit.obj
 0001:0001a990       ?DestroyWindow@CInputEdit@@UAEHXZ 0041b990 f   InputEdit.obj
 0001:0001a9b0       ?OnAccelClose@CInputEdit@@IAEXXZ 0041b9b0 f   InputEdit.obj
 0001:0001a9d0       ?SetText@CInputEdit@@QAEXPBG@Z 0041b9d0 f   InputEdit.obj
 0001:0001a9f0       ?SetSel@CInputEdit@@QAEXJJ@Z 0041b9f0 f   InputEdit.obj
 0001:0001aa10       ?GetSel@CInputEdit@@QAEXAAJ0@Z 0041ba10 f   InputEdit.obj
 0001:0001aa30       ?SetPasswordChar@CInputEdit@@QAEXG@Z 0041ba30 f   InputEdit.obj
 0001:0001aa60       ?PreTranslateMessage@CInputEdit@@UAEHPAUtagMSG@@@Z 0041ba60 f   InputEdit.obj
 0001:0001ab00       ??0SPDynLoadSystem@@QAE@PBD@Z 0041bb00 f i InputWnd.obj
 0001:0001abf0       ??0CInputWnd@@QAE@XZ       0041bbf0 f   InputWnd.obj
 0001:0001adc0       ??_ECInputWnd@@UAEPAXI@Z   0041bdc0 f i InputWnd.obj
 0001:0001adc0       ??_GCInputWnd@@UAEPAXI@Z   0041bdc0 f i InputWnd.obj
 0001:0001adf0       ??1CInputWnd@@UAE@XZ       0041bdf0 f   InputWnd.obj
 0001:0001af40       ??1SPCmdNotifier@@QAE@XZ   0041bf40 f i InputWnd.obj
 0001:0001afd0       ?ReleaseButtonSurface@CInputWnd@@AAEXXZ 0041bfd0 f   InputWnd.obj
 0001:0001b060       ?GetMessageMap@CInputWnd@@MBEPBUAFX_MSGMAP@@XZ 0041c060 f   InputWnd.obj
 0001:0001b070       ?OnCreate@CInputWnd@@IAEHPAUtagCREATESTRUCTA@@@Z 0041c070 f   InputWnd.obj
 0001:0001b0b0       ?CreateMe@CInputWnd@@QAEHPAVCSakuraWnd@@@Z 0041c0b0 f   InputWnd.obj
 0001:0001b160       ?GetTypeTextW@CInputWnd@@AAEPBGXZ 0041c160 f   InputWnd.obj
 0001:0001b190       ?GetTypeText@CInputWnd@@AAEPBDXZ 0041c190 f   InputWnd.obj
 0001:0001b230       ?SetInfo@CInputWnd@@QAEXPAVSPInputWndDispInfo@@@Z 0041c230 f   InputWnd.obj
 0001:0001c0e0       ??_ECButton@@UAEPAXI@Z     0041d0e0 f i InputWnd.obj
 0001:0001c0e0       ??_GCButton@@UAEPAXI@Z     0041d0e0 f i InputWnd.obj
 0001:0001c110       ??_ECDateTimeCtrl@@UAEPAXI@Z 0041d110 f i InputWnd.obj
 0001:0001c110       ??_GCDateTimeCtrl@@UAEPAXI@Z 0041d110 f i InputWnd.obj
 0001:0001c140       ??_ECIPAddressCtrl@@UAEPAXI@Z 0041d140 f i InputWnd.obj
 0001:0001c140       ??_GCIPAddressCtrl@@UAEPAXI@Z 0041d140 f i InputWnd.obj
 0001:0001c170       ?SetAutoComplete@CInputWnd@@AAE_NPAVCInputEdit@@@Z 0041d170 f   InputWnd.obj
 0001:0001c3f0       ?GetButtonText@CInputWnd@@AAEPADXZ 0041d3f0 f   InputWnd.obj
 0001:0001c430       ?GetInputRect@CInputWnd@@AAEXAAVJExtent@@@Z 0041d430 f   InputWnd.obj
 0001:0001c4d0       ?ToRect@JExtent@@QBE?AVJRect@@XZ 0041d4d0 f i InputWnd.obj
 0001:0001c4f0       ?AdjustInputRect@CInputWnd@@AAEXXZ 0041d4f0 f   InputWnd.obj
 0001:0001cae0       ?OnUserInput@CInputWnd@@AAEHXZ 0041dae0 f   InputWnd.obj
 0001:0001cb00       ?OnNotifyInput@CInputWnd@@AAEHPAG0@Z 0041db00 f   InputWnd.obj
 0001:0001cb30       ?OnNotifyInputCancel@CInputWnd@@AAEHPAG@Z 0041db30 f   InputWnd.obj
 0001:0001cc30       ?OnNotifyInputReal@CInputWnd@@AAEHPAG0@Z 0041dc30 f   InputWnd.obj
 0001:0001cd40       ?SetBalloon@CInputWnd@@QAEHPAVSPBalloon@@@Z 0041dd40 f   InputWnd.obj
 0001:0001d2f0       ?OnLButtonDown@CInputWnd@@IAEXIVCPoint@@@Z 0041e2f0 f   InputWnd.obj
 0001:0001d330       ?OnLButtonUp@CInputWnd@@IAEXIVCPoint@@@Z 0041e330 f   InputWnd.obj
 0001:0001d490       ?OnLButtonDblClk@CInputWnd@@IAEXIVCPoint@@@Z 0041e490 f   InputWnd.obj
 0001:0001d4e0       ?OnCloseButton@CInputWnd@@IAEXXZ 0041e4e0 f   InputWnd.obj
 0001:0001d510       ?OnButtonPushedMode@CInputWnd@@IAEXXZ 0041e510 f   InputWnd.obj
 0001:0001d570       ?OnButtonPushedOK@CInputWnd@@IAEXXZ 0041e570 f   InputWnd.obj
 0001:0001d580       ?Execute@CInputWnd@@AAEXXZ 0041e580 f   InputWnd.obj
 0001:0001d5a0       ?ExecuteReal@CInputWnd@@AAEXXZ 0041e5a0 f   InputWnd.obj
 0001:0001d810       ?Buffer@JWString@@QAEPAGXZ 0041e810 f i InputWnd.obj
 0001:0001d820       ?OnMouseMove@CInputWnd@@IAEXIVCPoint@@@Z 0041e820 f   InputWnd.obj
 0001:0001d890       ?OnSetFocus@CInputWnd@@IAEXPAVCWnd@@@Z 0041e890 f   InputWnd.obj
 0001:0001d8c0       ?OnTimer@CInputWnd@@IAEXI@Z 0041e8c0 f   InputWnd.obj
 0001:0001d920       ?GetInputText@CInputWnd@@QAEPAGXZ 0041e920 f   InputWnd.obj
 0001:0001daa0       ?GetExtraInfoText@CInputWnd@@QAEPAGXZ 0041eaa0 f   InputWnd.obj
 0001:0001db90       ?DestroyControls@CInputWnd@@AAEXXZ 0041eb90 f   InputWnd.obj
 0001:0001dc40       ?OnDestroy@CInputWnd@@IAEXXZ 0041ec40 f   InputWnd.obj
 0001:0001dc60       ?PostNcDestroy@CInputWnd@@MAEXXZ 0041ec60 f   InputWnd.obj
 0001:0001dd50       ?OnCtlColor@CInputWnd@@IAEPAUHBRUSH__@@PAVCDC@@PAVCWnd@@I@Z 0041ed50 f   InputWnd.obj
 0001:0001ddb0       ?OnDrawItem@CInputWnd@@IAEXHPAUtagDRAWITEMSTRUCT@@@Z 0041edb0 f   InputWnd.obj
 0001:0001e3b0       ?OnRButtonUp@CInputWnd@@IAEXIVCPoint@@@Z 0041f3b0 f   InputWnd.obj
 0001:0001e400       ?OnClose@CInputWnd@@IAEXXZ 0041f400 f   InputWnd.obj
 0001:0001e420       ?PreTranslateMessage@CInputWnd@@UAEHPAUtagMSG@@@Z 0041f420 f   InputWnd.obj
 0001:0001e4b0       ?OnEraseBkgnd@CInputWnd@@IAEHPAVCDC@@@Z 0041f4b0 f   InputWnd.obj
 0001:0001e500       ?OnCommand@CInputWnd@@MAEHIJ@Z 0041f500 f   InputWnd.obj
 0001:0001e660       ??0?$JArray@J@@QAE@K@Z     0041f660 f i InputWnd.obj
 0001:0001e660       ??0?$JArray@PAX@@QAE@K@Z   0041f660 f i InputWnd.obj
 0001:0001e660       ??0?$JArray@K@@QAE@K@Z     0041f660 f i InputWnd.obj
 0001:0001e6d0       ??0CInternationalSettingDlg@@QAE@PAVCWnd@@@Z 0041f6d0 f   InternationalSettingDlg.obj
 0001:0001e750       ??_GCInternationalSettingDlg@@UAEPAXI@Z 0041f750 f i InternationalSettingDlg.obj
 0001:0001e750       ??_ECInternationalSettingDlg@@UAEPAXI@Z 0041f750 f i InternationalSettingDlg.obj
 0001:0001e780       ??1CInternationalSettingDlg@@UAE@XZ 0041f780 f i InternationalSettingDlg.obj
 0001:0001e7e0       ?DoDataExchange@CInternationalSettingDlg@@MAEXPAVCDataExchange@@@Z 0041f7e0 f   InternationalSettingDlg.obj
 0001:0001e820       ?GetMessageMap@CInternationalSettingDlg@@MBEPBUAFX_MSGMAP@@XZ 0041f820 f   InternationalSettingDlg.obj
 0001:0001e830       ?OnInitDialog@CInternationalSettingDlg@@MAEHXZ 0041f830 f   InternationalSettingDlg.obj
 0001:0001e890       ?SelectFont@CInternationalSettingDlg@@AAEHAAVJWString@@AAHPBDH@Z 0041f890 f   InternationalSettingDlg.obj
 0001:0001ebc0       ?DispUpdate@CInternationalSettingDlg@@AAEXAAVJWString@@AAHAAVCStatic@@H@Z 0041fbc0 f   InternationalSettingDlg.obj
 0001:0001ed20       ?OnFontMenuChoice@CInternationalSettingDlg@@IAEXXZ 0041fd20 f   InternationalSettingDlg.obj
 0001:0001ed70       ?OnFontMenuDefault@CInternationalSettingDlg@@IAEXXZ 0041fd70 f   InternationalSettingDlg.obj
 0001:0001edc0       ?OnFontBalloonChoice@CInternationalSettingDlg@@IAEXXZ 0041fdc0 f   InternationalSettingDlg.obj
 0001:0001ee80       ?OnFontBalloonDefault@CInternationalSettingDlg@@IAEXXZ 0041fe80 f   InternationalSettingDlg.obj
 0001:0001ef40       ?OnDestroy@CInternationalSettingDlg@@IAEXXZ 0041ff40 f   InternationalSettingDlg.obj
 0001:0001ef60       ?CreateObject@CIPMessengerSettingDlg@@SGPAVCObject@@XZ 0041ff60 f   IPMessengerSettingDlg.obj
 0001:0001efc0       ?GetRuntimeClass@CIPMessengerSettingDlg@@UBEPAUCRuntimeClass@@XZ 0041ffc0 f   IPMessengerSettingDlg.obj
 0001:0001efd0       ??0CIPMessengerSettingDlg@@QAE@PAVCWnd@@@Z 0041ffd0 f   IPMessengerSettingDlg.obj
 0001:0001f080       ??_ECIPMessengerSettingDlg@@UAEPAXI@Z 00420080 f i IPMessengerSettingDlg.obj
 0001:0001f080       ??_GCIPMessengerSettingDlg@@UAEPAXI@Z 00420080 f i IPMessengerSettingDlg.obj
 0001:0001f0b0       ??1CIPMessengerSettingDlg@@UAE@XZ 004200b0 f i IPMessengerSettingDlg.obj
 0001:0001f130       ?DoDataExchange@CIPMessengerSettingDlg@@MAEXPAVCDataExchange@@@Z 00420130 f   IPMessengerSettingDlg.obj
 0001:0001f180       ?GetMessageMap@CIPMessengerSettingDlg@@MBEPBUAFX_MSGMAP@@XZ 00420180 f   IPMessengerSettingDlg.obj
 0001:0001f190       ?OnChangeIpmsgport@CIPMessengerSettingDlg@@IAEXXZ 00420190 f   IPMessengerSettingDlg.obj
 0001:0001f250       ?OnIpmessenger@CIPMessengerSettingDlg@@IAEXXZ 00420250 f   IPMessengerSettingDlg.obj
 0001:0001f2c0       ?OnUseDialup@CIPMessengerSettingDlg@@IAEXXZ 004202c0 f   IPMessengerSettingDlg.obj
 0001:0001f300       ?OnBroadcastAdd@CIPMessengerSettingDlg@@IAEXXZ 00420300 f   IPMessengerSettingDlg.obj
 0001:0001f360       ?OnBroadcastDel@CIPMessengerSettingDlg@@IAEXXZ 00420360 f   IPMessengerSettingDlg.obj
 0001:0001f3a0       ?OnBroadcastInit@CIPMessengerSettingDlg@@IAEXXZ 004203a0 f   IPMessengerSettingDlg.obj
 0001:0001f3d0       ?UpdateBroadcastList@CIPMessengerSettingDlg@@IAEXXZ 004203d0 f   IPMessengerSettingDlg.obj
 0001:0001f5e0       ?OnInitDialog@CIPMessengerSettingDlg@@MAEHXZ 004205e0 f   IPMessengerSettingDlg.obj
 0001:0001f710       ?UpdateEnabled@CIPMessengerSettingDlg@@QAEXH@Z 00420710 f   IPMessengerSettingDlg.obj
 0001:0001f750       ?GetListSel@CIPMessengerSettingDlg@@IAEJXZ 00420750 f   IPMessengerSettingDlg.obj
 0001:0001f790       ?OnDestroy@CIPMessengerSettingDlg@@IAEXXZ 00420790 f   IPMessengerSettingDlg.obj
 0001:0001f7d0       ??0CKeroWnd@@QAE@XZ        004207d0 f   KeroWnd.obj
 0001:0001f840       ??_ECKeroWnd@@UAEPAXI@Z    00420840 f i KeroWnd.obj
 0001:0001f840       ??_GCKeroWnd@@UAEPAXI@Z    00420840 f i KeroWnd.obj
 0001:0001f870       ??1CKeroWnd@@UAE@XZ        00420870 f   KeroWnd.obj
 0001:0001f8d0       ?GetMessageMap@CKeroWnd@@MBEPBUAFX_MSGMAP@@XZ 004208d0 f   KeroWnd.obj
 0001:0001f8e0       ?OnCreate@CKeroWnd@@IAEHPAUtagCREATESTRUCTA@@@Z 004208e0 f   KeroWnd.obj
 0001:0001f8e0       ?OnCreate@CCharBodyWnd@@IAEHPAUtagCREATESTRUCTA@@@Z 004208e0 f   KeroWnd.obj
 0001:0001f910       ?OnLButtonDblClk@CKeroWnd@@IAEXIVCPoint@@@Z 00420910 f   KeroWnd.obj
 0001:0001f950       ?OnMouseMove@CKeroWnd@@IAEXIVCPoint@@@Z 00420950 f   KeroWnd.obj
 0001:0001f980       ?GetDefaultWndPosX@CKeroWnd@@UAEHAAJAAVJRect@@1AAVJPoint@@@Z 00420980 f   KeroWnd.obj
 0001:0001fa90       ?WindowProc@CKeroWnd@@MAEJIIJ@Z 00420a90 f   KeroWnd.obj
 0001:0001fae0       ?PreTranslateMessage@CKeroWnd@@UAEHPAUtagMSG@@@Z 00420ae0 f   KeroWnd.obj
 0001:0001fae0       ?PreTranslateMessage@CCharBodyWnd@@UAEHPAUtagMSG@@@Z 00420ae0 f   KeroWnd.obj
 0001:0001fb10       ??_ECKeroWnd@@WDM@AEPAXI@Z 00420b10 f i KeroWnd.obj
 0001:0001fb20       ??0CListDialog@@QAE@PAVCWnd@@@Z 00420b20 f   ListDialog.obj
 0001:0001fd00       ??_ECListDialog@@UAEPAXI@Z 00420d00 f i ListDialog.obj
 0001:0001fd00       ??_GCListDialog@@UAEPAXI@Z 00420d00 f i ListDialog.obj
 0001:0001fd30       ??1CListDialog@@UAE@XZ     00420d30 f i ListDialog.obj
 0001:0001fe50       ?DoDataExchange@CListDialog@@MAEXPAVCDataExchange@@@Z 00420e50 f   ListDialog.obj
 0001:0001fe70       ?GetMessageMap@CListDialog@@MBEPBUAFX_MSGMAP@@XZ 00420e70 f   ListDialog.obj
 0001:0001fe80       ?OnInitDialog@CListDialog@@MAEHXZ 00420e80 f   ListDialog.obj
 0001:00020380       ?SetListMode@CListDialog@@QAEXPAVCSakuraWnd@@H@Z 00421380 f   ListDialog.obj
 0001:000203f0       ?IsAutoClose@CListDialog@@AAE_NXZ 004213f0 f   ListDialog.obj
 0001:00020410       ?OnPropAutoclose@CListDialog@@IAEXXZ 00421410 f   ListDialog.obj
 0001:00020450       ?UpdateAutoCloseCheck@CListDialog@@AAEXXZ 00421450 f   ListDialog.obj
 0001:00020490       ?GetTypeText@CListDialog@@AAEXPADJ@Z 00421490 f   ListDialog.obj
 0001:000204f0       ?OnDblclkDlist@CListDialog@@IAEXPAUtagNMHDR@@PAJ@Z 004214f0 f   ListDialog.obj
 0001:00020550       ?ShowListContextMenu@CListDialog@@AAEX_N@Z 00421550 f   ListDialog.obj
 0001:000206c0       ?SetListNum@CListDialog@@AAEXI@Z 004216c0 f   ListDialog.obj
 0001:00020750       ?InitListColumn@CListDialog@@AAEXXZ 00421750 f   ListDialog.obj
 0001:000208e0       ?InitOneItem@CListDialog@@AAEXPAVSPProp@@IAAVJString@@@Z 004218e0 f   ListDialog.obj
 0001:00020a90       ?InitList@CListDialog@@AAEXH@Z 00421a90 f   ListDialog.obj
 0001:00021090       ?SetExplorerTitle@CListDialog@@AAEXXZ 00422090 f   ListDialog.obj
 0001:00021140       ?GetSelectedCommandID@CListDialog@@AAEJXZ 00422140 f   ListDialog.obj
 0001:00021190       ?GetSelectedCommandIDMulti@CListDialog@@AAEKAAV?$JArray@K@@@Z 00422190 f   ListDialog.obj
 0001:000212e0       ?OnCommand@CListDialog@@MAEHIJ@Z 004222e0 f   ListDialog.obj
 0001:000213a0       ?OnCommandReal@CListDialog@@AAEHIJ@Z 004223a0 f   ListDialog.obj
 0001:00021b90       ?OnCommandCreateShortcut@CListDialog@@AAEHAAV?$JArray@K@@@Z 00422b90 f   ListDialog.obj
 0001:00021eb0       ?UpdateList@CListDialog@@QAEXPAVCSakuraWnd@@H@Z 00422eb0 f   ListDialog.obj
 0001:00021f00       ?SetGhost@CListDialog@@QAEXPAVCSakuraWnd@@@Z 00422f00 f   ListDialog.obj
 0001:00021f40       ?OnSelchangeExplorertype@CListDialog@@IAEXI@Z 00422f40 f   ListDialog.obj
 0001:00022030       ?OnGetMinMaxInfo@CListDialog@@IAEXPAUtagMINMAXINFO@@@Z 00423030 f   ListDialog.obj
 0001:000220d0       ?OnSize@CListDialog@@IAEXIHH@Z 004230d0 f   ListDialog.obj
 0001:00022110       ?OnOK@CListDialog@@MAEXXZ  00423110 f   ListDialog.obj
 0001:00022170       ?OnDestroy@CListDialog@@IAEXXZ 00423170 f   ListDialog.obj
 0001:00022230       ?InitializeMembers@CListDialog@@AAEXXZ 00423230 f   ListDialog.obj
 0001:000226b0       ?OnColumnClickDlist@CListDialog@@IAEXPAUtagNMHDR@@PAJ@Z 004236b0 f   ListDialog.obj
 0001:00022710       ?SortDlist@CListDialog@@AAEXI@Z 00423710 f   ListDialog.obj
 0001:000227b0       ?OnFindList@CListDialog@@IAEXXZ 004237b0 f   ListDialog.obj
 0001:00022aa0       ?FindNext@CListDialog@@AAEHXZ 00423aa0 f   ListDialog.obj
 0001:00022bb0       ?Find@CListDialog@@AAEJJ@Z 00423bb0 f   ListDialog.obj
 0001:00022d30       ?PreTranslateMessage@CListDialog@@UAEHPAUtagMSG@@@Z 00423d30 f   ListDialog.obj
 0001:00022d70       ?ProcessShortcut@CListDialog@@AAEHI@Z 00423d70 f   ListDialog.obj
 0001:00022ef0       ?OnSelectAll@CListDialog@@IAEXXZ 00423ef0 f   ListDialog.obj
 0001:00022f30       ?OnCopyLine@CListDialog@@IAEXXZ 00423f30 f   ListDialog.obj
 0001:000230e0       ?OnDropFiles@CListDialog@@IAEXPAUHDROP__@@@Z 004240e0 f   ListDialog.obj
 0001:000231c0       ?OnColumnRClickDList@CListDialog@@AAEXPAUtagNMHEADERA@@@Z 004241c0 f   ListDialog.obj
 0001:00023290       ?OnNotify@CListDialog@@MAEHIJPAJ@Z 00424290 f   ListDialog.obj
 0001:00023310       ?GetHeaderWidth@CListDialog@@AAEXPAH@Z 00424310 f   ListDialog.obj
 0001:000233a0       ?SaveHeaderStatus@CListDialog@@AAEXXZ 004243a0 f   ListDialog.obj
 0001:00023480       ?LoadHeaderStatus@CListDialog@@AAEXPAH@Z 00424480 f   ListDialog.obj
 0001:00023560       ?OnFindNext@CListDialog@@IAEXXZ 00424560 f   ListDialog.obj
 0001:00023590       ?GetCurrentTypeFlag@CListDialog@@SAI_NH@Z 00424590 f   ListDialog.obj
 0001:000235f0       ?OnReload@CListDialog@@IAEXXZ 004245f0 f   ListDialog.obj
 0001:00023620       ?OnContextMenu@CListDialog@@IAEXPAVCWnd@@VCPoint@@@Z 00424620 f   ListDialog.obj
 0001:00023690       ?OnMeasureItem@CListDialog@@IAEXHPAUtagMEASUREITEMSTRUCT@@@Z 00424690 f   ListDialog.obj
 0001:000236b0       ?DrawOneItem@CListDialog@@AAEXJ_NAAVCListDialogData@@AAVJRect@@PAUHDC__@@@Z 004246b0 f   ListDialog.obj
 0001:00023910       ?OnDrawItem@CListDialog@@IAEXHPAUtagDRAWITEMSTRUCT@@@Z 00424910 f   ListDialog.obj
 0001:00023ad0       ?HeaderDoubleClick@CListDialog@@AAEXJ@Z 00424ad0 f   ListDialog.obj
 0001:00023db0       ?RealSortNum@CListDialog@@AAEKK@Z 00424db0 f   ListDialog.obj
 0001:00023df0       ?MarkSort@CListDialog@@AAEXK@Z 00424df0 f   ListDialog.obj
 0001:00023ed0       ??0CLog@@QAE@PAVCWnd@@@Z   00424ed0 f   Log.obj
 0001:00023fc0       ??_ECComboBox@@UAEPAXI@Z   00424fc0 f i Log.obj
 0001:00023fc0       ??_GCComboBox@@UAEPAXI@Z   00424fc0 f i Log.obj
 0001:00023ff0       ??_GCLog@@UAEPAXI@Z        00424ff0 f i Log.obj
 0001:00023ff0       ??_ECLog@@UAEPAXI@Z        00424ff0 f i Log.obj
 0001:00024020       ??1CLog@@UAE@XZ            00425020 f i Log.obj
 0001:000240e0       ?DoDataExchange@CLog@@MAEXPAVCDataExchange@@@Z 004250e0 f   Log.obj
 0001:00024130       ?GetMessageMap@CLog@@MBEPBUAFX_MSGMAP@@XZ 00425130 f   Log.obj
 0001:00024140       ?WindowProc@CLog@@MAEJIIJ@Z 00425140 f   Log.obj
 0001:00024190       ?OnTimer@CLog@@IAEXI@Z     00425190 f   Log.obj
 0001:000241c0       ?OnInitDialog@CLog@@MAEHXZ 004251c0 f   Log.obj
 0001:00024550       ?OnButtonSaveLog@CLog@@IAEXXZ 00425550 f   Log.obj
 0001:000249f0       ?OnButtonExecute@CLog@@IAEXXZ 004259f0 f   Log.obj
 0001:00024a70       ?UpdateList@CLog@@AAEXXZ   00425a70 f   Log.obj
 0001:00024c60       ?OnButtonCopy@CLog@@IAEXXZ 00425c60 f   Log.obj
 0001:00024c90       ?OnButtonClear@CLog@@IAEXXZ 00425c90 f   Log.obj
 0001:00024cb0       ?SelectedLineData@CLog@@AAEPAVSPLogData@@XZ 00425cb0 f   Log.obj
 0001:00024d20       ?OnDblclkLog@CLog@@IAEXPAUtagNMHDR@@PAJ@Z 00425d20 f   Log.obj
 0001:00024d40       ?OnDestroy@CLog@@IAEXXZ    00425d40 f   Log.obj
 0001:00024dc0       ?OnSize@CLog@@IAEXIHH@Z    00425dc0 f   Log.obj
 0001:00024e00       ?AdjustListColumn@CLog@@IAEXXZ 00425e00 f   Log.obj
 0001:00024ea0       ?OnChangeLogLine@CLog@@IAEXXZ 00425ea0 f   Log.obj
 0001:00025120       ?OnColumnClickList@CLog@@IAEXPAUtagNMHDR@@PAJ@Z 00426120 f   Log.obj
 0001:00025170       ?SortList@CLog@@AAEXI@Z    00426170 f   Log.obj
 0001:000251e0       ?OnSelChangeType@CLog@@IAEXXZ 004261e0 f   Log.obj
 0001:00025290       ?SetLogManager@CLog@@QAEXPAVSPLogManagerCore@@@Z 00426290 f   Log.obj
 0001:00025320       ?ChangeSelTypeControl@CLog@@AAEXXZ 00426320 f   Log.obj
 0001:00025380       ?PreTranslateMessage@CLog@@UAEHPAUtagMSG@@@Z 00426380 f   Log.obj
 0001:000253c0       ?ProcessShortcut@CLog@@IAEHI@Z 004263c0 f   Log.obj
 0001:00025410       ?OnMeasureItem@CLog@@IAEXHPAUtagMEASUREITEMSTRUCT@@@Z 00426410 f   Log.obj
 0001:00025430       ?OnDrawItem@CLog@@IAEXHPAUtagDRAWITEMSTRUCT@@@Z 00426430 f   Log.obj
 0001:00025710       ?OnGetInfoTip@CLog@@IAEXPAUtagNMHDR@@PAJ@Z 00426710 f   Log.obj
 0001:00025800       ?MarkSort@CLog@@AAEXK@Z    00426800 f   Log.obj
 0001:000258d0       ?OnGetMinMaxInfo@CLog@@IAEXPAUtagMINMAXINFO@@@Z 004268d0 f   Log.obj
 0001:000259b0       ?IsValid@SPGhostSet@@QAEHXZ 004269b0 f   MainFrm.obj
 0001:000259e0       ??1SPGhostSet@@QAE@XZ      004269e0 f   MainFrm.obj
 0001:00025a80       ?GetRuntimeClass@CMainFrame@@UBEPAUCRuntimeClass@@XZ 00426a80 f   MainFrm.obj
 0001:00025a90       ?GetMessageMap@CMainFrame@@MBEPBUAFX_MSGMAP@@XZ 00426a90 f   MainFrm.obj
 0001:00025aa0       ??0CMainFrame@@QAE@XZ      00426aa0 f   MainFrm.obj
 0001:00025c40       ??1SPEventObject@@QAE@XZ   00426c40 f i MainFrm.obj
 0001:00025c50       ??_GCMainFrame@@UAEPAXI@Z  00426c50 f i MainFrm.obj
 0001:00025c50       ??_ECMainFrame@@UAEPAXI@Z  00426c50 f i MainFrm.obj
 0001:00025c80       ??1CMainFrame@@UAE@XZ      00426c80 f   MainFrm.obj
 0001:00025d70       ?CreateMe@CMainFrame@@QAEHPBD0@Z 00426d70 f   MainFrm.obj
 0001:00025dc0       ?OnCreate@CMainFrame@@IAEHPAUtagCREATESTRUCTA@@@Z 00426dc0 f   MainFrm.obj
 0001:00025df0       ?InitSystem@CMainFrame@@AAE_NXZ 00426df0 f   MainFrm.obj
 0001:00026d50       ??1SPStaticStringArrayA@@QAE@XZ 00427d50 f i MainFrm.obj
 0001:00026de0       ?StartMainTimer@CMainFrame@@QAEXXZ 00427de0 f   MainFrm.obj
 0001:00026e10       ?StopMainTimer@CMainFrame@@QAEXXZ 00427e10 f   MainFrm.obj
 0001:00026e30       ?SaveBootingGhostData@CMainFrame@@QAEXPAVSPGhost@@@Z 00427e30 f   MainFrm.obj
 0001:00027060       ?OnClose@CMainFrame@@IAEXXZ 00428060 f   MainFrm.obj
 0001:00027070       ?QuitApplication@CMainFrame@@QAEXPBG@Z 00428070 f   MainFrm.obj
 0001:000270a0       ?GhostExitProc@CMainFrame@@QAEXPBG@Z 004280a0 f   MainFrm.obj
 0001:000271d0       ?ExitProc@CMainFrame@@IAEXXZ 004281d0 f   MainFrm.obj
 0001:000271f0       ?AddGhost@CMainFrame@@QAEPAVSPGhostSet@@PAVSPGhost@@PAPAGKK@Z 004281f0 f   MainFrm.obj
 0001:000273c0       ?KeepMessengerBootedGhost@CMainFrame@@QAEXPAVCSakuraWnd@@@Z 004283c0 f   MainFrm.obj
 0001:00027460       ?CreateGhostWindows@CMainFrame@@IAEHPAVSPGhostSet@@@Z 00428460 f   MainFrm.obj
 0001:000276f0       ?FindSetFromGhost@CMainFrame@@AAEPAVSPGhostSet@@PAVSPGhost@@@Z 004286f0 f   MainFrm.obj
 0001:000277a0       ?DeleteGhost@CMainFrame@@QAEHPAVSPGhostSet@@HH@Z 004287a0 f   MainFrm.obj
 0001:000278e0       ?OnTimer@CMainFrame@@IAEXI@Z 004288e0 f   MainFrm.obj
 0001:00027960       ?OnTimerDevice@CMainFrame@@AAEXXZ 00428960 f   MainFrm.obj
 0001:00027f40       ??0SPShioriEvent@@QAE@XZ   00428f40 f i MainFrm.obj
 0001:00027f70       ?OnTimerMain@CMainFrame@@AAEXXZ 00428f70 f   MainFrm.obj
 0001:00028570       ?ReadHeadlineSequential@CMainFrame@@AAEHPAVSPGhost@@@Z 00429570 f   MainFrm.obj
 0001:00028690       ?ShowCalendar@CMainFrame@@QAEXPAUHWND__@@H@Z 00429690 f   MainFrm.obj
 0001:000287d0       ?ToggleMinimizeAll@CMainFrame@@QAEXXZ 004297d0 f   MainFrm.obj
 0001:00028850       ?ShowTaskTrayIcon@CMainFrame@@QAEX_N@Z 00429850 f   MainFrm.obj
 0001:000288f0       ?UpdateGhostState@CMainFrame@@IAEXJH@Z 004298f0 f   MainFrm.obj
 0001:00028930       ?InitHistoryMenu@CMainFrame@@AAEXK@Z 00429930 f   MainFrm.obj
 0001:00028970       ?InitHistoryJumpList@CMainFrame@@AAEX_N@Z 00429970 f   MainFrm.obj
 0001:00028cb0       ?InitGhostMenu@CMainFrame@@AAEXH@Z 00429cb0 f   MainFrm.obj
 0001:00028d50       ?InitBalloonMenu@CMainFrame@@AAEXH@Z 00429d50 f   MainFrm.obj
 0001:00028da0       ?InitHeadlineMenu@CMainFrame@@AAEXH@Z 00429da0 f   MainFrm.obj
 0001:00028df0       ?InitPluginMenu@CMainFrame@@AAEXH@Z 00429df0 f   MainFrm.obj
 0001:00028e40       ?InitPluginMenuEnable@CMainFrame@@QAEXXZ 00429e40 f   MainFrm.obj
 0001:00028e70       ?InitCheckMailMenu@CMainFrame@@QAEXXZ 00429e70 f   MainFrm.obj
 0001:00028ea0       ?CMainFrame_InitCheckMailMenu@@YAXXZ 00429ea0 f   MainFrm.obj
 0001:00028eb0       ?InitAllGhostMenu@CMainFrame@@QAEXXZ 00429eb0 f   MainFrm.obj
 0001:00028ef0       ?WindowProc@CMainFrame@@MAEJIIJ@Z 00429ef0 f   MainFrm.obj
 0001:00029130       ?OnPowerBroadcast@CMainFrame@@IAEJIJ@Z 0042a130 f   MainFrm.obj
 0001:000291e0       ?OnDeviceChangeMessage@CMainFrame@@IAEJIJ@Z 0042a1e0 f   MainFrm.obj
 0001:000296b0       ??0JWString@@QAE@ABV0@@Z   0042a6b0 f i MainFrm.obj
 0001:00029700       ??1SPDeviceInfo@@QAE@XZ    0042a700 f i MainFrm.obj
 0001:00029770       ?NotifyBatteryStatus@CMainFrame@@AAEHPAVSPGhost@@_N@Z 0042a770 f   MainFrm.obj
 0001:00029a40       ?OnSSPSysMsg@CMainFrame@@IAEJIJ@Z 0042aa40 f   MainFrm.obj
 0001:00029d70       ?OnSSPSysMsgGhostClose@CMainFrame@@QAEXPAVSPGhost@@_N@Z 0042ad70 f   MainFrm.obj
 0001:00029fd0       ?OnSSPSysMsgGhostChange@CMainFrame@@QAEXHJPAVCSakuraWnd@@_N@Z 0042afd0 f   MainFrm.obj
 0001:0002a530       ?OnSSPSysMsgShellChange@CMainFrame@@QAEXHJPAVCSakuraWnd@@@Z 0042b530 f   MainFrm.obj
 0001:0002a850       ?OnCopyData@CMainFrame@@IAEHPAVCWnd@@PAUtagCOPYDATASTRUCT@@@Z 0042b850 f   MainFrm.obj
 0001:0002a8b0       ?AssociateFile@CMainFrame@@QAEXHH@Z 0042b8b0 f   MainFrm.obj
 0001:0002adf0       ?ShowPropertyWindow@CMainFrame@@QAEXPAUHWND__@@PAG@Z 0042bdf0 f   MainFrm.obj
 0001:0002af80       ?ShowGhostTimeWindow@CMainFrame@@QAEXPAUHWND__@@@Z 0042bf80 f   MainFrm.obj
 0001:0002b090       ?ShowMessengerWindow@CMainFrame@@QAEXXZ 0042c090 f   MainFrm.obj
 0001:0002b0f0       ?ShowLogWindow@CMainFrame@@QAEXPAVSPLogManagerCore@@@Z 0042c0f0 f   MainFrm.obj
 0001:0002b1e0       ?ShowExplorerWindow@CMainFrame@@QAEXPAVCSakuraWnd@@H@Z 0042c1e0 f   MainFrm.obj
 0001:0002b2e0       ?UpdateExplorerWindow@CMainFrame@@QAEXPAVCSakuraWnd@@H@Z 0042c2e0 f   MainFrm.obj
 0001:0002b310       ?SetExplorerWindowGhost@CMainFrame@@QAEXPAVCSakuraWnd@@@Z 0042c310 f   MainFrm.obj
 0001:0002b430       ?ShowInfoWindow@CMainFrame@@QAEXPAVSPGhost@@H@Z 0042c430 f   MainFrm.obj
 0001:0002b6a0       ?OnSettingChange@CMainFrame@@IAEXIPBD@Z 0042c6a0 f   MainFrm.obj
 0001:0002b6e0       ?OnFontChange@CMainFrame@@IAEXXZ 0042c6e0 f   MainFrm.obj
 0001:0002b770       ?BackFocusToGhost@CMainFrame@@QAEXXZ 0042c770 f   MainFrm.obj
 0001:0002b860       ?WinHelpA@CMainFrame@@UAEXKI@Z 0042c860 f   MainFrm.obj
 0001:0002b860       ?WinHelpA@CSakuraApp@@UAEXKI@Z 0042c860 f   MainFrm.obj
 0001:0002b870       ?OnTaskTray@CMainFrame@@IAEJIJ@Z 0042c870 f   MainFrm.obj
 0001:0002b8d0       ?OnDestroy@CMainFrame@@IAEXXZ 0042c8d0 f   MainFrm.obj
 0001:0002b8f0       ?DestroyProc@CMainFrame@@AAEXXZ 0042c8f0 f   MainFrm.obj
 0001:0002bad0       ?OnQueryEndSession@CMainFrame@@IAEHXZ 0042cad0 f   MainFrm.obj
 0001:0002bb00       ?OnEndSession@CMainFrame@@IAEXH@Z 0042cb00 f   MainFrm.obj
 0001:0002bb80       ?WaitForApplicationQuit@CMainFrame@@AAEXXZ 0042cb80 f   MainFrm.obj
 0001:0002bb90       ??0?$JPtrArray@PAVSPSurface@@@@QAE@J@Z 0042cb90 f i MainFrm.obj
 0001:0002bb90       ??0?$JPtrArray@PAVSPSSTPData@@@@QAE@J@Z 0042cb90 f i MainFrm.obj
 0001:0002bb90       ??0?$JPtrArray@PAVSPGhost@@@@QAE@J@Z 0042cb90 f i MainFrm.obj
 0001:0002bb90       ??0?$JPtrArray@P6AXKPAX0@Z@@QAE@J@Z 0042cb90 f i MainFrm.obj
 0001:0002bb90       ??0?$JPtrArray@PAVSPSurfaceTestData@@@@QAE@J@Z 0042cb90 f i MainFrm.obj
 0001:0002bb90       ??0?$JPtrArray@PAVJGIFImage@@@@QAE@J@Z 0042cb90 f i MainFrm.obj
 0001:0002bb90       ??0?$JPtrArray@PAVSPPopMessage@@@@QAE@J@Z 0042cb90 f i MainFrm.obj
 0001:0002bb90       ??0?$JPtrArray@PAVSPDataPathListData@@@@QAE@J@Z 0042cb90 f i MainFrm.obj
 0001:0002bb90       ??0?$JPtrArray@PAVSPScriptEntry@@@@QAE@J@Z 0042cb90 f i MainFrm.obj
 0001:0002bb90       ??0?$JPtrArray@PAVSPScriptQueueData@@@@QAE@J@Z 0042cb90 f i MainFrm.obj
 0001:0002bb90       ??0?$JPtrArray@PAVJWString@@@@QAE@J@Z 0042cb90 f i MainFrm.obj
 0001:0002bb90       ??0?$JPtrArray@PAVCPlaySSFScript@@@@QAE@J@Z 0042cb90 f i MainFrm.obj
 0001:0002bb90       ??0?$JPtrArray@PAG@@QAE@J@Z 0042cb90 f i MainFrm.obj
 0001:0002bb90       ??0?$JPtrArray@PAD@@QAE@J@Z 0042cb90 f i MainFrm.obj
 0001:0002bb90       ??0?$JPtrArray@PAVSPDlgTemplateItem@@@@QAE@J@Z 0042cb90 f i MainFrm.obj
 0001:0002bb90       ??0?$JPtrArray@PAVSPCmdListener@@@@QAE@J@Z 0042cb90 f i MainFrm.obj
 0001:0002bb90       ??0?$JPtrArray@PAVSPTimeClientData@@@@QAE@J@Z 0042cb90 f i MainFrm.obj
 0001:0002bb90       ??0?$JPtrArray@PAVSPSerikoTask@@@@QAE@J@Z 0042cb90 f i MainFrm.obj
 0001:0002bb90       ??0?$JPtrArray@PAVSPFolderListData@@@@QAE@J@Z 0042cb90 f i MainFrm.obj
 0001:0002bb90       ??0?$JPtrArray@PAVSPCmdNotifier@@@@QAE@J@Z 0042cb90 f i MainFrm.obj
 0001:0002bb90       ??0?$JPtrArray@PAVSPGhostRaiseBlock@@@@QAE@J@Z 0042cb90 f i MainFrm.obj
 0001:0002bb90       ??0?$JPtrArray@PAVSPUpdateEntry@@@@QAE@J@Z 0042cb90 f i MainFrm.obj
 0001:0002bb90       ??0?$JPtrArray@PAVSPSurfaceTable@@@@QAE@J@Z 0042cb90 f i MainFrm.obj
 0001:0002bb90       ??0?$JPtrArray@PAVJString@@@@QAE@J@Z 0042cb90 f i MainFrm.obj
 0001:0002bb90       ??0?$JPtrArray@PAVSPBalloonString@@@@QAE@J@Z 0042cb90 f i MainFrm.obj
 0001:0002bc00       ?Alloc@?$JArray@G@@QAE_NK@Z 0042cc00 f i MainFrm.obj
 0001:0002bcb0       ??_GSPDeviceInfo@@QAEPAXI@Z 0042ccb0 f i MainFrm.obj
 0001:0002bce0       ?Delete@?$JArray@PAX@@QAEXJ@Z 0042cce0 f i MainFrm.obj
 0001:0002bd30       ??0CMenuCreator@@QAE@HPAVSPMenuItem@@PAUHMENU__@@H@Z 0042cd30 f   MenuCreator.obj
 0001:0002bf60       ??1CMenuCreator@@QAE@XZ    0042cf60 f   MenuCreator.obj
 0001:0002bfe0       ?Add@CMenuCreator@@QAEXPAVSPProp@@IK@Z 0042cfe0 f   MenuCreator.obj
 0001:0002c0e0       ??0CMessageWnd@@QAE@XZ     0042d0e0 f   MessageWnd.obj
 0001:0002c240       ??_ECMessageWnd@@UAEPAXI@Z 0042d240 f i MessageWnd.obj
 0001:0002c240       ??_GCMessageWnd@@UAEPAXI@Z 0042d240 f i MessageWnd.obj
 0001:0002c270       ??1CMessageWnd@@UAE@XZ     0042d270 f   MessageWnd.obj
 0001:0002c300       ?GetMessageMap@CMessageWnd@@MBEPBUAFX_MSGMAP@@XZ 0042d300 f   MessageWnd.obj
 0001:0002c310       ?OnPaint@CMessageWnd@@IAEXXZ 0042d310 f   MessageWnd.obj
 0001:0002c340       ?OnPrintClient@CMessageWnd@@IAEJIJ@Z 0042d340 f   MessageWnd.obj
 0001:0002c360       ?ChoiceSelect@CMessageWnd@@AAEHJPAVSPBalloonString@@@Z 0042d360 f   MessageWnd.obj
 0001:0002c8a0       ?SetBalloonUserOffset@CMessageWnd@@AAEXAAVJPoint@@H@Z 0042d8a0 f   MessageWnd.obj
 0001:0002c950       ?OnMouseMove@CMessageWnd@@IAEXIVCPoint@@@Z 0042d950 f   MessageWnd.obj
 0001:0002c980       ?OnLButtonDblClk@CMessageWnd@@IAEXIVCPoint@@@Z 0042d980 f   MessageWnd.obj
 0001:0002c9b0       ?OnLButtonUp@CMessageWnd@@IAEXIVCPoint@@@Z 0042d9b0 f   MessageWnd.obj
 0001:0002c9e0       ?OnLButtonDown@CMessageWnd@@IAEXIVCPoint@@@Z 0042d9e0 f   MessageWnd.obj
 0001:0002ca10       ?OnRButtonUp@CMessageWnd@@IAEXIVCPoint@@@Z 0042da10 f   MessageWnd.obj
 0001:0002ca40       ?EX_OnMouseMove@CMessageWnd@@AAEXI@Z 0042da40 f   MessageWnd.obj
 0001:0002ce00       ?EX_OnLButtonDblClk@CMessageWnd@@AAEXI@Z 0042de00 f   MessageWnd.obj
 0001:0002ce80       ?EX_OnLButtonUp@CMessageWnd@@AAEXI@Z 0042de80 f   MessageWnd.obj
 0001:0002d100       ?EX_OnLButtonDown@CMessageWnd@@AAEXI@Z 0042e100 f   MessageWnd.obj
 0001:0002d1d0       ?EX_OnRButtonUp@CMessageWnd@@AAEXI@Z 0042e1d0 f   MessageWnd.obj
 0001:0002d220       ?OnMouseWheel@CMessageWnd@@IAEHIFVCPoint@@@Z 0042e220 f   MessageWnd.obj
 0001:0002d280       ?OnVScroll@CMessageWnd@@IAEXIIPAVCScrollBar@@@Z 0042e280 f   MessageWnd.obj
 0001:0002d2e0       ?OnCreate@CMessageWnd@@IAEHPAUtagCREATESTRUCTA@@@Z 0042e2e0 f   MessageWnd.obj
 0001:0002d3a0       ?OnGetMinMaxInfo@CMessageWnd@@IAEXPAUtagMINMAXINFO@@@Z 0042e3a0 f   MessageWnd.obj
 0001:0002d3f0       ?OnTimer@CMessageWnd@@IAEXI@Z 0042e3f0 f   MessageWnd.obj
 0001:0002d4c0       ?Break@CMessageWnd@@QAEXABVCPoint@@@Z 0042e4c0 f   MessageWnd.obj
 0001:0002d620       ?EX_OnKeyDown@CMessageWnd@@QAE_NIJPAUHWND__@@@Z 0042e620 f   MessageWnd.obj
 0001:0002d860       ?WindowProc@CMessageWnd@@MAEJIIJ@Z 0042e860 f   MessageWnd.obj
 0001:0002d970       ?ExecMouseCommand@CMessageWnd@@AAEXIIABVCPoint@@@Z 0042e970 f   MessageWnd.obj
 0001:0002d9c0       ?OnDestroy@CMessageWnd@@IAEXXZ 0042e9c0 f   MessageWnd.obj
 0001:0002da00       ?ScrollBalloonMsg@CMessageWnd@@AAEXH@Z 0042ea00 f   MessageWnd.obj
 0001:0002dab0       ?CheckScroll@CMessageWnd@@AAEHABVCPoint@@@Z 0042eab0 f   MessageWnd.obj
 0001:0002db20       ?PreTranslateMessage@CMessageWnd@@UAEHPAUtagMSG@@@Z 0042eb20 f   MessageWnd.obj
 0001:0002db60       ?ToolTipActivate@CMessageWnd@@AAEX_N@Z 0042eb60 f   MessageWnd.obj
 0001:0002dbf0       ?OnNotify@CMessageWnd@@MAEHIJPAJ@Z 0042ebf0 f   MessageWnd.obj
 0001:0002dc40       ?ToolTipDispInfo@CMessageWnd@@AAE_NAAUtagNMTTDISPINFOA@@@Z 0042ec40 f   MessageWnd.obj
 0001:0002de50       ??0CMessengerDlg@@QAE@PAVCWnd@@@Z 0042ee50 f   MessengerDlg.obj
 0001:0002df40       ??_GCStatusBarCtrl@@UAEPAXI@Z 0042ef40 f i MessengerDlg.obj
 0001:0002df40       ??_ECStatusBarCtrl@@UAEPAXI@Z 0042ef40 f i MessengerDlg.obj
 0001:0002df70       ??_ECTabCtrl@@UAEPAXI@Z    0042ef70 f i MessengerDlg.obj
 0001:0002df70       ??_GCTabCtrl@@UAEPAXI@Z    0042ef70 f i MessengerDlg.obj
 0001:0002dfa0       ??_GCMessengerDlg@@UAEPAXI@Z 0042efa0 f i MessengerDlg.obj
 0001:0002dfa0       ??_ECMessengerDlg@@UAEPAXI@Z 0042efa0 f i MessengerDlg.obj
 0001:0002dfd0       ??1CMessengerDlg@@UAE@XZ   0042efd0 f i MessengerDlg.obj
 0001:0002e0a0       ?DoDataExchange@CMessengerDlg@@MAEXPAVCDataExchange@@@Z 0042f0a0 f   MessengerDlg.obj
 0001:0002e0f0       ?GetMessageMap@CMessengerDlg@@MBEPBUAFX_MSGMAP@@XZ 0042f0f0 f   MessengerDlg.obj
 0001:0002e100       ?OnInitDialog@CMessengerDlg@@MAEHXZ 0042f100 f   MessengerDlg.obj
 0001:0002e500       ?OnEditCut@CMessengerDlg@@IAEXXZ 0042f500 f   MessengerDlg.obj
 0001:0002e520       ?OnEditPaste@CMessengerDlg@@IAEXXZ 0042f520 f   MessengerDlg.obj
 0001:0002e540       ?OnEditClear@CMessengerDlg@@IAEXXZ 0042f540 f   MessengerDlg.obj
 0001:0002e560       ?OnEditCopy@CMessengerDlg@@IAEXXZ 0042f560 f   MessengerDlg.obj
 0001:0002e580       ?OnClear@CMessengerDlg@@IAEXXZ 0042f580 f   MessengerDlg.obj
 0001:0002e590       ?GetEditText@CMessengerDlg@@AAEXAAVJString@@@Z 0042f590 f   MessengerDlg.obj
 0001:0002e5e0       ?OnSend@CMessengerDlg@@IAEXXZ 0042f5e0 f   MessengerDlg.obj
 0001:0002e890       ??0JThreadLoop@@QAE@XZ     0042f890 f i MessengerDlg.obj
 0001:0002e8e0       ??1JLockable@@UAE@XZ       0042f8e0 f i MessengerDlg.obj
 0001:0002e8e0       ??1JDummyLockSection@@UAE@XZ 0042f8e0 f i MessengerDlg.obj
 0001:0002e8f0       ??_EJLockable@@UAEPAXI@Z   0042f8f0 f i MessengerDlg.obj
 0001:0002e8f0       ??_GJLockable@@UAEPAXI@Z   0042f8f0 f i MessengerDlg.obj
 0001:0002e920       ??1JThreadLoop@@UAE@XZ     0042f920 f i MessengerDlg.obj
 0001:0002e980       ?Start@JThreadLoop@@UAEHJ@Z 0042f980 f i MessengerDlg.obj
 0001:0002e9a0       ?Suspend@JThreadLoop@@UAEHXZ 0042f9a0 f i MessengerDlg.obj
 0001:0002e9b0       ?Resume@JThreadLoop@@UAEHXZ 0042f9b0 f i MessengerDlg.obj
 0001:0002e9c0       ?ForceResume@JThreadLoop@@UAEHXZ 0042f9c0 f i MessengerDlg.obj
 0001:0002e9d0       ?Exit@JThreadLoop@@UAEHXZ  0042f9d0 f i MessengerDlg.obj
 0001:0002e9e0       ?Sleep@JThreadLoop@@UAEHJ@Z 0042f9e0 f i MessengerDlg.obj
 0001:0002ea00       ?WaitForThreadRelease@JThreadLoop@@UAEHH@Z 0042fa00 f i MessengerDlg.obj
 0001:0002ea20       ?Lock@JThreadLoop@@UAE_NJ@Z 0042fa20 f i MessengerDlg.obj
 0001:0002ea40       ?Unlock@JThreadLoop@@UAEXXZ 0042fa40 f i MessengerDlg.obj
 0001:0002ea50       ??_GJThreadLoop@@UAEPAXI@Z 0042fa50 f i MessengerDlg.obj
 0001:0002ea50       ??_EJThreadLoop@@UAEPAXI@Z 0042fa50 f i MessengerDlg.obj
 0001:0002ea80       ??0SPMsgSender@@QAE@XZ     0042fa80 f i MessengerDlg.obj
 0001:0002ebe0       ??1SPMsgSender@@UAE@XZ     0042fbe0 f i MessengerDlg.obj
 0001:0002ecd0       ??_GSPMsgSender@@UAEPAXI@Z 0042fcd0 f i MessengerDlg.obj
 0001:0002ecd0       ??_ESPMsgSender@@UAEPAXI@Z 0042fcd0 f i MessengerDlg.obj
 0001:0002ed00       ??_ESPMsgSenderIPMessenger@@UAEPAXI@Z 0042fd00 f i MessengerDlg.obj
 0001:0002ed00       ??_GSPMsgSenderIPMessenger@@UAEPAXI@Z 0042fd00 f i MessengerDlg.obj
 0001:0002ed30       ??_GSPMsgSenderSSTP@@UAEPAXI@Z 0042fd30 f i MessengerDlg.obj
 0001:0002ed30       ??_ESPMsgSenderSSTP@@UAEPAXI@Z 0042fd30 f i MessengerDlg.obj
 0001:0002ed60       ??1SPMsgSenderIPMessenger@@UAE@XZ 0042fd60 f i MessengerDlg.obj
 0001:0002ee70       ??1SPMsgSenderSSTP@@UAE@XZ 0042fe70 f i MessengerDlg.obj
 0001:0002ef70       ?OnDestroy@CMessengerDlg@@IAEXXZ 0042ff70 f   MessengerDlg.obj
 0001:0002f050       ?OnCommand@CMessengerDlg@@MAEHIJ@Z 00430050 f   MessengerDlg.obj
 0001:0002f0a0       ?SetListNum@CMessengerDlg@@AAEXK@Z 004300a0 f   MessengerDlg.obj
 0001:0002f120       ?SetLogNum@CMessengerDlg@@AAEXK@Z 00430120 f   MessengerDlg.obj
 0001:0002f1a0       ?UpdateMsgListIfSelected@CMessengerDlg@@AAEXK@Z 004301a0 f   MessengerDlg.obj
 0001:0002f1d0       ?UpdateMsgList@CMessengerDlg@@AAEXXZ 004301d0 f   MessengerDlg.obj
 0001:0002f410       ?UpdateUserList@CMessengerDlg@@AAEXXZ 00430410 f   MessengerDlg.obj
 0001:0002f5b0       ?UpdateEditBytes@CMessengerDlg@@AAEXXZ 004305b0 f   MessengerDlg.obj
 0001:0002f600       ?UpdateType@CMessengerDlg@@AAEXXZ 00430600 f   MessengerDlg.obj
 0001:0002f660       ?GetUser@CMessengerDlg@@AAEPAVSPMessengerUser@@K@Z 00430660 f   MessengerDlg.obj
 0001:0002f6d0       ?GetSelUser@CMessengerDlg@@AAEPAVSPMessengerUser@@XZ 004306d0 f   MessengerDlg.obj
 0001:0002f6e0       ?ClearForm@CMessengerDlg@@QAEXXZ 004306e0 f   MessengerDlg.obj
 0001:0002f700       ?AdjustListColumn@CMessengerDlg@@AAEXXZ 00430700 f   MessengerDlg.obj
 0001:0002f770       ?UpdateMenuState@CMessengerDlg@@AAEXPAUHMENU__@@@Z 00430770 f   MessengerDlg.obj
 0001:0002f7c0       ?CMessengerDlg_UpdateUserList@@YAXXZ 004307c0 f   MessengerDlg.obj
 0001:0002f7e0       ?CMessengerDlg_UpdateMsgList@@YAXI@Z 004307e0 f   MessengerDlg.obj
 0001:0002f810       ?OnMessenger@CMessengerDlg@@IAEJIJ@Z 00430810 f   MessengerDlg.obj
 0001:0002f870       ?OnTimer@CMessengerDlg@@IAEXI@Z 00430870 f   MessengerDlg.obj
 0001:0002f8a0       ?OnSize@CMessengerDlg@@IAEXIHH@Z 004308a0 f   MessengerDlg.obj
 0001:0002f910       ?OnChangeMessage@CMessengerDlg@@IAEXXZ 00430910 f   MessengerDlg.obj
 0001:0002f920       ?OnRclickUsertab@CMessengerDlg@@IAEXPAUtagNMHDR@@PAJ@Z 00430920 f   MessengerDlg.obj
 0001:0002fa50       ?OnSelchangeUsertab@CMessengerDlg@@IAEXPAUtagNMHDR@@PAJ@Z 00430a50 f   MessengerDlg.obj
 0001:0002faa0       ?OnBnClickedTest@CMessengerDlg@@QAEXXZ 00430aa0 f   MessengerDlg.obj
 0001:0002fb90       ?UserCommand@CMessengerDlg@@AAE_NIJK@Z 00430b90 f   MessengerDlg.obj
 0001:0002fc10       ?UserDelete@CMessengerDlg@@AAEXK@Z 00430c10 f   MessengerDlg.obj
 0001:0002fc70       ?UserNew@CMessengerDlg@@AAEXXZ 00430c70 f   MessengerDlg.obj
 0001:0002fd90       ??1CMessengerUserDlg@@UAE@XZ 00430d90 f i MessengerDlg.obj
 0001:0002fe30       ?UserProp@CMessengerDlg@@AAEXK@Z 00430e30 f   MessengerDlg.obj
 0001:0002ff40       ?CmdUpdateUserList@CMessengerDlg@@AAEXXZ 00430f40 f   MessengerDlg.obj
 0001:0002ff70       ?UserLogDel@CMessengerDlg@@AAEXK@Z 00430f70 f   MessengerDlg.obj
 0001:0002ff90       ?OnGetMinMaxInfo@CMessengerDlg@@IAEXPAUtagMINMAXINFO@@@Z 00430f90 f   MessengerDlg.obj
 0001:00030030       ?CreateObject@CMessengerSettingDlg@@SGPAVCObject@@XZ 00431030 f   MessengerSettingDlg.obj
 0001:00030090       ?GetRuntimeClass@CMessengerSettingDlg@@UBEPAUCRuntimeClass@@XZ 00431090 f   MessengerSettingDlg.obj
 0001:000300a0       ??0CMessengerSettingDlg@@QAE@PAVCWnd@@@Z 004310a0 f   MessengerSettingDlg.obj
 0001:00030140       ??_GCMessengerSettingDlg@@UAEPAXI@Z 00431140 f i MessengerSettingDlg.obj
 0001:00030140       ??_ECMessengerSettingDlg@@UAEPAXI@Z 00431140 f i MessengerSettingDlg.obj
 0001:00030170       ??1CMessengerSettingDlg@@UAE@XZ 00431170 f i MessengerSettingDlg.obj
 0001:000301e0       ?DoDataExchange@CMessengerSettingDlg@@MAEXPAVCDataExchange@@@Z 004311e0 f   MessengerSettingDlg.obj
 0001:00030230       ?GetMessageMap@CMessengerSettingDlg@@MBEPBUAFX_MSGMAP@@XZ 00431230 f   MessengerSettingDlg.obj
 0001:00030240       ?OnServiceadd@CMessengerSettingDlg@@IAEXXZ 00431240 f   MessengerSettingDlg.obj
 0001:00030450       ??1SPDirServProp@@QAE@XZ   00431450 f i MessengerSettingDlg.obj
 0001:00030530       ?OnServiceedit@CMessengerSettingDlg@@IAEXXZ 00431530 f   MessengerSettingDlg.obj
 0001:000306a0       ?OnInitDialog@CMessengerSettingDlg@@MAEHXZ 004316a0 f   MessengerSettingDlg.obj
 0001:00030930       ?OnChangeGroupname@CMessengerSettingDlg@@IAEXXZ 00431930 f   MessengerSettingDlg.obj
 0001:00030980       ?OnChangeName@CMessengerSettingDlg@@IAEXXZ 00431980 f   MessengerSettingDlg.obj
 0001:000309d0       ?OnServicedel@CMessengerSettingDlg@@IAEXXZ 004319d0 f   MessengerSettingDlg.obj
 0001:00030a90       ?OnDblclkServicelist@CMessengerSettingDlg@@IAEXPAUtagNMHDR@@PAJ@Z 00431a90 f   MessengerSettingDlg.obj
 0001:00030ab0       ?OnNotranslate@CMessengerSettingDlg@@IAEXXZ 00431ab0 f   MessengerSettingDlg.obj
 0001:00030ad0       ?OnAutoclear@CMessengerSettingDlg@@IAEXXZ 00431ad0 f   MessengerSettingDlg.obj
 0001:00030af0       ?OnDestroy@CMessengerSettingDlg@@IAEXXZ 00431af0 f   MessengerSettingDlg.obj
 0001:00030b10       ??0CMessengerUserDlg@@QAE@PAVCWnd@@@Z 00431b10 f   MessengerUserDlg.obj
 0001:00030c00       ??_ECMessengerUserDlg@@UAEPAXI@Z 00431c00 f i MessengerUserDlg.obj
 0001:00030c00       ??_GCMessengerUserDlg@@UAEPAXI@Z 00431c00 f i MessengerUserDlg.obj
 0001:00030c30       ?DoDataExchange@CMessengerUserDlg@@MAEXPAVCDataExchange@@@Z 00431c30 f   MessengerUserDlg.obj
 0001:00030cb0       ?GetMessageMap@CMessengerUserDlg@@MBEPBUAFX_MSGMAP@@XZ 00431cb0 f   MessengerUserDlg.obj
 0001:00030cc0       ?OnOK@CMessengerUserDlg@@MAEXXZ 00431cc0 f   MessengerUserDlg.obj
 0001:00030e50       ?OnDirectip@CMessengerUserDlg@@IAEXXZ 00431e50 f   MessengerUserDlg.obj
 0001:00030e90       ?OnDirectoryservice@CMessengerUserDlg@@IAEXXZ 00431e90 f   MessengerUserDlg.obj
 0001:00030ed0       ?OnCancel@CMessengerUserDlg@@MAEXXZ 00431ed0 f   MessengerUserDlg.obj
 0001:00030ee0       ?OnInitDialog@CMessengerUserDlg@@MAEHXZ 00431ee0 f   MessengerUserDlg.obj
 0001:00031170       ??0CModuleCharset@@QAE@PAVCWnd@@@Z 00432170 f   ModuleCharset.obj
 0001:00031250       ??_ECModuleCharset@@UAEPAXI@Z 00432250 f i ModuleCharset.obj
 0001:00031250       ??_GCModuleCharset@@UAEPAXI@Z 00432250 f i ModuleCharset.obj
 0001:00031280       ??1CModuleCharset@@UAE@XZ  00432280 f i ModuleCharset.obj
 0001:00031330       ?DoDataExchange@CModuleCharset@@MAEXPAVCDataExchange@@@Z 00432330 f   ModuleCharset.obj
 0001:000313c0       ?GetMessageMap@CModuleCharset@@MBEPBUAFX_MSGMAP@@XZ 004323c0 f   ModuleCharset.obj
 0001:000313d0       ?OnInitDialog@CModuleCharset@@MAEHXZ 004323d0 f   ModuleCharset.obj
 0001:000315d0       ?OnOK@CModuleCharset@@UAEXXZ 004325d0 f   ModuleCharset.obj
 0001:000316a0       ??0CMyComboBoxEx@@QAE@XZ   004326a0 f   MyComboBoxEx.obj
 0001:000316c0       ??_ECMyComboBoxEx@@UAEPAXI@Z 004326c0 f i MyComboBoxEx.obj
 0001:000316c0       ??_GCMyComboBoxEx@@UAEPAXI@Z 004326c0 f i MyComboBoxEx.obj
 0001:000316f0       ??1CMyComboBoxEx@@UAE@XZ   004326f0 f   MyComboBoxEx.obj
 0001:00031700       ?AddString@CMyComboBoxEx@@QAEHPBD@Z 00432700 f   MyComboBoxEx.obj
 0001:00031740       ?InsertStringW@CMyComboBoxEx@@QAEHHPBG@Z 00432740 f   MyComboBoxEx.obj
 0001:00031780       ?GetMessageMap@CMyComboBoxEx@@MBEPBUAFX_MSGMAP@@XZ 00432780 f   MyComboBoxEx.obj
 0001:00031790       ?ThreadProcRSS@CNetUpdateDlg@@QAEXPCH@Z 00432790 f   NetUpdateDlg.obj
 0001:00031aa0       ?ThreadProc@CNetUpdateDlg@@QAEXPCHPAV?$JArray@K@@@Z 00432aa0 f   NetUpdateDlg.obj
 0001:000322c0       ??0SPCmdNotifier@@QAE@XZ   004332c0 f i NetUpdateDlg.obj
 0001:00032310       ??0SPHttp@@QAE@XZ          00433310 f i NetUpdateDlg.obj
 0001:00032530       ??1JBufferedStream@@UAE@XZ 00433530 f i NetUpdateDlg.obj
 0001:00032560       ?SetBufferSize@JBufferedStream@@QAEXK@Z 00433560 f i NetUpdateDlg.obj
 0001:000325a0       ?Open@JBufferedStream@@UAEHPAVJStreamObject@@PBDH@Z 004335a0 f i NetUpdateDlg.obj
 0001:000325f0       ?OpenW@JBufferedStream@@UAEHPAVJStreamObject@@PBGH@Z 004335f0 f i NetUpdateDlg.obj
 0001:00032640       ?Open@JBufferedStream@@UAEHPBDH@Z 00433640 f i NetUpdateDlg.obj
 0001:00032670       ?OpenW@JBufferedStream@@UAEHPBGH@Z 00433670 f i NetUpdateDlg.obj
 0001:000326a0       ?Close@JBufferedStream@@UAEXXZ 004336a0 f i NetUpdateDlg.obj
 0001:000326d0       ?AttachStream@JBufferedStream@@UAEXPAVJStreamObject@@@Z 004336d0 f i NetUpdateDlg.obj
 0001:00032700       ?DetachStream@JBufferedStream@@UAEPAVJStreamObject@@XZ 00433700 f i NetUpdateDlg.obj
 0001:00032710       ??_GJBufferedStream@@UAEPAXI@Z 00433710 f i NetUpdateDlg.obj
 0001:00032710       ??_EJBufferedStream@@UAEPAXI@Z 00433710 f i NetUpdateDlg.obj
 0001:00032740       ??_GSPUpdate@@UAEPAXI@Z    00433740 f i NetUpdateDlg.obj
 0001:00032740       ??_ESPUpdate@@UAEPAXI@Z    00433740 f i NetUpdateDlg.obj
 0001:00032860       ?UpdateOne@CNetUpdateDlg@@AAEHAAVSPUpdate@@PAGPAD2@Z 00433860 f   NetUpdateDlg.obj
 0001:00032ea0       ?MakeExeList@CNetUpdateDlg@@AAEXAAVSPStaticStringArrayA@@PADK@Z 00433ea0 f   NetUpdateDlg.obj
 0001:000330e0       ??0CNetUpdateDlg@@QAE@PAVCWnd@@@Z 004340e0 f   NetUpdateDlg.obj
 0001:00033250       ??_ECNetUpdateDlg@@UAEPAXI@Z 00434250 f i NetUpdateDlg.obj
 0001:00033250       ??_GCNetUpdateDlg@@UAEPAXI@Z 00434250 f i NetUpdateDlg.obj
 0001:00033280       ??1CNetUpdateDlg@@UAE@XZ   00434280 f i NetUpdateDlg.obj
 0001:00033510       ?DoDataExchange@CNetUpdateDlg@@MAEXPAVCDataExchange@@@Z 00434510 f   NetUpdateDlg.obj
 0001:00033530       ?GetMessageMap@CNetUpdateDlg@@MBEPBUAFX_MSGMAP@@XZ 00434530 f   NetUpdateDlg.obj
 0001:00033540       ?OnCancel@CNetUpdateDlg@@MAEXXZ 00434540 f   NetUpdateDlg.obj
 0001:00033580       ?OnInitDialog@CNetUpdateDlg@@MAEHXZ 00434580 f   NetUpdateDlg.obj
 0001:00033620       ?OnDestroy@CNetUpdateDlg@@IAEXXZ 00434620 f   NetUpdateDlg.obj
 0001:00033650       ?SetName@CNetUpdateDlg@@QAEXPAGII@Z 00434650 f   NetUpdateDlg.obj
 0001:000337a0       ?SetInfo@CNetUpdateDlg@@QAEXAAV?$JArray@K@@AAV?$JArray@VCListDialogData@@@@PADHHPAVCListDialog@@@Z 004347a0 f   NetUpdateDlg.obj
 0001:000338d0       ?CreateMe@CNetUpdateDlg@@QAEXXZ 004348d0 f   NetUpdateDlg.obj
 0001:00033ad0       ?SPCNotify@CNetUpdateDlg@@UAE_NKPAPAXK@Z 00434ad0 f   NetUpdateDlg.obj
 0001:00033dd0       ?OnClose@CNetUpdateDlg@@IAEXXZ 00434dd0 f   NetUpdateDlg.obj
 0001:00033df0       ??_ECNetUpdateDlg@@WFM@AEPAXI@Z 00434df0 f i NetUpdateDlg.obj
 0001:00033e00       ??0CNetworkDlg@@QAE@PAVCWnd@@@Z 00434e00 f   NetworkDlg.obj
 0001:00033f40       ??_ECNetworkDlg@@UAEPAXI@Z 00434f40 f i NetworkDlg.obj
 0001:00033f40       ??_GCNetworkDlg@@UAEPAXI@Z 00434f40 f i NetworkDlg.obj
 0001:00033f70       ??1CNetworkDlg@@UAE@XZ     00434f70 f i NetworkDlg.obj
 0001:00034060       ?DoDataExchange@CNetworkDlg@@MAEXPAVCDataExchange@@@Z 00435060 f   NetworkDlg.obj
 0001:00034150       ?GetMessageMap@CNetworkDlg@@MBEPBUAFX_MSGMAP@@XZ 00435150 f   NetworkDlg.obj
 0001:00034160       ?OnInitDialog@CNetworkDlg@@MAEHXZ 00435160 f   NetworkDlg.obj
 0001:00034580       ?OnEnableproxy@CNetworkDlg@@IAEXXZ 00435580 f   NetworkDlg.obj
 0001:000345e0       ?SetEnable@CNetworkDlg@@AAEXXZ 004355e0 f   NetworkDlg.obj
 0001:00034700       ?OnChangeProxyaddress@CNetworkDlg@@IAEXXZ 00435700 f   NetworkDlg.obj
 0001:00034760       ?OnChangeProxyport@CNetworkDlg@@IAEXXZ 00435760 f   NetworkDlg.obj
 0001:000347c0       ?OnConnectionLimit@CNetworkDlg@@IAEXXZ 004357c0 f   NetworkDlg.obj
 0001:00034800       ?OnChangeConnectionLimitStart@CNetworkDlg@@IAEXPAUtagNMHDR@@PAJ@Z 00435800 f   NetworkDlg.obj
 0001:00034880       ?OnChangeConnectionLimitStop@CNetworkDlg@@IAEXPAUtagNMHDR@@PAJ@Z 00435880 f   NetworkDlg.obj
 0001:00034900       ?OnUseSystemSetting@CNetworkDlg@@IAEXXZ 00435900 f   NetworkDlg.obj
 0001:00034980       ?SetProxyAddr@CNetworkDlg@@AAEXXZ 00435980 f   NetworkDlg.obj
 0001:00034a60       ?OnChangeProxyUser@CNetworkDlg@@IAEXXZ 00435a60 f   NetworkDlg.obj
 0001:00034ac0       ?OnChangeProxyPass@CNetworkDlg@@IAEXXZ 00435ac0 f   NetworkDlg.obj
 0001:00034b30       ?OnConnectionAsk@CNetworkDlg@@IAEXXZ 00435b30 f   NetworkDlg.obj
 0001:00034b70       ?OnChangeSntpDuration@CNetworkDlg@@IAEXXZ 00435b70 f   NetworkDlg.obj
 0001:00034bc0       ?OnSntpAutoClick@CNetworkDlg@@IAEXXZ 00435bc0 f   NetworkDlg.obj
 0001:00034c20       ?OnSntpCheck@CNetworkDlg@@IAEXXZ 00435c20 f   NetworkDlg.obj
 0001:00034c40       ?OnHttpCheck@CNetworkDlg@@IAEXXZ 00435c40 f   NetworkDlg.obj
 0001:00034c60       ?OnChangeSntpAddress@CNetworkDlg@@IAEXXZ 00435c60 f   NetworkDlg.obj
 0001:00034cb0       ?OnChangeHttpAddress@CNetworkDlg@@IAEXXZ 00435cb0 f   NetworkDlg.obj
 0001:00034d00       ?OnSelchangeSntpAddress@CNetworkDlg@@IAEXXZ 00435d00 f   NetworkDlg.obj
 0001:00034db0       ?OnSelchangeHttpAddress@CNetworkDlg@@IAEXXZ 00435db0 f   NetworkDlg.obj
 0001:00034dd0       ?OnSelChangeProxyType@CNetworkDlg@@IAEXXZ 00435dd0 f   NetworkDlg.obj
 0001:00034df0       ?SetProxySettingFromCombo@CNetworkDlg@@AAEXXZ 00435df0 f   NetworkDlg.obj
 0001:00034e40       ?OnSelchangeProtocol@CNetworkDlg@@IAEXXZ 00435e40 f   NetworkDlg.obj
 0001:00034e80       ?OnSslVerify@CNetworkDlg@@IAEXXZ 00435e80 f   NetworkDlg.obj
 0001:00034eb0       ?CreateObject@CNetworkExtDlg@@SGPAVCObject@@XZ 00435eb0 f   NetworkExtDlg.obj
 0001:00034f10       ?GetRuntimeClass@CNetworkExtDlg@@UBEPAUCRuntimeClass@@XZ 00435f10 f   NetworkExtDlg.obj
 0001:00034f20       ??0CNetworkExtDlg@@QAE@PAVCWnd@@@Z 00435f20 f   NetworkExtDlg.obj
 0001:00035060       ??_ECNetworkExtDlg@@UAEPAXI@Z 00436060 f i NetworkExtDlg.obj
 0001:00035060       ??_GCNetworkExtDlg@@UAEPAXI@Z 00436060 f i NetworkExtDlg.obj
 0001:00035090       ??1CNetworkExtDlg@@UAE@XZ  00436090 f i NetworkExtDlg.obj
 0001:00035180       ?DoDataExchange@CNetworkExtDlg@@MAEXPAVCDataExchange@@@Z 00436180 f   NetworkExtDlg.obj
 0001:00035250       ?GetMessageMap@CNetworkExtDlg@@MBEPBUAFX_MSGMAP@@XZ 00436250 f   NetworkExtDlg.obj
 0001:00035260       ?OnInitDialog@CNetworkExtDlg@@MAEHXZ 00436260 f   NetworkExtDlg.obj
 0001:00035550       ?OnDestroy@CNetworkExtDlg@@IAEXXZ 00436550 f   NetworkExtDlg.obj
 0001:00035590       ?OnAutoheadline@CNetworkExtDlg@@IAEXXZ 00436590 f   NetworkExtDlg.obj
 0001:00035630       ?OnChangeHeadlineInterval@CNetworkExtDlg@@IAEXXZ 00436630 f   NetworkExtDlg.obj
 0001:00035690       ?OnHeadlinePlay@CNetworkExtDlg@@IAEXXZ 00436690 f   NetworkExtDlg.obj
 0001:00035700       ?OnHeadlineNone@CNetworkExtDlg@@IAEXXZ 00436700 f   NetworkExtDlg.obj
 0001:00035720       ?OnHeadlineBrowse@CNetworkExtDlg@@IAEXXZ 00436720 f   NetworkExtDlg.obj
 0001:00035840       ?OnChangeHeadlineSoundpath@CNetworkExtDlg@@IAEXXZ 00436840 f   NetworkExtDlg.obj
 0001:00035890       ?OnSstpAdd@CNetworkExtDlg@@IAEXXZ 00436890 f   NetworkExtDlg.obj
 0001:000359f0       ?OnSstpDel@CNetworkExtDlg@@IAEXXZ 004369f0 f   NetworkExtDlg.obj
 0001:00035a50       ?OnSstpOnOff@CNetworkExtDlg@@IAEXXZ 00436a50 f   NetworkExtDlg.obj
 0001:00035ac0       ?OnDblclkSstpList@CNetworkExtDlg@@IAEXPAUtagNMHDR@@PAJ@Z 00436ac0 f   NetworkExtDlg.obj
 0001:00035ae0       ?OnRclickSstpList@CNetworkExtDlg@@IAEXPAUtagNMHDR@@PAJ@Z 00436ae0 f   NetworkExtDlg.obj
 0001:00035c40       ?InitSSTPList@CNetworkExtDlg@@AAEXXZ 00436c40 f   NetworkExtDlg.obj
 0001:00035e20       ?OnSelchangeGhostBoot@CNetworkExtDlg@@IAEXXZ 00436e20 f   NetworkExtDlg.obj
 0001:00035e70       ?OnSelchangeAfterBoot@CNetworkExtDlg@@IAEXXZ 00436e70 f   NetworkExtDlg.obj
 0001:00036040       ?OnListInstalledToFmo@CNetworkExtDlg@@IAEXXZ 00437040 f   NetworkExtDlg.obj
 0001:00036090       ?OnChangeTmpghostMax@CNetworkExtDlg@@IAEXXZ 00437090 f   NetworkExtDlg.obj
 0001:000360f0       ?OnChangeTmpghostInterval@CNetworkExtDlg@@IAEXXZ 004370f0 f   NetworkExtDlg.obj
 0001:00036140       ?StateChangeSSTP@CNetworkExtDlg@@AAEXXZ 00437140 f   NetworkExtDlg.obj
 0001:000361b0       ?OnSstpLog@CNetworkExtDlg@@IAEXXZ 004371b0 f   NetworkExtDlg.obj
 0001:00036330       ?OnNoBlockChoice@CNetworkExtDlg@@IAEXXZ 00437330 f   NetworkExtDlg.obj
 0001:00036370       ?OnHeadlineCountManualUpdate@CNetworkExtDlg@@IAEXXZ 00437370 f   NetworkExtDlg.obj
 0001:000363a0       ?Load@CPlaySSFData@@QAE_NPBD@Z 004373a0 f   PlaySSFDlg.obj
 0001:00036980       ?Play@CPlaySSFData@@QAEXXZ 00437980 f   PlaySSFDlg.obj
 0001:000369c0       ?PlayProc@CPlaySSFData@@QAEXPCH@Z 004379c0 f   PlaySSFDlg.obj
 0001:00036a50       ?PlayProcReal@CPlaySSFData@@AAEXPCH@Z 00437a50 f   PlaySSFDlg.obj
 0001:00037040       ?Cancel@CPlaySSFData@@QAEXXZ 00438040 f   PlaySSFDlg.obj
 0001:00037070       ??0CPlaySSFDlg@@QAE@PAVCWnd@@@Z 00438070 f   PlaySSFDlg.obj
 0001:000370a0       ??_GCPlaySSFDlg@@UAEPAXI@Z 004380a0 f i PlaySSFDlg.obj
 0001:000370a0       ??_ECPlaySSFDlg@@UAEPAXI@Z 004380a0 f i PlaySSFDlg.obj
 0001:000370d0       ??1CPlaySSFDlg@@UAE@XZ     004380d0 f   PlaySSFDlg.obj
 0001:00037240       ?DoDataExchange@CDevPalette@@MAEXPAVCDataExchange@@@Z 00438240 f   PlaySSFDlg.obj
 0001:00037240       ?DoDataExchange@CPlaySSFDlg@@MAEXPAVCDataExchange@@@Z 00438240 f   PlaySSFDlg.obj
 0001:00037240       ?DoDataExchange@CDirectoryDrop@@MAEXPAVCDataExchange@@@Z 00438240 f   PlaySSFDlg.obj
 0001:00037240       ?DoDataExchange@CExtAppDlg@@MAEXPAVCDataExchange@@@Z 00438240 f   PlaySSFDlg.obj
 0001:00037250       ?GetMessageMap@CPlaySSFDlg@@MBEPBUAFX_MSGMAP@@XZ 00438250 f   PlaySSFDlg.obj
 0001:00037260       ?OnInitDialog@CPlaySSFDlg@@MAEHXZ 00438260 f   PlaySSFDlg.obj
 0001:000372e0       ?CreateMe@CPlaySSFDlg@@QAE_NXZ 004382e0 f   PlaySSFDlg.obj
 0001:00037570       ?PlaySSF@CPlaySSFDlg@@QAEXPBVJString@@@Z 00438570 f   PlaySSFDlg.obj
 0001:00037830       ?OnPlay@CPlaySSFDlg@@IAEXXZ 00438830 f   PlaySSFDlg.obj
 0001:00037850       ?OnCancel@CPlaySSFDlg@@MAEXXZ 00438850 f   PlaySSFDlg.obj
 0001:000378c0       ?OnCtlColor@CPlaySSFDlg@@IAEPAUHBRUSH__@@PAVCDC@@PAVCWnd@@I@Z 004388c0 f   PlaySSFDlg.obj
 0001:00037900       ?OnCreateClick@CPlaySSFDlg@@IAEXXZ 00438900 f   PlaySSFDlg.obj
 0001:000379f0       ?OnSetCursor@CPlaySSFDlg@@IAEHPAVCWnd@@II@Z 004389f0 f   PlaySSFDlg.obj
 0001:00037a30       ?DeleteAllObject@?$JPtrArray@PAVCPlaySSFScript@@@@QAEXXZ 00438a30 f i PlaySSFDlg.obj
 0001:00037a80       ??_GCPlaySSFScript@@QAEPAXI@Z 00438a80 f i PlaySSFDlg.obj
 0001:00037ab0       ??1CPlaySSFScript@@QAE@XZ  00438ab0 f i PlaySSFDlg.obj
 0001:00037b00       ??0CPopAccountDlg@@QAE@PAVCWnd@@@Z 00438b00 f   PopAccountDlg.obj
 0001:00037c30       ??_ECPopAccountDlg@@UAEPAXI@Z 00438c30 f i PopAccountDlg.obj
 0001:00037c30       ??_GCPopAccountDlg@@UAEPAXI@Z 00438c30 f i PopAccountDlg.obj
 0001:00037c60       ??1CPopAccountDlg@@UAE@XZ  00438c60 f i PopAccountDlg.obj
 0001:00037d00       ?DoDataExchange@CPopAccountDlg@@MAEXPAVCDataExchange@@@Z 00438d00 f   PopAccountDlg.obj
 0001:00037e00       ?GetMessageMap@CPopAccountDlg@@MBEPBUAFX_MSGMAP@@XZ 00438e00 f   PopAccountDlg.obj
 0001:00037e10       ?OnInitDialog@CPopAccountDlg@@MAEHXZ 00438e10 f   PopAccountDlg.obj
 0001:00037f50       ?OnOK@CPopAccountDlg@@MAEXXZ 00438f50 f   PopAccountDlg.obj
 0001:00038080       ?OnPopPortDefault@CPopAccountDlg@@IAEXXZ 00439080 f   PopAccountDlg.obj
 0001:00038130       ?CreateObject@CPopDlg@@SGPAVCObject@@XZ 00439130 f   PopDlg.obj
 0001:00038190       ?GetRuntimeClass@CPopDlg@@UBEPAUCRuntimeClass@@XZ 00439190 f   PopDlg.obj
 0001:000381a0       ??0CPopDlg@@QAE@PAVCWnd@@@Z 004391a0 f   PopDlg.obj
 0001:00038210       ??_ECPopDlg@@UAEPAXI@Z     00439210 f i PopDlg.obj
 0001:00038210       ??_GCPopDlg@@UAEPAXI@Z     00439210 f i PopDlg.obj
 0001:00038240       ??1CPopDlg@@UAE@XZ         00439240 f i PopDlg.obj
 0001:00038290       ?DoDataExchange@CPopDlg@@MAEXPAVCDataExchange@@@Z 00439290 f   PopDlg.obj
 0001:000382b0       ?GetMessageMap@CPopDlg@@MBEPBUAFX_MSGMAP@@XZ 004392b0 f   PopDlg.obj
 0001:000382c0       ?GetListSel@CPopDlg@@QAEHXZ 004392c0 f   PopDlg.obj
 0001:00038300       ?OnInitDialog@CPopDlg@@MAEHXZ 00439300 f   PopDlg.obj
 0001:00038520       ?UpdateList@CPopDlg@@QAEXH@Z 00439520 f   PopDlg.obj
 0001:00038760       ?UpdateButtonState@CPopDlg@@QAEXXZ 00439760 f   PopDlg.obj
 0001:000388f0       ?OnPopAdd@CPopDlg@@IAEXXZ  004398f0 f   PopDlg.obj
 0001:00038ac0       ??_GSPPopAccountProfile@@UAEPAXI@Z 00439ac0 f i PopDlg.obj
 0001:00038ac0       ??_ESPPopAccountProfile@@UAEPAXI@Z 00439ac0 f i PopDlg.obj
 0001:00038af0       ??1SPPopAccountProfile@@UAE@XZ 00439af0 f i PopDlg.obj
 0001:00038b60       ?OnPopModify@CPopDlg@@IAEXXZ 00439b60 f   PopDlg.obj
 0001:00038d80       ??0JString@@QAE@ABV0@@Z    00439d80 f i PopDlg.obj
 0001:00038dd0       ?OnPopCopy@CPopDlg@@IAEXXZ 00439dd0 f   PopDlg.obj
 0001:00038e30       ?OnPopDel@CPopDlg@@IAEXXZ  00439e30 f   PopDlg.obj
 0001:00038e80       ?OnFolderUp@CPopDlg@@IAEXXZ 00439e80 f   PopDlg.obj
 0001:00038ec0       ?OnFolderDown@CPopDlg@@IAEXXZ 00439ec0 f   PopDlg.obj
 0001:00038f10       ?OnCheckMailHeader@CPopDlg@@IAEXXZ 00439f10 f   PopDlg.obj
 0001:00038f50       ?OnCheckNotifyOnlyNew@CPopDlg@@IAEXXZ 00439f50 f   PopDlg.obj
 0001:00038f80       ?OnCheckNotifyWhenNew@CPopDlg@@IAEXXZ 00439f80 f   PopDlg.obj
 0001:00038fb0       ?OnPopPlay@CPopDlg@@IAEXXZ 00439fb0 f   PopDlg.obj
 0001:00039080       ?OnPopNone@CPopDlg@@IAEXXZ 0043a080 f   PopDlg.obj
 0001:000390b0       ?OnPopBrowse@CPopDlg@@IAEXXZ 0043a0b0 f   PopDlg.obj
 0001:000391d0       ?OnChangePopSound@CPopDlg@@IAEXXZ 0043a1d0 f   PopDlg.obj
 0001:000392d0       ?OnDblclkPopList@CPopDlg@@IAEXPAUtagNMHDR@@PAJ@Z 0043a2d0 f   PopDlg.obj
 0001:000392f0       ?OnItemChangedPopList@CPopDlg@@IAEXPAUtagNMHDR@@PAJ@Z 0043a2f0 f   PopDlg.obj
 0001:00039390       ?OnDestroy@CPopDlg@@IAEXXZ 0043a390 f   PopDlg.obj
 0001:000393b0       ??0CProgressWnd@@QAE@XZ    0043a3b0 f   ProgressWnd.obj
 0001:000394b0       ??_GCProgressWnd@@UAEPAXI@Z 0043a4b0 f i ProgressWnd.obj
 0001:000394b0       ??_ECProgressWnd@@UAEPAXI@Z 0043a4b0 f i ProgressWnd.obj
 0001:000394e0       ??1CProgressWnd@@UAE@XZ    0043a4e0 f   ProgressWnd.obj
 0001:00039540       ?GetMessageMap@CProgressWnd@@MBEPBUAFX_MSGMAP@@XZ 0043a540 f   ProgressWnd.obj
 0001:00039550       ?CreateMe@CProgressWnd@@QAEHXZ 0043a550 f   ProgressWnd.obj
 0001:00039700       ?OnDestroy@CProgressWnd@@IAEXXZ 0043a700 f   ProgressWnd.obj
 0001:00039750       ?SetMsg@CProgressWnd@@QAEXPBG@Z 0043a750 f   ProgressWnd.obj
 0001:00039780       ?OnPaint@CProgressWnd@@IAEXXZ 0043a780 f   ProgressWnd.obj
 0001:00039920       ?GetMessageMap@CSakuraApp@@MBEPBUAFX_MSGMAP@@XZ 0043a920 f   sakura.obj
 0001:00039930       ??0CSakuraApp@@QAE@XZ      0043a930 f   sakura.obj
 0001:00039a00       ??_ECSakuraApp@@UAEPAXI@Z  0043aa00 f i sakura.obj
 0001:00039a00       ??_GCSakuraApp@@UAEPAXI@Z  0043aa00 f i sakura.obj
 0001:00039a30       ??1CSakuraApp@@UAE@XZ      0043aa30 f i sakura.obj
 0001:00039b90       ?InitInstance@CSakuraApp@@UAEHXZ 0043ab90 f   sakura.obj
 0001:0003a820       ?ExitInstance@CSakuraApp@@UAEHXZ 0043b820 f   sakura.obj
 0001:0003a9a0       ?RegisterSSPWindowClasses@CSakuraApp@@AAEXXZ 0043b9a0 f   sakura.obj
 0001:0003aaa0       ?CallHtmlHelp@CSakuraApp@@QAEXPADIK@Z 0043baa0 f   sakura.obj
 0001:0003abb0       ?OnAppAbout@CSakuraApp@@QAEXXZ 0043bbb0 f   sakura.obj
 0001:0003ac50       ?LoadSmallIcon@CSakuraApp@@QAEPAUHICON__@@I@Z 0043bc50 f   sakura.obj
 0001:0003ac80       ?PreTranslateMessage@CSakuraApp@@UAEHPAUtagMSG@@@Z 0043bc80 f   sakura.obj
 0001:0003af80       ?ParseCommandLineX@CSakuraApp@@AAEXXZ 0043bf80 f   sakura.obj
 0001:0003b6f0       ?CreateSakuraMutex@CSakuraApp@@SAXXZ 0043c6f0 f   sakura.obj
 0001:0003b770       ?RegisterAllHotKey@CSakuraApp@@QAEXH@Z 0043c770 f   sakura.obj
 0001:0003b810       ?GetArgvTable@CSakuraApp@@QAEPBGG@Z 0043c810 f   sakura.obj
 0001:0003b870       ??0CSakuraDropTarget@@QAE@XZ 0043c870 f   SakuraDropTarget.obj
 0001:0003b890       ??_ECSakuraDropTarget@@UAEPAXI@Z 0043c890 f i SakuraDropTarget.obj
 0001:0003b890       ??_GCSakuraDropTarget@@UAEPAXI@Z 0043c890 f i SakuraDropTarget.obj
 0001:0003b8c0       ??1CSakuraDropTarget@@UAE@XZ 0043c8c0 f   SakuraDropTarget.obj
 0001:0003b8d0       ?OnDragEnter@CSakuraDropTarget@@UAEKPAVCWnd@@PAVCOleDataObject@@KVCPoint@@@Z 0043c8d0 f   SakuraDropTarget.obj
 0001:0003bb10       ?OnDragOver@CSakuraDropTarget@@UAEKPAVCWnd@@PAVCOleDataObject@@KVCPoint@@@Z 0043cb10 f   SakuraDropTarget.obj
 0001:0003bbc0       ?OnDrop@CSakuraDropTarget@@UAEHPAVCWnd@@PAVCOleDataObject@@KVCPoint@@@Z 0043cbc0 f   SakuraDropTarget.obj
 0001:0003c0a0       ?RegisterGhost@CSakuraDropTarget@@QAEHPAVCWnd@@PAVSPGhost@@H@Z 0043d0a0 f   SakuraDropTarget.obj
 0001:0003c0e0       ?Revoke@CSakuraDropTarget@@UAEXXZ 0043d0e0 f   SakuraDropTarget.obj
 0001:0003c0f0       ??0CSakuraWnd@@QAE@XZ      0043d0f0 f   SakuraWnd.obj
 0001:0003c2e0       ??_GCSakuraWnd@@UAEPAXI@Z  0043d2e0 f i SakuraWnd.obj
 0001:0003c2e0       ??_ECSakuraWnd@@UAEPAXI@Z  0043d2e0 f i SakuraWnd.obj
 0001:0003c310       ??1CSakuraWnd@@UAE@XZ      0043d310 f   SakuraWnd.obj
 0001:0003c470       ?GetMessageMap@CSakuraWnd@@MBEPBUAFX_MSGMAP@@XZ 0043d470 f   SakuraWnd.obj
 0001:0003c480       ?OnCreate@CSakuraWnd@@IAEHPAUtagCREATESTRUCTA@@@Z 0043d480 f   SakuraWnd.obj
 0001:0003c500       ?OnCreateAfter@CSakuraWnd@@QAEXXZ 0043d500 f   SakuraWnd.obj
 0001:0003c630       ?InitSharedMem@CSakuraWnd@@AAEXXZ 0043d630 f   SakuraWnd.obj
 0001:0003c680       ?ModifyCheck@CSakuraWnd@@AAEXXZ 0043d680 f   SakuraWnd.obj
 0001:0003c710       ?InitAtBoot@CSakuraWnd@@QAEXXZ 0043d710 f   SakuraWnd.obj
 0001:0003c7a0       ?UpdateAllBindMenu@CSakuraWnd@@QAEXXZ 0043d7a0 f   SakuraWnd.obj
 0001:0003c7f0       ?ResetTimeData@CSakuraWnd@@AAEXXZ 0043d7f0 f   SakuraWnd.obj
 0001:0003c850       ?OnLButtonDblClk@CSakuraWnd@@IAEXIVCPoint@@@Z 0043d850 f   SakuraWnd.obj
 0001:0003ca10       ?OnMouseMove@CSakuraWnd@@IAEXIVCPoint@@@Z 0043da10 f   SakuraWnd.obj
 0001:0003cb50       ?ModifyPopupMenu@CSakuraWnd@@UAEXXZ 0043db50 f   SakuraWnd.obj
 0001:0003d300       ?GetEnableState@CSakuraWnd@@AAEHXZ 0043e300 f   SakuraWnd.obj
 0001:0003d350       ?ModifyPopupMenuEnableStateSakura@CSakuraWnd@@AAEX_N@Z 0043e350 f   SakuraWnd.obj
 0001:0003d710       ?OnMenuExit@CSakuraWnd@@IAEXXZ 0043e710 f   SakuraWnd.obj
 0001:0003d750       ?OnMenuClose@CSakuraWnd@@IAEXXZ 0043e750 f   SakuraWnd.obj
 0001:0003d7c0       ?CloseGhostProc@CSakuraWnd@@QAEXPBG_N@Z 0043e7c0 f   SakuraWnd.obj
 0001:0003daa0       ?OnCommand@CSakuraWnd@@MAEHIJ@Z 0043eaa0 f   SakuraWnd.obj
 0001:0003e950       ?OnLoadBalloon@CSakuraWnd@@QAEXXZ 0043f950 f   SakuraWnd.obj
 0001:0003eb00       ?GetDefaultWndPosX@CSakuraWnd@@UAEHAAJAAVJRect@@1AAVJPoint@@@Z 0043fb00 f   SakuraWnd.obj
 0001:0003eb40       ?TimerExec@CSakuraWnd@@QAEHK@Z 0043fb40 f   SakuraWnd.obj
 0001:0003f070       ?UpdateAllWndPos@CSakuraWnd@@QAEXI@Z 00440070 f   SakuraWnd.obj
 0001:0003f0f0       ?UpdateWndRecommendation@CSakuraWnd@@UAEXXZ 004400f0 f   SakuraWnd.obj
 0001:0003f380       ?UpdateGhostState@CSakuraWnd@@QAEXJH@Z 00440380 f   SakuraWnd.obj
 0001:0003f430       ?InitShellMenu@CSakuraWnd@@QAEXH@Z 00440430 f   SakuraWnd.obj
 0001:0003f560       ?OnMenuSetup@CSakuraWnd@@IAEXXZ 00440560 f   SakuraWnd.obj
 0001:0003f580       ?OnMenuTopmost@CSakuraWnd@@IAEXXZ 00440580 f   SakuraWnd.obj
 0001:0003f5c0       ?ToggleTopMost@CSakuraWnd@@QAEXH@Z 004405c0 f   SakuraWnd.obj
 0001:0003f630       ?OnMenuUpdate@CSakuraWnd@@IAEXXZ 00440630 f   SakuraWnd.obj
 0001:0003f660       ?OnMenuVersion@CSakuraWnd@@IAEXXZ 00440660 f   SakuraWnd.obj
 0001:0003f670       ?OnMenuMinimize@CSakuraWnd@@IAEXXZ 00440670 f   SakuraWnd.obj
 0001:0003f6f0       ?ToggleMinimize@CSakuraWnd@@QAEXH@Z 004406f0 f   SakuraWnd.obj
 0001:0003f830       ?RestoreAll@CSakuraWnd@@QAEXXZ 00440830 f   SakuraWnd.obj
 0001:0003f8c0       ?MinimizeAll@CSakuraWnd@@QAEXXZ 004408c0 f   SakuraWnd.obj
 0001:0003f990       ?WindowProc@CSakuraWnd@@MAEJIIJ@Z 00440990 f   SakuraWnd.obj
 0001:0003fa90       ?OnTaskTray@CSakuraWnd@@IAEJIJ@Z 00440a90 f   SakuraWnd.obj
 0001:0003fd10       ?OnSakuraAPI@CSakuraWnd@@IAEJIJ@Z 00440d10 f   SakuraWnd.obj
 0001:00040530       ?ScreenSaverStateChanged@CSakuraWnd@@QAEXH@Z 00441530 f   SakuraWnd.obj
 0001:000407c0       ??1SPVersionInfo@@QAE@XZ   004417c0 f i SakuraWnd.obj
 0001:000407d0       ?OnSSPSysMsg@CSakuraWnd@@IAEJIJ@Z 004417d0 f   SakuraWnd.obj
 0001:00041110       ?CreateInputBox@CSakuraWnd@@AAEHPAVSPInputWndDispInfo@@@Z 00442110 f   SakuraWnd.obj
 0001:00041430       ?CloseInputBox@CSakuraWnd@@AAEHPAVSPInputWndDispInfo@@@Z 00442430 f   SakuraWnd.obj
 0001:000414e0       ?InitHistoryMenu@CSakuraWnd@@QAEXK@Z 004424e0 f   SakuraWnd.obj
 0001:000419e0       ?InitGhostMenu@CSakuraWnd@@QAEXH@Z 004429e0 f   SakuraWnd.obj
 0001:00041ca0       ?InitBalloonMenu@CSakuraWnd@@QAEXH@Z 00442ca0 f   SakuraWnd.obj
 0001:00041e50       ?InitHeadlineMenu@CSakuraWnd@@QAEXH@Z 00442e50 f   SakuraWnd.obj
 0001:00041f90       ?InitHeadlineMenuCheck@CSakuraWnd@@QAEXH@Z 00442f90 f   SakuraWnd.obj
 0001:00042010       ?InitPluginMenu@CSakuraWnd@@QAEXH@Z 00443010 f   SakuraWnd.obj
 0001:00042130       ?InitPluginMenuEnable@CSakuraWnd@@QAEXXZ 00443130 f   SakuraWnd.obj
 0001:000421d0       ?InitLanguageMenu@CSakuraWnd@@QAEXXZ 004431d0 f   SakuraWnd.obj
 0001:00042360       ?InitCheckMailMenu@CSakuraWnd@@QAEXXZ 00443360 f   SakuraWnd.obj
 0001:000424a0       ?InitScalingMenu@CSakuraWnd@@QAEXXZ 004434a0 f   SakuraWnd.obj
 0001:000425b0       ?OnMenuScript@CSakuraWnd@@IAEXXZ 004435b0 f   SakuraWnd.obj
 0001:000425d0       ?OnMenuResetpos@CSakuraWnd@@IAEXXZ 004435d0 f   SakuraWnd.obj
 0001:00042700       ?OnMenuResetBalloon@CSakuraWnd@@IAEXXZ 00443700 f   SakuraWnd.obj
 0001:00042710       ?OnMenuGhostinfo@CSakuraWnd@@IAEXXZ 00443710 f   SakuraWnd.obj
 0001:00042730       ?OnCopyData@CSakuraWnd@@IAEHPAVCWnd@@PAUtagCOPYDATASTRUCT@@@Z 00443730 f   SakuraWnd.obj
 0001:00042750       ?OnCopyDataSSTP@CSakuraWnd@@QAEHPAUHWND__@@PAUtagCOPYDATASTRUCT@@H@Z 00443750 f   SakuraWnd.obj
 0001:00042840       ?OnMenuCalendar@CSakuraWnd@@IAEXXZ 00443840 f   SakuraWnd.obj
 0001:00042860       ?CCalendarWnd_UpdateSkinMenu@@YAXXZ 00443860 f   SakuraWnd.obj
 0001:00042890       ?CCalendarWnd_UpdateSensorMenu@@YAXXZ 00443890 f   SakuraWnd.obj
 0001:000428c0       ?OnMenuGhosttime@CSakuraWnd@@IAEXXZ 004438c0 f   SakuraWnd.obj
 0001:000428d0       ?OnMenuIm@CSakuraWnd@@IAEXXZ 004438d0 f   SakuraWnd.obj
 0001:000428e0       ?OnMenuCompatibleMode@CSakuraWnd@@IAEXXZ 004438e0 f   SakuraWnd.obj
 0001:00042900       ?OnMenuTalkshiori@CSakuraWnd@@IAEXXZ 00443900 f   SakuraWnd.obj
 0001:00042950       ?OnMenuSound@CSakuraWnd@@IAEXXZ 00443950 f   SakuraWnd.obj
 0001:000429a0       ?OnMenuBalloonMove@CSakuraWnd@@IAEXXZ 004439a0 f   SakuraWnd.obj
 0001:000429f0       ?OnMenuUninstall@CSakuraWnd@@IAEXXZ 004439f0 f   SakuraWnd.obj
 0001:00042a50       ?CreateCharacter@CSakuraWnd@@QAEHHH@Z 00443a50 f   SakuraWnd.obj
 0001:00042c00       ?OnDestroy@CSakuraWnd@@IAEXXZ 00443c00 f   SakuraWnd.obj
 0001:00042d80       ?SaveWndPos@CSakuraWnd@@QAEXXZ 00443d80 f   SakuraWnd.obj
 0001:00042f10       ?OnMenuLeavepassive@CSakuraWnd@@IAEXXZ 00443f10 f   SakuraWnd.obj
 0001:00042f30       ?OnMenuHelp@CSakuraWnd@@IAEXXZ 00443f30 f   SakuraWnd.obj
 0001:00042f50       ?OnMenuPopAllcheck@CSakuraWnd@@IAEXXZ 00443f50 f   SakuraWnd.obj
 0001:00042f80       ?GetAllCharWindow@CSakuraWnd@@QAEXAAV?$JArray@PAX@@@Z 00443f80 f   SakuraWnd.obj
 0001:00043170       ?GetAllInputWindow@CSakuraWnd@@QAEXAAV?$JArray@PAX@@@Z 00444170 f   SakuraWnd.obj
 0001:000432a0       ?SetAllCharWindowPos@CSakuraWnd@@AAEXPAUHWND__@@K@Z 004442a0 f   SakuraWnd.obj
 0001:00043350       ?SetAllInputWindowPos@CSakuraWnd@@AAEXPAUHWND__@@K@Z 00444350 f   SakuraWnd.obj
 0001:000433e0       ?ActivateAllWindow@CSakuraWnd@@QAEXXZ 004443e0 f   SakuraWnd.obj
 0001:00043420       ?OnClose@CSakuraWnd@@IAEXXZ 00444420 f   SakuraWnd.obj
 0001:00043430       ?LoadTrayIcon@CSakuraWnd@@AAEXPAVSPTrayIconInfo@@_N@Z 00444430 f   SakuraWnd.obj
 0001:00043790       ?ReloadTrayIcon@CSakuraWnd@@AAEXPAVSPTrayIconInfo@@@Z 00444790 f   SakuraWnd.obj
 0001:000437c0       ?DestroyTrayIcon@CSakuraWnd@@AAEXXZ 004447c0 f   SakuraWnd.obj
 0001:00043840       ?ShowTrayIcon@CSakuraWnd@@QAEXHH@Z 00444840 f   SakuraWnd.obj
 0001:00043890       ?OnMenuCloseBalloon@CSakuraWnd@@IAEXXZ 00444890 f   SakuraWnd.obj
 0001:000438a0       ?OnMenuExplorer@CSakuraWnd@@IAEXXZ 004448a0 f   SakuraWnd.obj
 0001:000438b0       ?OnMenuSntp@CSakuraWnd@@IAEXXZ 004448b0 f   SakuraWnd.obj
 0001:00043900       ?OnMenuScriptLog@CSakuraWnd@@IAEXXZ 00444900 f   SakuraWnd.obj
 0001:00043920       ?OnMenuReloadGhost@CSakuraWnd@@IAEXXZ 00444920 f   SakuraWnd.obj
 0001:00043950       ?InitMenu@CSakuraWnd@@QAEXXZ 00444950 f   SakuraWnd.obj
 0001:000439a0       ?GetCharWnd@CSakuraWnd@@QAEPAVCCharWndCode@@K@Z 004449a0 f   SakuraWnd.obj
 0001:00043a00       ?AllMenuUpdate@CSakuraWnd@@QAEXXZ 00444a00 f   SakuraWnd.obj
 0001:00043ab0       ?OnMenuPurgeGhostCache@CSakuraWnd@@IAEXXZ 00444ab0 f   SakuraWnd.obj
 0001:00043af0       ?OnMenuSurfaceTest@CSakuraWnd@@IAEXXZ 00444af0 f   SakuraWnd.obj
 0001:00043d10       ?OnMenuDeveloper@CSakuraWnd@@IAEXXZ 00444d10 f   SakuraWnd.obj
 0001:00043df0       ?OnMenuAddressBar@CSakuraWnd@@IAEXXZ 00444df0 f   SakuraWnd.obj
 0001:00043e10       ?OnMenuDefinedSurfaceOnly@CSakuraWnd@@IAEXXZ 00444e10 f   SakuraWnd.obj
 0001:00043e60       ?OnMenuIgnoreMove@CSakuraWnd@@IAEXXZ 00444e60 f   SakuraWnd.obj
 0001:00043eb0       ?OnMenuForceAlign@CSakuraWnd@@AAEXH@Z 00444eb0 f   SakuraWnd.obj
 0001:00043f20       ?ModifyCheckMFA@CSakuraWnd@@AAEXXZ 00444f20 f   SakuraWnd.obj
 0001:00043f60       ?OnMenuForceAlignFree@CSakuraWnd@@IAEXXZ 00444f60 f   SakuraWnd.obj
 0001:00043f80       ?OnMenuForceAlignLimit@CSakuraWnd@@IAEXXZ 00444f80 f   SakuraWnd.obj
 0001:00043fa0       ?OnMenuForceAlignOff@CSakuraWnd@@IAEXXZ 00444fa0 f   SakuraWnd.obj
 0001:00043fc0       ?OnMenuUpdateFmo@CSakuraWnd@@IAEXXZ 00444fc0 f   SakuraWnd.obj
 0001:00043fe0       ?OnMenuReloadInfo@CSakuraWnd@@IAEXXZ 00444fe0 f   SakuraWnd.obj
 0001:00044000       ?OnMenuLangReset@CSakuraWnd@@IAEXXZ 00445000 f   SakuraWnd.obj
 0001:00044040       ?OnMenuResetToDefault@CSakuraWnd@@IAEXXZ 00445040 f   SakuraWnd.obj
 0001:00044150       ?OnMenuActivate@CSakuraWnd@@AAEXH@Z 00445150 f   SakuraWnd.obj
 0001:000441a0       ?ModifyCheckMAT@CSakuraWnd@@AAEXXZ 004451a0 f   SakuraWnd.obj
 0001:00044200       ?OnMenuActivateOff@CSakuraWnd@@IAEXXZ 00445200 f   SakuraWnd.obj
 0001:00044220       ?OnMenuActivateExceptUpdate@CSakuraWnd@@IAEXXZ 00445220 f   SakuraWnd.obj
 0001:00044240       ?OnMenuActivateWhenTalk@CSakuraWnd@@IAEXXZ 00445240 f   SakuraWnd.obj
 0001:00044260       ?OnMenuDeActivate@CSakuraWnd@@IAEXXZ 00445260 f   SakuraWnd.obj
 0001:000442d0       ?OnMenuCharset@CSakuraWnd@@IAEXXZ 004452d0 f   SakuraWnd.obj
 0001:00044590       ?OnMenuKeepTempGhost@CSakuraWnd@@IAEXXZ 00445590 f   SakuraWnd.obj
 0001:000445f0       ?OnMenuSystemInfo@CSakuraWnd@@IAEXXZ 004455f0 f   SakuraWnd.obj
 0001:000446c0       ?HandleDrop@CSakuraWnd@@AAEHPAVSPMultiFile@@@Z 004456c0 f   SakuraWnd.obj
 0001:00044880       ?HandleDropFile@CSakuraWnd@@AAEHPAVSPMultiFile@@@Z 00445880 f   SakuraWnd.obj
 0001:00044be0       ?HandleDropDirectory@CSakuraWnd@@AAEHPAVSPMultiFile@@@Z 00445be0 f   SakuraWnd.obj
 0001:00044ee0       ??_ESPPluginEvent@@UAEPAXI@Z 00445ee0 f i SakuraWnd.obj
 0001:00044ee0       ??_GSPPluginEvent@@UAEPAXI@Z 00445ee0 f i SakuraWnd.obj
 0001:00044f10       ?OnMenuScalingFree@CSakuraWnd@@IAEXXZ 00445f10 f   SakuraWnd.obj
 0001:00045270       ??1CScalingDlg@@UAE@XZ     00446270 f i SakuraWnd.obj
 0001:000452f0       ?SetScaling@CSakuraWnd@@AAEXJJPAUHMENU__@@@Z 004462f0 f   SakuraWnd.obj
 0001:00045440       ?OnMenuProxy@CSakuraWnd@@IAEXXZ 00446440 f   SakuraWnd.obj
 0001:000454b0       ?OnMenuCheckUpdate@CSakuraWnd@@IAEXXZ 004464b0 f   SakuraWnd.obj
 0001:000454d0       ?PreTranslateMessage@CSakuraWnd@@UAEHPAUtagMSG@@@Z 004464d0 f   SakuraWnd.obj
 0001:00045500       ?OnMenuOpenFile@CSakuraWnd@@IAEXXZ 00446500 f   SakuraWnd.obj
 0001:00045630       ?OnMenuOpenDir@CSakuraWnd@@IAEXXZ 00446630 f   SakuraWnd.obj
 0001:000457c0       ?Add@?$JArray@PAX@@QAEKK@Z 004467c0 f i SakuraWnd.obj
 0001:000458a0       ??_ECSakuraWnd@@WDM@AEPAXI@Z 004468a0 f i SakuraWnd.obj
 0001:000458b0       ??0CScalingDlg@@QAE@PAVCWnd@@@Z 004468b0 f   ScalingDlg.obj
 0001:00045990       ??_GCScalingDlg@@UAEPAXI@Z 00446990 f i ScalingDlg.obj
 0001:00045990       ??_ECScalingDlg@@UAEPAXI@Z 00446990 f i ScalingDlg.obj
 0001:000459c0       ?DoDataExchange@CScalingDlg@@MAEXPAVCDataExchange@@@Z 004469c0 f   ScalingDlg.obj
 0001:00045a10       ?GetMessageMap@CScalingDlg@@MBEPBUAFX_MSGMAP@@XZ 00446a10 f   ScalingDlg.obj
 0001:00045a20       ?Init@CScalingDlg@@QAEXJJPBG@Z 00446a20 f   ScalingDlg.obj
 0001:00045ab0       ?OnInitDialog@CScalingDlg@@MAEHXZ 00446ab0 f   ScalingDlg.obj
 0001:00045bf0       ?OnOK@CScalingDlg@@MAEXXZ  00446bf0 f   ScalingDlg.obj
 0001:00045d10       ?OnCancel@CScalingDlg@@MAEXXZ 00446d10 f   ScalingDlg.obj
 0001:00045d20       ?OnXY@CScalingDlg@@IAEXXZ  00446d20 f   ScalingDlg.obj
 0001:00045d50       ??0CScheduleDlg@@QAE@PAVCWnd@@@Z 00446d50 f   ScheduleDlg.obj
 0001:00045e10       ??_ECListBox@@UAEPAXI@Z    00446e10 f i ScheduleDlg.obj
 0001:00045e10       ??_GCListBox@@UAEPAXI@Z    00446e10 f i ScheduleDlg.obj
 0001:00045e40       ??_ECScheduleDlg@@UAEPAXI@Z 00446e40 f i ScheduleDlg.obj
 0001:00045e40       ??_GCScheduleDlg@@UAEPAXI@Z 00446e40 f i ScheduleDlg.obj
 0001:00045e70       ??1CScheduleDlg@@UAE@XZ    00446e70 f i ScheduleDlg.obj
 0001:00045f00       ?DoDataExchange@CScheduleDlg@@MAEXPAVCDataExchange@@@Z 00446f00 f   ScheduleDlg.obj
 0001:00045f70       ?GetMessageMap@CScheduleDlg@@MBEPBUAFX_MSGMAP@@XZ 00446f70 f   ScheduleDlg.obj
 0001:00045f80       ?UpdateButtonState@CScheduleDlg@@IAEXH@Z 00446f80 f   ScheduleDlg.obj
 0001:00046000       ?OnScheduleDelete@CScheduleDlg@@IAEXXZ 00447000 f   ScheduleDlg.obj
 0001:000460b0       ?OnDatetimechangeScheduleEndtime@CScheduleDlg@@IAEXPAUtagNMHDR@@PAJ@Z 004470b0 f   ScheduleDlg.obj
 0001:00046160       ?OnScheduleNew@CScheduleDlg@@IAEXXZ 00447160 f   ScheduleDlg.obj
 0001:000461b0       ?OnScheduleNotime@CScheduleDlg@@IAEXXZ 004471b0 f   ScheduleDlg.obj
 0001:000461f0       ?OnDatetimechangeScheduleTime@CScheduleDlg@@IAEXPAUtagNMHDR@@PAJ@Z 004471f0 f   ScheduleDlg.obj
 0001:00046260       ?OnSelchangeScheduleType@CScheduleDlg@@IAEXXZ 00447260 f   ScheduleDlg.obj
 0001:000462e0       ?OnInitDialog@CScheduleDlg@@MAEHXZ 004472e0 f   ScheduleDlg.obj
 0001:00046540       ?UpdateList@CScheduleDlg@@IAEXXZ 00447540 f   ScheduleDlg.obj
 0001:000466b0       ?InitControls@CScheduleDlg@@IAEXXZ 004476b0 f   ScheduleDlg.obj
 0001:00046950       ?ClearControls@CScheduleDlg@@IAEXXZ 00447950 f   ScheduleDlg.obj
 0001:000469d0       ?OnScheduleUpdate@CScheduleDlg@@IAEXXZ 004479d0 f   ScheduleDlg.obj
 0001:00046d90       ?OnSelchangeScheduleList@CScheduleDlg@@IAEXXZ 00447d90 f   ScheduleDlg.obj
 0001:00046e00       ?OnSoundBrowse@CScheduleDlg@@IAEXXZ 00447e00 f   ScheduleDlg.obj
 0001:00046f20       ?OnSchedulepost@CScheduleDlg@@IAEXXZ 00447f20 f   ScheduleDlg.obj
 0001:00046f80       ?OnDestroy@CScheduleDlg@@IAEXXZ 00447f80 f   ScheduleDlg.obj
 0001:00046fa0       ?OnCommand@CScheduleDlg@@MAEHIJ@Z 00447fa0 f   ScheduleDlg.obj
 0001:00046fd0       ?OnCancel@CMessengerDlg@@MAEXXZ 00447fd0 f   ScheduleDlg.obj
 0001:00046fd0       ?OnCancel@CScheduleDlg@@MAEXXZ 00447fd0 f   ScheduleDlg.obj
 0001:00046fd0       ?OnCancel@CLog@@MAEXXZ     00447fd0 f   ScheduleDlg.obj
 0001:00046fd0       ?OnCancel@CSSPProperty@@MAEXXZ 00447fd0 f   ScheduleDlg.obj
 0001:00046fd0       ?OnClose@CSSPProperty@@IAEXXZ 00447fd0 f   ScheduleDlg.obj
 0001:00046fd0       ?OnClose@CLog@@IAEXXZ      00447fd0 f   ScheduleDlg.obj
 0001:00046fd0       ?OnOkbutton@CScheduleDlg@@IAEXXZ 00447fd0 f   ScheduleDlg.obj
 0001:00046fd0       ?OnCancel@CListDialog@@MAEXXZ 00447fd0 f   ScheduleDlg.obj
 0001:00046fd0       ?OnClose@CScheduleDlg@@IAEXXZ 00447fd0 f   ScheduleDlg.obj
 0001:00046fd0       ?OnClose@CMessengerDlg@@IAEXXZ 00447fd0 f   ScheduleDlg.obj
 0001:00046fd0       ?OnClose@CListDialog@@IAEXXZ 00447fd0 f   ScheduleDlg.obj
 0001:00046fe0       ?CreateObject@CSetupDefDlg@@SGPAVCObject@@XZ 00447fe0 f   SetupDefDlg.obj
 0001:00047040       ?GetRuntimeClass@CSetupDefDlg@@UBEPAUCRuntimeClass@@XZ 00448040 f   SetupDefDlg.obj
 0001:00047050       ??0CSetupDefDlg@@QAE@PAVCWnd@@@Z 00448050 f   SetupDefDlg.obj
 0001:000470f0       ??_GCSetupDefDlg@@UAEPAXI@Z 004480f0 f i SetupDefDlg.obj
 0001:000470f0       ??_ECSetupDefDlg@@UAEPAXI@Z 004480f0 f i SetupDefDlg.obj
 0001:00047120       ??1CSetupDefDlg@@UAE@XZ    00448120 f i SetupDefDlg.obj
 0001:00047190       ?DoDataExchange@CSetupDefDlg@@MAEXPAVCDataExchange@@@Z 00448190 f   SetupDefDlg.obj
 0001:000471e0       ?GetMessageMap@CSetupDefDlg@@MBEPBUAFX_MSGMAP@@XZ 004481e0 f   SetupDefDlg.obj
 0001:000471f0       ?OnInitDialog@CSetupDefDlg@@MAEHXZ 004481f0 f   SetupDefDlg.obj
 0001:00047410       ?OnExhandler@CSetupDefDlg@@IAEXXZ 00448410 f   SetupDefDlg.obj
 0001:00047440       ?OnAssociatefile@CSetupDefDlg@@IAEXXZ 00448440 f   SetupDefDlg.obj
 0001:000474a0       ?OnIgnoreUninstallHide@CSetupDefDlg@@IAEXXZ 004484a0 f   SetupDefDlg.obj
 0001:000474e0       ?OnShowIconAlways@CSetupDefDlg@@IAEXXZ 004484e0 f   SetupDefDlg.obj
 0001:00047520       ?OnChangeFirstname@CSetupDefDlg@@IAEXXZ 00448520 f   SetupDefDlg.obj
 0001:00047580       ?OnChangeCallname@CSetupDefDlg@@IAEXXZ 00448580 f   SetupDefDlg.obj
 0001:00047660       ?OnChangeBirthday@CSetupDefDlg@@IAEXPAUtagNMHDR@@PAJ@Z 00448660 f   SetupDefDlg.obj
 0001:000476f0       ?OnStrictWait@CSetupDefDlg@@IAEXXZ 004486f0 f   SetupDefDlg.obj
 0001:00047720       ?OnDestroy@CSetupDefDlg@@IAEXXZ 00448720 f   SetupDefDlg.obj
 0001:000477d0       ?OnPriorityDown@CSetupDefDlg@@IAEXXZ 004487d0 f   SetupDefDlg.obj
 0001:00047880       ?OnInstallReadme@CSetupDefDlg@@IAEXXZ 00448880 f   SetupDefDlg.obj
 0001:000478a0       ?OnSelfUpdateAuto@CSetupDefDlg@@IAEXXZ 004488a0 f   SetupDefDlg.obj
 0001:000478e0       ?OnRegisterHotkey@CSetupDefDlg@@IAEXXZ 004488e0 f   SetupDefDlg.obj
 0001:00047910       ?OnSexChoice@CSetupDefDlg@@IAEXXZ 00448910 f   SetupDefDlg.obj
 0001:00047950       ??0CSimpleMenu@@QAE@XZ     00448950 f   SimpleMenu.obj
 0001:00047960       ?Release@CSimpleMenu@@QAEXXZ 00448960 f   SimpleMenu.obj
 0001:00047980       ?LoadIndirect@CSimpleMenu@@QAEPAUHMENU__@@PBX@Z 00448980 f   SimpleMenu.obj
 0001:000479a0       ?CreatePopup@CSimpleMenu@@QAEPAUHMENU__@@XZ 004489a0 f   SimpleMenu.obj
 0001:000479c0       ?TrackPopup@CSimpleMenu@@QBEHIHHPAUHWND__@@@Z 004489c0 f   SimpleMenu.obj
 0001:000479f0       ?AttachSub@CSimpleMenu@@QAEPAUHMENU__@@H@Z 004489f0 f   SimpleMenu.obj
 0001:00047a20       ?GetSub@CSimpleMenu@@QBEPAUHMENU__@@H@Z 00448a20 f   SimpleMenu.obj
 0001:00047a40       ?Attach@CSimpleMenu@@QAEXPAUHMENU__@@@Z 00448a40 f   SimpleMenu.obj
 0001:00047a60       ?Detach@CSimpleMenu@@QAEXXZ 00448a60 f   SimpleMenu.obj
 0001:00047a70       ?Create@CSSPPropertyData@@QAEHPAVCWnd@@@Z 00448a70 f   SSPProperty.obj
 0001:00047aa0       ?GetDialogTemplate@CSSPPropertyData@@AAEPAXXZ 00448aa0 f   SSPProperty.obj
 0001:00047c60       ?Destroy@CSSPPropertyData@@QAEXXZ 00448c60 f   SSPProperty.obj
 0001:00047c90       ??0CSSPProperty@@QAE@PAVCWnd@@@Z 00448c90 f   SSPProperty.obj
 0001:00047d70       ??_GCSSPProperty@@UAEPAXI@Z 00448d70 f i SSPProperty.obj
 0001:00047d70       ??_ECSSPProperty@@UAEPAXI@Z 00448d70 f i SSPProperty.obj
 0001:00047da0       ??1CSSPProperty@@UAE@XZ    00448da0 f i SSPProperty.obj
 0001:00047e60       ?DoDataExchange@CSSPProperty@@MAEXPAVCDataExchange@@@Z 00448e60 f   SSPProperty.obj
 0001:00047ea0       ?GetMessageMap@CSSPProperty@@MBEPBUAFX_MSGMAP@@XZ 00448ea0 f   SSPProperty.obj
 0001:00047eb0       ?OnInitDialog@CSSPProperty@@MAEHXZ 00448eb0 f   SSPProperty.obj
 0001:00048020       ?OnDestroy@CSSPProperty@@IAEXXZ 00449020 f   SSPProperty.obj
 0001:00048090       ?OnOK@CSSPProperty@@MAEXXZ 00449090 f   SSPProperty.obj
 0001:00048090       ?OnClose2@CMessengerDlg@@IAEXXZ 00449090 f   SSPProperty.obj
 0001:000480a0       ?OnHelp@CSSPProperty@@IAEXXZ 004490a0 f   SSPProperty.obj
 0001:000480c0       ?HelpFileExec@CSSPProperty@@QAEXXZ 004490c0 f   SSPProperty.obj
 0001:00048110       ?OnItemChangedSheets@CSSPProperty@@IAEXPAUtagNMHDR@@PAJ@Z 00449110 f   SSPProperty.obj
 0001:00048170       ?AddPageData@CSSPProperty@@AAEXPAVCDialog@@IPAG@Z 00449170 f   SSPProperty.obj
 0001:000483d0       ?InitPropertyPages@CSSPProperty@@AAEXXZ 004493d0 f   SSPProperty.obj
 0001:000487a0       ?UpdatePagesList@CSSPProperty@@AAEXXZ 004497a0 f   SSPProperty.obj
 0001:00048840       ?ReleasePropertyPages@CSSPProperty@@AAEXXZ 00449840 f   SSPProperty.obj
 0001:000488d0       ??1CSSPPropertyData@@QAE@XZ 004498d0 f i SSPProperty.obj
 0001:00048940       ?SelectPageFromType@CSSPProperty@@QAEXPAG@Z 00449940 f   SSPProperty.obj
 0001:000489a0       ?SelectPage@CSSPProperty@@AAEXI@Z 004499a0 f   SSPProperty.obj
 0001:00048a90       ?OnSize@CSSPProperty@@IAEXIHH@Z 00449a90 f   SSPProperty.obj
 0001:00048ab0       ?OnCtlColor@CSSPProperty@@IAEPAUHBRUSH__@@PAVCDC@@PAVCWnd@@I@Z 00449ab0 f   SSPProperty.obj
 0001:00048b10       ?GetDlgCtrlText@CSSPProperty@@AAEPAGPBGH@Z 00449b10 f   SSPProperty.obj
 0001:00049e30       ?OnHelpInfo@CSSPProperty@@IAEHPAUtagHELPINFO@@@Z 0044ae30 f   SSPProperty.obj
 0001:0004a000       ??0CStdInput@@QAE@PAVCWnd@@@Z 0044b000 f   StdInput.obj
 0001:0004a120       ??_GCStdInput@@UAEPAXI@Z   0044b120 f i StdInput.obj
 0001:0004a120       ??_ECStdInput@@UAEPAXI@Z   0044b120 f i StdInput.obj
 0001:0004a150       ?DoDataExchange@CStdInput@@MAEXPAVCDataExchange@@@Z 0044b150 f   StdInput.obj
 0001:0004a170       ?DoModalExt@CStdInput@@QAEHPAVCWnd@@@Z 0044b170 f   StdInput.obj
 0001:0004a390       ?GetMessageMap@CStdInput@@MBEPBUAFX_MSGMAP@@XZ 0044b390 f   StdInput.obj
 0001:0004a3a0       ?OnOK@CStdInput@@MAEXXZ    0044b3a0 f   StdInput.obj
 0001:0004a3c0       ?OnCancel@CStdInput@@MAEXXZ 0044b3c0 f   StdInput.obj
 0001:0004a3e0       ?OnInitDialog@CStdInput@@MAEHXZ 0044b3e0 f   StdInput.obj
 0001:0004a470       ?SetMessage@CStdInput@@QAEXPBGH0_N@Z 0044b470 f   StdInput.obj
 0001:0004a4b0       ?SetMessage@CStdInput@@QAEXPBG00_N@Z 0044b4b0 f   StdInput.obj
 0001:0004a520       ?GetText@CStdInput@@QAEPBGXZ 0044b520 f   StdInput.obj
 0001:0004a530       ?GetNum@CStdInput@@QAEHXZ  0044b530 f   StdInput.obj
 0001:0004a540       ?GetSubWindowList@@YAAAVCSubWindowList@@XZ 0044b540 f   SubWindowList.obj
 0001:0004a590       ??0CSubWindowList@@QAE@XZ  0044b590 f   SubWindowList.obj
 0001:0004a5b0       ??_ECSubWindowList@@UAEPAXI@Z 0044b5b0 f i SubWindowList.obj
 0001:0004a5b0       ??_GCSubWindowList@@UAEPAXI@Z 0044b5b0 f i SubWindowList.obj
 0001:0004a5e0       ??1CSubWindowList@@UAE@XZ  0044b5e0 f   SubWindowList.obj
 0001:0004a610       ?AddWindow@CSubWindowList@@QAEXPAVCWnd@@@Z 0044b610 f   SubWindowList.obj
 0001:0004a720       ?DeleteWindow@CSubWindowList@@QAEXPAVCWnd@@@Z 0044b720 f   SubWindowList.obj
 0001:0004a790       ?CheckWindowIsInWorkrect@CSubWindowList@@QAEXXZ 0044b790 f   SubWindowList.obj
 0001:0004a8b0       ??0CSurfaceTest@@QAE@PAVCWnd@@@Z 0044b8b0 f   SurfaceTest.obj
 0001:0004a9e0       ??_GCSurfaceTest@@UAEPAXI@Z 0044b9e0 f i SurfaceTest.obj
 0001:0004a9e0       ??_ECSurfaceTest@@UAEPAXI@Z 0044b9e0 f i SurfaceTest.obj
 0001:0004aa10       ??1CSurfaceTest@@UAE@XZ    0044ba10 f i SurfaceTest.obj
 0001:0004ab30       ?DoDataExchange@CSurfaceTest@@MAEXPAVCDataExchange@@@Z 0044bb30 f   SurfaceTest.obj
 0001:0004ab90       ?GetMessageMap@CSurfaceTest@@MBEPBUAFX_MSGMAP@@XZ 0044bb90 f   SurfaceTest.obj
 0001:0004aba0       ?OnSelchangeSurface@CSurfaceTest@@IAEXXZ 0044bba0 f   SurfaceTest.obj
 0001:0004abd0       ?OnInitDialog@CSurfaceTest@@MAEHXZ 0044bbd0 f   SurfaceTest.obj
 0001:0004aee0       ?SetGhost@CSurfaceTest@@QAEXPAVSPGhost@@@Z 0044bee0 f   SurfaceTest.obj
 0001:0004aef0       ?OnDestroy@CSurfaceTest@@IAEXXZ 0044bef0 f   SurfaceTest.obj
 0001:0004afb0       ??1SPSurfaceTestManager@@QAE@XZ 0044bfb0 f i SurfaceTest.obj
 0001:0004b010       ?OnCancel@CSurfaceTest@@MAEXXZ 0044c010 f   SurfaceTest.obj
 0001:0004b010       ?OnClose@CSurfaceTest@@IAEXXZ 0044c010 f   SurfaceTest.obj
 0001:0004b040       ?OnSelchangeChar@CSurfaceTest@@IAEXXZ 0044c040 f   SurfaceTest.obj
 0001:0004b050       ?OnSelchangeAnimID@CSurfaceTest@@IAEXXZ 0044c050 f   SurfaceTest.obj
 0001:0004b060       ?SelChange@CSurfaceTest@@IAEX_N@Z 0044c060 f   SurfaceTest.obj
 0001:0004b2f0       ?ListSerikoID@CSurfaceTest@@IAEXXZ 0044c2f0 f   SurfaceTest.obj
 0001:0004ba80       ?ListAnimID@CSurfaceTest@@IAEXXZ 0044ca80 f   SurfaceTest.obj
 0001:0004c1b0       ?OnSize@CSurfaceTest@@IAEXIHH@Z 0044d1b0 f   SurfaceTest.obj
 0001:0004c1f0       ?OnScript@CSurfaceTest@@IAEXXZ 0044d1f0 f   SurfaceTest.obj
 0001:0004c230       ?OnCopy@CSurfaceTest@@IAEXXZ 0044d230 f   SurfaceTest.obj
 0001:0004c270       ?OnGetMinMaxInfo@CSurfaceTest@@IAEXPAUtagMINMAXINFO@@@Z 0044d270 f   SurfaceTest.obj
 0001:0004c310       ?WindowProc@CSurfaceTest@@MAEJIIJ@Z 0044d310 f   SurfaceTest.obj
 0001:0004c370       ?QuickSort@?$JArray@V?$SPSparsePtrArrayDefPair@PAVSPAnimeBase@@@@@@QAEXXZ 0044d370 f i SurfaceTest.obj
 0001:0004c5f0       ?Find@?$SPSparsePtrArrayDef@PAVSPAnimeBase@@@@QAEJK@Z 0044d5f0 f i SurfaceTest.obj
 0001:0004c620       ?AddToArray@?$SPSparsePtrArrayDef@PAVSPAnimeBase@@@@QAEXAAV?$JArray@V?$SPSparsePtrArrayDefPair@PAVSPAnimeBase@@@@@@@Z 0044d620 f i SurfaceTest.obj
 0001:0004c750       ?_Sort@std@@YAXPAV?$SPSparsePtrArrayDefPair@PAVSPAnimeBase@@@@00@Z 0044d750 f i SurfaceTest.obj
 0001:0004c890       ?CreateObject@CTalkDlg@@SGPAVCObject@@XZ 0044d890 f   TalkDlg.obj
 0001:0004c8f0       ?GetRuntimeClass@CTalkDlg@@UBEPAUCRuntimeClass@@XZ 0044d8f0 f   TalkDlg.obj
 0001:0004c900       ??0CTalkDlg@@QAE@PAVCWnd@@@Z 0044d900 f   TalkDlg.obj
 0001:0004ca00       ??_ECTalkDlg@@UAEPAXI@Z    0044da00 f i TalkDlg.obj
 0001:0004ca00       ??_GCTalkDlg@@UAEPAXI@Z    0044da00 f i TalkDlg.obj
 0001:0004ca30       ??1CTalkDlg@@UAE@XZ        0044da30 f i TalkDlg.obj
 0001:0004cb10       ?DoDataExchange@CTalkDlg@@MAEXPAVCDataExchange@@@Z 0044db10 f   TalkDlg.obj
 0001:0004cbb0       ?GetMessageMap@CTalkDlg@@MBEPBUAFX_MSGMAP@@XZ 0044dbb0 f   TalkDlg.obj
 0001:0004cbc0       ?OnInitDialog@CTalkDlg@@MAEHXZ 0044dbc0 f   TalkDlg.obj
 0001:0004d020       ?InitTimeoutSlider@CTalkDlg@@AAEXAAVCSliderCtrl@@H@Z 0044e020 f   TalkDlg.obj
 0001:0004d080       ?ReinitSlider@CTalkDlg@@AAEXAAVCSliderCtrl@@@Z 0044e080 f   TalkDlg.obj
 0001:0004d110       ?OnHScroll@CTalkDlg@@IAEXIIPAVCScrollBar@@@Z 0044e110 f   TalkDlg.obj
 0001:0004d230       ?OnTalkNews@CTalkDlg@@IAEXXZ 0044e230 f   TalkDlg.obj
 0001:0004d270       ?OnChangeLeftdcSetting@CTalkDlg@@IAEXXZ 0044e270 f   TalkDlg.obj
 0001:0004d2a0       ?OnChangeRightSetting@CTalkDlg@@IAEXXZ 0044e2a0 f   TalkDlg.obj
 0001:0004d2d0       ?OnNoWaitHeadline@CTalkDlg@@IAEXXZ 0044e2d0 f   TalkDlg.obj
 0001:0004d310       ?OnShowBalloonOnline@CTalkDlg@@IAEXXZ 0044e310 f   TalkDlg.obj
 0001:0004d350       ?OnSelchangeSpeedupKey@CTalkDlg@@IAEXXZ 0044e350 f   TalkDlg.obj
 0001:0004d390       ?OnSpeedup@CTalkDlg@@IAEXXZ 0044e390 f   TalkDlg.obj
 0001:0004d3e0       ?OnDestroy@CTalkDlg@@IAEXXZ 0044e3e0 f   TalkDlg.obj
 0001:0004d400       ?UpdateBuffer@JBufferedStream@@IAEXXZ 0044e400 f   j_bufstrm.obj
 0001:0004d420       ?FlushBuffer@JBufferedStream@@QAEXXZ 0044e420 f   j_bufstrm.obj
 0001:0004d450       ?Read@JBufferedStream@@UAEEXZ 0044e450 f   j_bufstrm.obj
 0001:0004d4b0       ?Read@JBufferedStream@@UAEKPAXK@Z 0044e4b0 f   j_bufstrm.obj
 0001:0004d590       ?Write@JBufferedStream@@UAEKE@Z 0044e590 f   j_bufstrm.obj
 0001:0004d5f0       ?Write@JBufferedStream@@QAEKPAXK@Z 0044e5f0 f   j_bufstrm.obj
 0001:0004d6e0       ?Seek@JBufferedStream@@UAEHJH@Z 0044e6e0 f   j_bufstrm.obj
 0001:0004d7c0       ?Pos@JBufferedStream@@UAEKXZ 0044e7c0 f   j_bufstrm.obj
 0001:0004d7d0       ??0JCriticalSection@@QAE@XZ 0044e7d0 f   j_criticalsection.obj
 0001:0004d8b0       ??_GJCriticalSection@@UAEPAXI@Z 0044e8b0 f i j_criticalsection.obj
 0001:0004d8b0       ??_EJCriticalSection@@UAEPAXI@Z 0044e8b0 f i j_criticalsection.obj
 0001:0004d8e0       ??1JCriticalSection@@UAE@XZ 0044e8e0 f   j_criticalsection.obj
 0001:0004d900       ?Lock@JCriticalSection@@UAE_NJ@Z 0044e900 f   j_criticalsection.obj
 0001:0004d910       ?Unlock@JCriticalSection@@UAEXXZ 0044e910 f   j_criticalsection.obj
 0001:0004d920       ??0JDC@@QAE@XZ             0044e920 f   j_dc.obj
 0001:0004d940       ??_GJDC@@UAEPAXI@Z         0044e940 f i j_dc.obj
 0001:0004d940       ??_EJDC@@UAEPAXI@Z         0044e940 f i j_dc.obj
 0001:0004d970       ?Init@JDC@@AAEXXZ          0044e970 f   j_dc.obj
 0001:0004d980       ??1JDC@@UAE@XZ             0044e980 f   j_dc.obj
 0001:0004d9a0       ?CreateMemoryDC@JDC@@QAEPAUHDC__@@XZ 0044e9a0 f   j_dc.obj
 0001:0004d9e0       ?ReleaseDC@JDC@@QAEXXZ     0044e9e0 f   j_dc.obj
 0001:0004da60       ?SelectBitmap@JDC@@QAEPAUHBITMAP__@@PAU2@@Z 0044ea60 f   j_dc.obj
 0001:0004daa0       ?Read@JBITMAPINFOHEADER@@QAEHAAVJStream@@@Z 0044eaa0 f   j_dib.obj
 0001:0004dc60       ??1JDib@@UAE@XZ            0044ec60 f   j_dib.obj
 0001:0004dcb0       ??_EJDib@@UAEPAXI@Z        0044ecb0 f i j_dib.obj
 0001:0004dcb0       ??_GJDib@@UAEPAXI@Z        0044ecb0 f i j_dib.obj
 0001:0004dce0       ?Create@JDib@@QAEHKK@Z     0044ece0 f   j_dib.obj
 0001:0004de60       ?Release@JDib@@QAEXXZ      0044ee60 f   j_dib.obj
 0001:0004dee0       ?Open@JDib@@QAEHAAVJStream@@@Z 0044eee0 f   j_dib.obj
 0001:0004e2c0       ?Save@JDib@@QAEHAAVJStream@@@Z 0044f2c0 f   j_dib.obj
 0001:0004e4a0       ?SetPalette@JDib@@QAEXAAVJPalette@@@Z 0044f4a0 f   j_dib.obj
 0001:0004e4f0       ?GetPalette@JDib@@QAEXAAVJPalette@@@Z 0044f4f0 f   j_dib.obj
 0001:0004e510       ?To8bpp@JDib@@IAEHPAUtagBITMAPINFOHEADER@@PAUtagRGBQUAD@@PAX@Z 0044f510 f   j_dib.obj
 0001:0004e720       ?To32bpp@JDib@@IAEHPAUtagBITMAPINFOHEADER@@PAUtagRGBQUAD@@PAX@Z 0044f720 f   j_dib.obj
 0001:0004e9e0       ?ComputeCenter@JDibVect@@QAEXXZ 0044f9e0 f   j_dib.obj
 0001:0004eaa0       ?Quantize@JDibVect@@QAEHXZ 0044faa0 f   j_dib.obj
 0001:0004ee00       ??0JDibDecPal@@QAE@XZ      0044fe00 f i j_dib.obj
 0001:0004ee20       ??_EJDibDecPal@@UAEPAXI@Z  0044fe20 f i j_dib.obj
 0001:0004ee20       ??_GJDibDecPal@@UAEPAXI@Z  0044fe20 f i j_dib.obj
 0001:0004ee50       ??1JDibDecPal@@UAE@XZ      0044fe50 f i j_dib.obj
 0001:0004ee60       ??_EJList@@UAEPAXI@Z       0044fe60 f i j_dib.obj
 0001:0004ee60       ??_GJList@@UAEPAXI@Z       0044fe60 f i j_dib.obj
 0001:0004ee90       ?JDibCreateHistgram@@YAPAVJDibVect@@PAUtagBITMAPINFOHEADER@@PAE@Z 0044fe90 f   j_dib.obj
 0001:0004f040       ?JDibVectQuantize@@YAHPAVJDibVect@@J@Z 00450040 f   j_dib.obj
 0001:0004f090       ?JDibVectQGetDeepest@@YAHPAVJDibVect@@PAPAV1@PAJ@Z 00450090 f   j_dib.obj
 0001:0004f0f0       ?JDibVectQCreatePalette@@YAHPAVJDibVect@@PAUtagRGBQUAD@@PAE@Z 004500f0 f   j_dib.obj
 0001:0004f220       ?DecreaseTo8@JDib@@QAEHPAUtagBITMAPINFOHEADER@@PAEHH@Z 00450220 f   j_dib.obj
 0001:0004f910       ??1JDibVect@@QAE@XZ        00450910 f i j_dib.obj
 0001:0004f990       ?Create@JDIBSurface@@UAEHJJJ@Z 00450990 f   j_dibsurf.obj
 0001:0004fab0       ?Update@JDIBSurface@@UAEXXZ 00450ab0 f   j_dibsurf.obj
 0001:0004fb00       ?SetPixel@JDIBSurface@@UAEXJJEEE@Z 00450b00 f   j_dibsurf.obj
 0001:0004fb40       ?GetPixel@JDIBSurface@@UAEXJJAAE00@Z 00450b40 f   j_dibsurf.obj
 0001:0004fb80       ?Create@JGIFImage@@QAEHJJ@Z 00450b80 f   j_gif.obj
 0001:0004fbc0       ?Release@JGIFImage@@QAEXXZ 00450bc0 f   j_gif.obj
 0001:0004fbe0       ?ReadPalette@JGIFImage@@IAEHAAVJStream@@H@Z 00450be0 f   j_gif.obj
 0001:0004fc70       ?ReadData@JGIFImage@@QAEHAAVJStream@@@Z 00450c70 f   j_gif.obj
 0001:0004fda0       ?ReadPalette@JGIF@@IAEHAAVJStream@@H@Z 00450da0 f   j_gif.obj
 0001:0004fe30       ?Release@JGIF@@QAEHXZ      00450e30 f   j_gif.obj
 0001:0004fe90       ??1JGIFImage@@QAE@XZ       00450e90 f i j_gif.obj
 0001:0004fea0       ?Read@JGIF@@QAEHAAVJStream@@@Z 00450ea0 f   j_gif.obj
 0001:000502e0       ?GetImageAsJSurface@JGIF@@QAEPAVJSurface@@H@Z 004512e0 f   j_gif.obj
 0001:00050390       ??1JHashData@@QAE@XZ       00451390 f   j_hash.obj
 0001:000503d0       ?GetIndex@JHashData@@AAEHPBDH@Z 004513d0 f   j_hash.obj
 0001:00050460       ?Get@JHashData@@QAEPAXPBDH@Z 00451460 f   j_hash.obj
 0001:000504a0       ?Delete@JHashData@@QAEXPBDH@Z 004514a0 f   j_hash.obj
 0001:00050500       ?IsEmpty@JHashData@@QAEHXZ 00451500 f   j_hash.obj
 0001:00050530       ?Set@JHashData@@QAEXPBDPAXH@Z 00451530 f   j_hash.obj
 0001:00050690       ?DoAll@JHashData@@QAEXP6AXPADPAX1@Z1@Z 00451690 f   j_hash.obj
 0001:000506d0       ??0JHash@@QAE@XZ           004516d0 f   j_hash.obj
 0001:000506f0       ?CalcHash@JHash@@AAEKPBD@Z 004516f0 f   j_hash.obj
 0001:00050770       ?Release@JHash@@QAEXXZ     00451770 f   j_hash.obj
 0001:000507c0       ?Get@JHash@@QAEPAXPBD@Z    004517c0 f   j_hash.obj
 0001:00050800       ?Delete@JHash@@QAEXPBD@Z   00451800 f   j_hash.obj
 0001:00050860       ?Set@JHash@@QAEXPBDPAX@Z   00451860 f   j_hash.obj
 0001:000508f0       ?DoAll@JHash@@QAEXP6AXPADPAX1@Z1@Z 004518f0 f   j_hash.obj
 0001:00050930       ?GetVer@JLibJPEG@@SAPBDXZ  00451930 f   j_libjpeg.obj
 0001:00050970       ?Read@JLibJPEG@@QAEPAVJSurface@@PAD@Z 00451970 f   j_libjpeg.obj
 0001:00050990       ?ReadFromBuffer@JLibJPEG@@QAEPAVJSurface@@PADK@Z 00451990 f   j_libjpeg.obj
 0001:00050de0       ?JLibMAG_Read@@YAPAVJSurface@@PAD@Z 00451de0 f   j_libmag.obj
 0001:00051000       ?JLibPI_Read@@YAPAVJSurface@@PAD@Z 00452000 f   j_libpi.obj
 0001:00051240       ??0JLibPNG@@QAE@XZ         00452240 f   j_libpng.obj
 0001:00051250       ?Release@JLibPNG@@QAEXXZ   00452250 f   j_libpng.obj
 0001:00051270       ?GetVer@JLibPNG@@SAPBDXZ   00452270 f   j_libpng.obj
 0001:000512a0       ?Read@JLibPNG@@QAEPAVJSurface@@PADH@Z 004522a0 f   j_libpng.obj
 0001:00051360       ?ReadFromBuffer@JLibPNG@@QAEPAVJSurface@@PADKH@Z 00452360 f   j_libpng.obj
 0001:00051470       ?RealRead@JLibPNG@@AAEPAVJSurface@@HPAUpng_struct_def@@PAUpng_info_def@@@Z 00452470 f   j_libpng.obj
 0001:00051aa0       ?Save@JLibPNG@@QAEHPADPAVJSurface@@H@Z 00452aa0 f   j_libpng.obj
 0001:00051b30       ?RealSave@JLibPNG@@AAEHPAVJSurface@@HPAUpng_struct_def@@PAUpng_info_def@@@Z 00452b30 f   j_libpng.obj
 0001:00051bc0       ?AddNode@JList@@QAEXPAV1@@Z 00452bc0 f   j_list.obj
 0001:00051be0       ?DeleteNode@JList@@QAEXXZ  00452be0 f   j_list.obj
 0001:00051c00       ?DeleteAllNode@JList@@QAEXXZ 00452c00 f   j_list.obj
 0001:00051c30       ?Read@JLZWDecoder@@QAEKAAVJStream@@PAEH@Z 00452c30 f   j_lzw.obj
 0001:00051e30       ?Seek@JMappedStream@@UAEHJH@Z 00452e30 f   j_mapstream.obj
 0001:00051e80       ?Read@JMappedStream@@UAEKPAXK@Z 00452e80 f   j_mapstream.obj
 0001:00051ed0       ?Open@JMappedStream@@QAEHKPAD@Z 00452ed0 f   j_mapstream.obj
 0001:00051f50       ?Open@JMappedStream@@UAEHPBDH@Z 00452f50 f   j_mapstream.obj
 0001:00052070       ?OpenW@JMappedStream@@UAEHPBGH@Z 00453070 f   j_mapstream.obj
 0001:00052150       ?Close@JMappedStream@@UAEXXZ 00453150 f   j_mapstream.obj
 0001:000521b0       ?Detach@JMappedStream@@QAEPAEAAK@Z 004531b0 f   j_mapstream.obj
 0001:00052230       ?InitData@JMappedStream@@AAEXXZ 00453230 f   j_mapstream.obj
 0001:00052250       ?GetJMemoryManager@@YAAAVJMemoryManager@@XZ 00453250 f   j_mem.obj
 0001:000522a0       ??0JMemoryManager@@QAE@XZ  004532a0 f   j_mem.obj
 0001:00052320       ?Malloc@JMemoryManager@@QAEPADK@Z 00453320 f   j_mem.obj
 0001:00052370       ?Free@JMemoryManager@@QAEXPAX@Z 00453370 f   j_mem.obj
 0001:000523a0       ?Realloc@JMemoryManager@@QAEPADPAXK@Z 004533a0 f   j_mem.obj
 0001:00052430       ?Size@JMemoryManager@@QAEKPAX@Z 00453430 f   j_mem.obj
 0001:00052460       ?Read@JMemStream@@UAEKPAXK@Z 00453460 f   j_memstrm.obj
 0001:000524a0       ?Write@JMemStream@@UAEKPBXK@Z 004534a0 f   j_memstrm.obj
 0001:000524e0       ?Seek@JMemStream@@UAEHJH@Z 004534e0 f   j_memstrm.obj
 0001:00052540       ?Create@JMutex@@QAEHPBDH@Z 00453540 f   j_mutex.obj
 0001:00052570       ?Release@JMutex@@QAEXXZ    00453570 f   j_mutex.obj
 0001:00052590       ?Lock@JMutex@@UAE_NJ@Z     00453590 f   j_mutex.obj
 0001:000525d0       ?Unlock@JMutex@@UAEXXZ     004535d0 f   j_mutex.obj
 0001:000525e0       ?JGXCreateSurfaceObject@@YAPAVJSurfaceObject@@XZ 004535e0 f   j_objman.obj
 0001:00052620       ?Clear@JSurfaceObject@@UAEHJJJJ@Z 00453620 f i j_objman.obj
 0001:00052630       ?Load@JDIBSurface@@UAEHAAVJStream@@@Z 00453630 f i j_objman.obj
 0001:00052650       ?Save@JDIBSurface@@UAEHAAVJStream@@@Z 00453650 f i j_objman.obj
 0001:00052670       ?Pitch@JDIBSurface@@UAEJXZ 00453670 f i j_objman.obj
 0001:000526a0       ?Pixel@JDIBSurface@@UAEJXZ 004536a0 f i j_objman.obj
 0001:000526c0       ?Width@JDIBSurface@@UAEJXZ 004536c0 f i j_objman.obj
 0001:000526e0       ?Height@JDIBSurface@@UAEJXZ 004536e0 f i j_objman.obj
 0001:00052700       ?SetPalette@JDIBSurface@@UAEHAAVJPalette@@@Z 00453700 f i j_objman.obj
 0001:00052730       ?GetPalette@JDIBSurface@@UAEHAAVJPalette@@@Z 00453730 f i j_objman.obj
 0001:00052750       ?GetPalette@JDIBSurface@@UAEPAUtagRGBQUAD@@XZ 00453750 f i j_objman.obj
 0001:00052760       ?Handle@JDIBSurface@@UAEPAXXZ 00453760 f i j_objman.obj
 0001:00052770       ?Bitmap@JDIBSurface@@UAEPAXXZ 00453770 f i j_objman.obj
 0001:00052780       ?BitmapBits@JDIBSurface@@UAEPAEXZ 00453780 f i j_objman.obj
 0001:00052790       ??_EJDIBSurface@@UAEPAXI@Z 00453790 f i j_objman.obj
 0001:00052790       ??_GJDIBSurface@@UAEPAXI@Z 00453790 f i j_objman.obj
 0001:000527c0       ??1JDIBSurface@@UAE@XZ     004537c0 f i j_objman.obj
 0001:00052810       ??1JSurfaceObject@@UAE@XZ  00453810 f i j_objman.obj
 0001:00052820       ??_GJSurfaceObject@@UAEPAXI@Z 00453820 f i j_objman.obj
 0001:00052820       ??_EJSurfaceObject@@UAEPAXI@Z 00453820 f i j_objman.obj
 0001:00052850       ?JGXCreateSurface@@YAPAVJSurface@@HH@Z 00453850 f   j_objman.obj
 0001:00052980       ?Load@JSurface@@UAEHAAVJStream@@@Z 00453980 f i j_objman.obj
 0001:000529c0       ?Save@JSurface@@UAEHAAVJStream@@@Z 004539c0 f i j_objman.obj
 0001:000529e0       ?GetRowTable@JSurface@@UAEPAPAEXZ 004539e0 f i j_objman.obj
 0001:000529f0       ?SetPixel@JSurface@@UAEXJJEEE@Z 004539f0 f i j_objman.obj
 0001:00052a20       ?GetPixel@JSurface@@UAEXJJAAE00@Z 00453a20 f i j_objman.obj
 0001:00052a50       ?GetPixelAlpha@JSurface@@UAEEJJ@Z 00453a50 f i j_objman.obj
 0001:00052a60       ?SetPixelAlpha@JSurface@@UAEXJJE@Z 00453a60 f i j_objman.obj
 0001:00052a60       ?SetPixelIndex@JSurface@@UAEXJJK@Z 00453a60 f i j_objman.obj
 0001:00052a70       ?SetPalette@JSurface@@UAEHAAVJPalette@@@Z 00453a70 f i j_objman.obj
 0001:00052a90       ?GetPalette@JSurface@@UAEHAAVJPalette@@@Z 00453a90 f i j_objman.obj
 0001:00052ab0       ?GetAddress@JSurface@@UAEPAEJJ@Z 00453ab0 f i j_objman.obj
 0001:00052ab0       ?Lock@JSurface@@UAEPAEJJ@Z 00453ab0 f i j_objman.obj
 0001:00052ad0       ?Unlock@JSurface@@UAEXXZ   00453ad0 f i j_objman.obj
 0001:00052ae0       ?AlphaFill@JSurface@@UAEHJJJJE@Z 00453ae0 f i j_objman.obj
 0001:00052ae0       ?ColorFill@JSurfaceObject@@UAEHJJJJK@Z 00453ae0 f i j_objman.obj
 0001:00052ae0       ?ColorFill@JSurface@@UAEHJJJJK@Z 00453ae0 f i j_objman.obj
 0001:00052af0       ?ColorFillAlpha@JSurfaceObject@@UAEHJJJJKE@Z 00453af0 f i j_objman.obj
 0001:00052af0       ?ColorFillAlpha@JSurface@@UAEHJJJJKE@Z 00453af0 f i j_objman.obj
 0001:00052b00       ?StretchCopy@JSurface@@UAEHJJJJPAV1@JJJJ@Z 00453b00 f i j_objman.obj
 0001:00052b10       ?ZoomCopy@JSurface@@UAEHJJJJPAV1@JJJJJJ@Z 00453b10 f i j_objman.obj
 0001:00052b10       ?StretchCopyEx@JSurface@@UAEHJJJJPAV1@JJJJPAJ1@Z 00453b10 f i j_objman.obj
 0001:00052b20       ?BlendMultiply@JSurface@@UAEHJJJJPAV1@JJ0@Z 00453b20 f i j_objman.obj
 0001:00052b20       ?BlendHardLight@JSurface@@UAEHJJJJPAV1@JJ0@Z 00453b20 f i j_objman.obj
 0001:00052b20       ?BlendSoftLight@JSurface@@UAEHJJJJPAV1@JJ0@Z 00453b20 f i j_objman.obj
 0001:00052b20       ?BlendColor@JSurface@@UAEHJJJJPAV1@JJ0@Z 00453b20 f i j_objman.obj
 0001:00052b20       ?BlendLighten@JSurface@@UAEHJJJJPAV1@JJ0@Z 00453b20 f i j_objman.obj
 0001:00052b20       ?BlendScreen@JSurface@@UAEHJJJJPAV1@JJ0@Z 00453b20 f i j_objman.obj
 0001:00052b20       ?BlendHue@JSurface@@UAEHJJJJPAV1@JJ0@Z 00453b20 f i j_objman.obj
 0001:00052b20       ?BlendSaturation@JSurface@@UAEHJJJJPAV1@JJ0@Z 00453b20 f i j_objman.obj
 0001:00052b20       ?BlendSubtract@JSurface@@UAEHJJJJPAV1@JJ0@Z 00453b20 f i j_objman.obj
 0001:00052b20       ?BlendDarken@JSurface@@UAEHJJJJPAV1@JJ0@Z 00453b20 f i j_objman.obj
 0001:00052b20       ?BlendDifference@JSurface@@UAEHJJJJPAV1@JJ0@Z 00453b20 f i j_objman.obj
 0001:00052b20       ?BlendDissolve@JSurface@@UAEHJJJJPAV1@JJ0@Z 00453b20 f i j_objman.obj
 0001:00052b20       ?BlendLuminosity@JSurface@@UAEHJJJJPAV1@JJ0@Z 00453b20 f i j_objman.obj
 0001:00052b20       ?BlendNormal@JSurface@@UAEHJJJJPAV1@JJ0@Z 00453b20 f i j_objman.obj
 0001:00052b20       ?BlendOverlay@JSurface@@UAEHJJJJPAV1@JJ0@Z 00453b20 f i j_objman.obj
 0001:00052b30       ?CopyAND@JSurface@@UAEHJJJJPAV1@JJ@Z 00453b30 f i j_objman.obj
 0001:00052b30       ?CopyAlpha@JSurface@@UAEHJJJJPAV1@JJ@Z 00453b30 f i j_objman.obj
 0001:00052b30       ?CopyKey@JSurface@@UAEHJJJJPAV1@JJ@Z 00453b30 f i j_objman.obj
 0001:00052b30       ?CopyAlpha@JSurfaceObject@@UAEHJJJJPAV1@JJ@Z 00453b30 f i j_objman.obj
 0001:00052b30       ?CopyNOT@JSurface@@UAEHJJJJPAV1@JJ@Z 00453b30 f i j_objman.obj
 0001:00052b30       ?CopyFrom@JSurface@@UAEHJJJJPAV1@JJ@Z 00453b30 f i j_objman.obj
 0001:00052b30       ?BlendFill@JSurface@@UAEHJJJJKPAV1@E@Z 00453b30 f i j_objman.obj
 0001:00052b30       ?Copy@JSurfaceObject@@UAEHJJJJPAV1@JJ@Z 00453b30 f i j_objman.obj
 0001:00052b30       ?CopyNOR@JSurface@@UAEHJJJJPAV1@JJ@Z 00453b30 f i j_objman.obj
 0001:00052b30       ?CopyXOR@JSurface@@UAEHJJJJPAV1@JJ@Z 00453b30 f i j_objman.obj
 0001:00052b30       ?CopyOR@JSurface@@UAEHJJJJPAV1@JJ@Z 00453b30 f i j_objman.obj
 0001:00052b30       ?CopyNAND@JSurface@@UAEHJJJJPAV1@JJ@Z 00453b30 f i j_objman.obj
 0001:00052b40       ??_EJSurface@@UAEPAXI@Z    00453b40 f i j_objman.obj
 0001:00052b40       ??_GJSurface@@UAEPAXI@Z    00453b40 f i j_objman.obj
 0001:00052b70       ??1JSurface@@UAE@XZ        00453b70 f i j_objman.obj
 0001:00052bc0       ?SetPixelIndex@JSurface8@@UAEXJJK@Z 00453bc0 f i j_objman.obj
 0001:00052be0       ?GetPixelIndex@JSurface8@@UAEKJJ@Z 00453be0 f i j_objman.obj
 0001:00052c00       ??_GJSurface8@@UAEPAXI@Z   00453c00 f i j_objman.obj
 0001:00052c00       ??_EJSurface8@@UAEPAXI@Z   00453c00 f i j_objman.obj
 0001:00052c30       ??1JSurface8@@UAE@XZ       00453c30 f i j_objman.obj
 0001:00052c80       ?Release@JSurface32@@UAEXXZ 00453c80 f i j_objman.obj
 0001:00052cb0       ?GetIntensity@JSurface32@@UAEJJJ@Z 00453cb0 f i j_objman.obj
 0001:00052cf0       ?SetPixelAlpha@JSurface32@@UAEXJJE@Z 00453cf0 f i j_objman.obj
 0001:00052d10       ?GetPixelAlpha@JSurface32@@UAEEJJ@Z 00453d10 f i j_objman.obj
 0001:00052d30       ?SetPixelIndex@JSurface32@@UAEXJJK@Z 00453d30 f i j_objman.obj
 0001:00052db0       ??_GJSurface32@@UAEPAXI@Z  00453db0 f i j_objman.obj
 0001:00052db0       ??_EJSurface32@@UAEPAXI@Z  00453db0 f i j_objman.obj
 0001:00052de0       ??1JSurface32@@UAE@XZ      00453de0 f i j_objman.obj
 0001:00052e60       ?JGXCreateThread@@YAPAVJThread@@XZ 00453e60 f   j_objman.obj
 0001:00052ec0       ?SetGrayscalePalette@JPalette@@QAEXXZ 00453ec0 f   j_pal.obj
 0001:00052ee0       ?SetDefaultPalette@JPalette@@QAEXXZ 00453ee0 f   j_pal.obj
 0001:00052f80       ?Copy@JPalette@@QAEXPAUtagRGBQUAD@@HHH@Z 00453f80 f   j_pal.obj
 0001:00052fe0       ?Clear@JPalette@@QAEXK@Z   00453fe0 f   j_pal.obj
 0001:00053020       ?Set@JPackedPalette@@QAEXAAVJPalette@@@Z 00454020 f   j_pal.obj
 0001:00053060       ?Distance@JPoint@@QAENABUtagPOINT@@@Z 00454060 f   j_point.obj
 0001:000530b0       ?Degree@JPoint@@QAENABUtagPOINT@@@Z 004540b0 f   j_point.obj
 0001:00053130       ?init_genrand@MT@@YAXK@Z   00454130 f   j_prng.obj
 0001:00053180       ?genrand_int32@MT@@YAKXZ   00454180 f   j_prng.obj
 0001:000532e0       @genrand_nativeint@0       004542e0 f   j_prng.obj
 0001:00053330       @genrand@4                 00454330 f   j_prng.obj
 0001:000533a0       ??4JExtent@@QAEAAV0@ABVJRect@@@Z 004543a0 f   j_rect.obj
 0001:000533d0       ?IsIntersect@JRect@@QBE_NABV1@@Z 004543d0 f   j_rect.obj
 0001:00053410       ?MultiplyRectH@JRect@@QAEXN@Z 00454410 f   j_rect.obj
 0001:00053460       ?MultiplyRectV@JRect@@QAEXN@Z 00454460 f   j_rect.obj
 0001:000534b0       ?TextToRect@JRect@@QAE_NPBG@Z 004544b0 f   j_rect.obj
 0001:00053590       ?RectToText@JRect@@QAEPBGXZ 00454590 f   j_rect.obj
 0001:000535c0       ?Center@JRect@@QBE?AVJPoint@@XZ 004545c0 f   j_rect.obj
 0001:000535f0       ?Distance@JRect@@QAENABUtagPOINT@@@Z 004545f0 f   j_rect.obj
 0001:00053750       ?IsEmpty@JRect@@QBE_NXZ    00454750 f   j_rect.obj
 0001:00053770       ??4JRect@@QAEAAV0@ABVJExtent@@@Z 00454770 f   j_rect.obj
 0001:00053770       ??0JRect@@QAE@ABVJExtent@@@Z 00454770 f   j_rect.obj
 0001:000538e0       ?Startup@JSocket@@SAHXZ    004548e0 f   j_sock.obj
 0001:00053910       ?Cleanup@JSocket@@SAXXZ    00454910 f   j_sock.obj
 0001:000539b0       ?SetCAPath@JSocket@@SAXABVJString@@@Z 004549b0 f   j_sock.obj
 0001:000539d0       ?SetProxyMode@JSocket@@SAXW4JSocketProxyOption@@PBDH11@Z 004549d0 f   j_sock.obj
 0001:00053bb0       ??0JSocket@@QAE@XZ         00454bb0 f   j_sock.obj
 0001:00053ca0       ?Release@JSocket@@QAEXXZ   00454ca0 f   j_sock.obj
 0001:00053cd0       ?Connect@JSocket@@QAEHPBDH@Z 00454cd0 f   j_sock.obj
 0001:00053d30       ?Connect@JSocket@@QAEHABVJSockAddr@@H@Z 00454d30 f   j_sock.obj
 0001:00053e10       ?ConnectReal@JSocket@@AAEHABVJSockAddr@@H@Z 00454e10 f   j_sock.obj
 0001:00054490       ?ConnectUDP@JSocket@@QAEHABVJSockAddr@@H@Z 00455490 f   j_sock.obj
 0001:00054540       ?SetSSLMode@JSocket@@QAE_NH_N@Z 00455540 f   j_sock.obj
 0001:000545a0       ?Status@JSocket@@QAEHXZ    004555a0 f   j_sock.obj
 0001:000545c0       ?ListenUDP@JSocket@@QAEHHHABVJSockAddr@@@Z 004555c0 f   j_sock.obj
 0001:00054680       ?AllowBroadcast@JSocket@@QAEXXZ 00455680 f   j_sock.obj
 0001:000546b0       ?Listen@JSocket@@QAEHHHABVJSockAddr@@@Z 004556b0 f   j_sock.obj
 0001:000547a0       ?Accept@JSocket@@QAEPAV1@XZ 004557a0 f   j_sock.obj
 0001:000547b0       ?AcceptFromSocket@JSocket@@SAPAV1@I@Z 004557b0 f   j_sock.obj
 0001:000548a0       ?Close@JSocket@@QAEXW4JSocketCloseOption@@@Z 004558a0 f   j_sock.obj
 0001:000549a0       ?SendString@JSocket@@QAEHPBD@Z 004559a0 f   j_sock.obj
 0001:000549d0       ?Send@JSocket@@QAEHPBDJ@Z  004559d0 f   j_sock.obj
 0001:00054a60       ?SendTo@JSocket@@QAEHVJSockAddr@@HPBDJ@Z 00455a60 f   j_sock.obj
 0001:00054b80       ?RecvFrom@JSocket@@QAEHPADJAAVJSockAddr@@AAH@Z 00455b80 f   j_sock.obj
 0001:00054be0       ?JunkRecvData@JSocket@@AAEXXZ 00455be0 f   j_sock.obj
 0001:00054c70       ?Recv@JSocket@@QAEHPADJ@Z  00455c70 f   j_sock.obj
 0001:00054d70       ?RecvLineSub@JSocket@@AAEHAAD@Z 00455d70 f   j_sock.obj
 0001:00054e40       ?RecvLine@JSocket@@QAEPADAAJ@Z 00455e40 f   j_sock.obj
 0001:000550a0       ?AddLog@JSocket@@QAEXPBDJ@Z 004560a0 f   j_sock.obj
 0001:00055100       ?WaitForDataIO@JSocket@@AAEHH@Z 00456100 f   j_sock.obj
 0001:000551f0       ?AsyncSelect@JSocket@@QAEHPAXIJ@Z 004561f0 f   j_sock.obj
 0001:00055240       ?SSLRelease@JSocket@@AAEXXZ 00456240 f   j_sock.obj
 0001:00055290       ??1JSocketSSLInfo@@QAE@XZ  00456290 f i j_sock.obj
 0001:00055330       ?ProcessX509Info@JSocket@@AAEXPAUssl_st@@@Z 00456330 f   j_sock.obj
 0001:000556a0       ?SSLInit@JSocket@@AAE_NXZ  004566a0 f   j_sock.obj
 0001:000559c0       ?GetTypeName@JSockAddr@@SIPBDW4JSockAddrProtocolType@@@Z 004569c0 f   j_sockaddr.obj
 0001:000559e0       ?GetConfigDispName@JSockAddr@@SIPAPBDAAK@Z 004569e0 f   j_sockaddr.obj
 0001:000559f0       ?GetConfig@JSockAddr@@SIKXZ 004569f0 f   j_sockaddr.obj
 0001:00055a00       ?GetConfigName@JSockAddr@@SIPBDK@Z 00456a00 f   j_sockaddr.obj
 0001:00055a20       ?SetConfig@JSockAddr@@SIKPBD@Z 00456a20 f   j_sockaddr.obj
 0001:00055a70       ?IsEnable@JSockAddr@@SI_NW4JSockAddrProtocolType@@@Z 00456a70 f   j_sockaddr.obj
 0001:00055ae0       ?SetAddr@JSockAddr@@QAEXW4JSockAddrPredefinedIP@@W4JSockAddrProtocolType@@@Z 00456ae0 f   j_sockaddr.obj
 0001:00055be0       ?IsLoopbackOrIgnoreAddr@JSockAddr@@QBE_NXZ 00456be0 f   j_sockaddr.obj
 0001:00055c40       ?GetAddressFamily@JSockAddr@@QBEHXZ 00456c40 f   j_sockaddr.obj
 0001:00055c50       ?IsIPv6@JSockAddr@@QBE_NXZ 00456c50 f   j_sockaddr.obj
 0001:00055c60       ?IsIPv4@JSockAddr@@QBE_NXZ 00456c60 f   j_sockaddr.obj
 0001:00055c70       ?ToIPv4@JSockAddr@@QBEXAAK@Z 00456c70 f   j_sockaddr.obj
 0001:00055ca0       ?ToIPv4Raw@JSockAddr@@QBEXAAK@Z 00456ca0 f   j_sockaddr.obj
 0001:00055cd0       ?FromIPv4@JSockAddr@@QAEXK@Z 00456cd0 f   j_sockaddr.obj
 0001:00055d00       ?FromIPv4Raw@JSockAddr@@QAEXK@Z 00456d00 f   j_sockaddr.obj
 0001:00055d20       ?ToIPv6@JSockAddr@@QBEXPAG@Z 00456d20 f   j_sockaddr.obj
 0001:00055d80       ?FromIPv6@JSockAddr@@QAEXPBG@Z 00456d80 f   j_sockaddr.obj
 0001:00055db0       ?ConvToIPv4@JSockAddr@@QAE_NXZ 00456db0 f   j_sockaddr.obj
 0001:00055e00       ?ConvToIPv6@JSockAddr@@QAE_NXZ 00456e00 f   j_sockaddr.obj
 0001:00055e40       ?FromStorage@JSockAddr@@QAE_NPAUsockaddr@@AAH@Z 00456e40 f   j_sockaddr.obj
 0001:00055ee0       ?ToStorage@JSockAddr@@QBE_NAAUsockaddr_storage@@HAAK@Z 00456ee0 f   j_sockaddr.obj
 0001:00055f90       ??8JSockAddr@@QBE_NABV0@@Z 00456f90 f   j_sockaddr.obj
 0001:00056000       ?IPAddrToStrA@JSockAddr@@QBEPAD_N@Z 00457000 f   j_sockaddr.obj
 0001:00056240       ?IPAddrToStrW@JSockAddr@@QBEPAG_N@Z 00457240 f   j_sockaddr.obj
 0001:00056290       ?TranslateNumName@JSockAddr@@QAE_NPBD@Z 00457290 f   j_sockaddr.obj
 0001:00056490       ?ResolveName@JSockAddr@@QAE_NPBD@Z 00457490 f   j_sockaddr.obj
 0001:000565e0       ?IsLocalAddr@JSockAddr@@QBE_NXZ 004575e0 f   j_sockaddr.obj
 0001:000568b0       ?GetLocalAddr@JSockAddr@@SIABV1@XZ 004578b0 f   j_sockaddr.obj
 0001:00056920       ?GetLocalAddrIPv4@JSockAddr@@SIABV1@XZ 00457920 f   j_sockaddr.obj
 0001:000569c0       ?GetLocalAddrIPv6@JSockAddr@@SIABV1@XZ 004579c0 f   j_sockaddr.obj
 0001:00056a60       ?GetLocalAddrList@JSockAddr@@SIPBV1@AAK@Z 00457a60 f   j_sockaddr.obj
 0001:00056a80       ?IsOnline@JSockAddr@@SI_NXZ 00457a80 f   j_sockaddr.obj
 0001:00056aa0       ??0JTokenStream@@QAE@XZ    00457aa0 f   j_stoken.obj
 0001:00056ad0       ??1JTokenStream@@QAE@XZ    00457ad0 f   j_stoken.obj
 0001:00056ae0       ?ReadEOL@JTokenStream@@IAEIAAPAD@Z 00457ae0 f   j_stoken.obj
 0001:00056b90       ?SetSeparator@JTokenStream@@QAEXD@Z 00457b90 f   j_stoken.obj
 0001:00056bb0       ?Open@JTokenStream@@QAEHPBD@Z 00457bb0 f   j_stoken.obj
 0001:00056cc0       ?Open@JTokenStream@@QAEHKPAD@Z 00457cc0 f   j_stoken.obj
 0001:00056dd0       ?Init@JTokenStream@@IAEXAAVJMappedStream@@@Z 00457dd0 f   j_stoken.obj
 0001:00056e80       ?Close@JTokenStream@@QAEXXZ 00457e80 f   j_stoken.obj
 0001:00056eb0       ?ReadToFileEnd@JTokenStream@@QAEPADXZ 00457eb0 f   j_stoken.obj
 0001:00056ec0       ?ReadToken@JTokenStream@@IAEPADH@Z 00457ec0 f   j_stoken.obj
 0001:00056f00       ?NextToken@JTokenStream@@IAEHH@Z 00457f00 f   j_stoken.obj
 0001:00056ff0       ?IsNextLineExist@JTokenStream@@QAE_NXZ 00457ff0 f   j_stoken.obj
 0001:00057010       ?NextLineIfNotLineEnd@JTokenStream@@QAEHXZ 00458010 f   j_stoken.obj
 0001:00057030       ?ProcessReturnPointer@JTokenStream@@IAEPADPAD@Z 00458030 f   j_stoken.obj
 0001:000570a0       ??1JString@@QAE@XZ         004580a0 f   j_str.obj
 0001:000570a0       ??1JWString@@QAE@XZ        004580a0 f   j_str.obj
 0001:000570d0       ??4JString@@QAEAAV0@PBD@Z  004580d0 f   j_str.obj
 0001:000571d0       ??4JString@@QAEAAV0@ABV0@@Z 004581d0 f   j_str.obj
 0001:000572c0       ?Cat@JString@@QAEXPBDK@Z   004582c0 f   j_str.obj
 0001:00057330       ??9JString@@QBE_NPBD@Z     00458330 f   j_str.obj
 0001:00057350       ?Remove@JString@@QAE_NPBD@Z 00458350 f   j_str.obj
 0001:00057420       ?Remove@JString@@QAE_NJJ@Z 00458420 f   j_str.obj
 0001:00057490       ?RemoveLast@JString@@QAEXJ@Z 00458490 f   j_str.obj
 0001:00057510       ?Replace@JString@@QAEHPBD0@Z 00458510 f   j_str.obj
 0001:000576a0       ?Replace@JString@@QAEHDD@Z 004586a0 f   j_str.obj
 0001:000576e0       ?ReplaceCharList@JString@@QAEHPBDD@Z 004586e0 f   j_str.obj
 0001:00057730       ?Find@JString@@QBEJPBDJ@Z  00458730 f   j_str.obj
 0001:00057760       ?FindList@JString@@QBEJPBDJK@Z 00458760 f   j_str.obj
 0001:000577c0       ?ReverseFind@JString@@QBEJPBDJ@Z 004587c0 f   j_str.obj
 0001:00057820       ?ReverseFindList@JString@@QBEJPBDJK@Z 00458820 f   j_str.obj
 0001:00057880       ?Replace@JString@@QAEHKKPBD@Z 00458880 f   j_str.obj
 0001:00057a00       ?Extract@JString@@QBE?AV1@KK@Z 00458a00 f   j_str.obj
 0001:00057b50       ?Insert@JString@@QAEHKPBD@Z 00458b50 f   j_str.obj
 0001:00057cb0       ?ConvEUCKRtoISOKR@JString@@QAEHXZ 00458cb0 f   j_str.obj
 0001:00057f90       ?ConvHZtoGB2312@JString@@QAEHXZ 00458f90 f   j_str.obj
 0001:00058010       ?ConvGB2312toHZ@JString@@QAEHXZ 00459010 f   j_str.obj
 0001:00058280       ?ConvEUCtoSJIS@JString@@QAEHXZ 00459280 f   j_str.obj
 0001:00058380       ?ConvSJIStoEUC@JString@@QAEHXZ 00459380 f   j_str.obj
 0001:00058660       ?ConvISOtoWindows@JString@@AAEHXZ 00459660 f   j_str.obj
 0001:00058780       ?ConvSJIStoJIS@JString@@QAEHXZ 00459780 f   j_str.obj
 0001:00058ad0       ??0JString@@QAE@ABVJWString@@@Z 00459ad0 f   j_str.obj
 0001:00058b20       ??0JString@@QAE@PBG@Z      00459b20 f   j_str.obj
 0001:00058b70       ??4JString@@QAEAAV0@ABVJWString@@@Z 00459b70 f   j_str.obj
 0001:00058b90       ??4JString@@QAEAAV0@PBG@Z  00459b90 f   j_str.obj
 0001:00058bb0       ??YJString@@QAEAAV0@ABVJWString@@@Z 00459bb0 f   j_str.obj
 0001:00058c10       ??YJString@@QAEAAV0@PBG@Z  00459c10 f   j_str.obj
 0001:00058ca0       ?ToMbs@JString@@QAEKABVJWString@@PBD@Z 00459ca0 f   j_str.obj
 0001:00058cc0       ?ToMbs@JString@@QAEKABVJWString@@H@Z 00459cc0 f   j_str.obj
 0001:00058ce0       ?ToMbs@JString@@QAEKPBGPBD@Z 00459ce0 f   j_str.obj
 0001:00058dc0       ?ToMbs@JString@@QAEKPBGH@Z 00459dc0 f   j_str.obj
 0001:00059010       ?ToMbsFunc@JString@@QAEKPBGH@Z 0045a010 f   j_str.obj
 0001:000591b0       ?ConvUnicodeToUTF8@JString@@QAEKPBG@Z 0045a1b0 f   j_str.obj
 0001:00059410       ?Add@JString@@QAEXD@Z      0045a410 f i j_str.obj
 0001:00059520       ?SwapBuffer@?$JArray@D@@QAEXAAV1@@Z 0045a520 f i j_str.obj
 0001:000596b0       ?JGXCreateStreamObject@@YAPAVJStreamObject@@XZ 0045a6b0 f   j_stream.obj
 0001:00059710       ?Create@JSurface32@@UAEHPAVJSurfaceObject@@JJJ@Z 0045a710 f   j_surf32.obj
 0001:00059770       ?Create@JSurface32@@UAEHJJJ@Z 0045a770 f   j_surf32.obj
 0001:000597e0       ?CopyFrom@JSurface32@@UAEHJJJJPAVJSurface@@JJ@Z 0045a7e0 f   j_surf32.obj
 0001:00059870       ?CopyKey@JSurface32@@UAEHJJJJPAVJSurface@@JJ@Z 0045a870 f   j_surf32.obj
 0001:00059950       ?ColorFill@JSurface32@@UAEHJJJJK@Z 0045a950 f   j_surf32.obj
 0001:000599d0       ?AlphaFill@JSurface32@@UAEHJJJJE@Z 0045a9d0 f   j_surf32.obj
 0001:00059a20       ?CopyAlpha@JSurface32@@UAEHJJJJPAVJSurface@@JJ@Z 0045aa20 f   j_surf32.obj
 0001:00059c50       ?ColorFillAlpha@JSurface32@@UAEHJJJJKE@Z 0045ac50 f   j_surf32.obj
 0001:00059d60       ?StretchCopy@JSurface32@@UAEHJJJJPAVJSurface@@JJJJ@Z 0045ad60 f   j_surf32.obj
 0001:0005a0d0       ?StretchCopyEx@JSurface32@@UAEHJJJJPAVJSurface@@JJJJPAJ1@Z 0045b0d0 f   j_surf32.obj
 0001:0005a4a0       ?ZoomCopy@JSurface32@@UAEHJJJJPAVJSurface@@JJJJJJ@Z 0045b4a0 f   j_surf32.obj
 0001:0005a680       ?CopyAND@JSurface32@@UAEHJJJJPAVJSurface@@JJ@Z 0045b680 f   j_surf32.obj
 0001:0005a7a0       ?CopyOR@JSurface32@@UAEHJJJJPAVJSurface@@JJ@Z 0045b7a0 f   j_surf32.obj
 0001:0005a8c0       ?CopyXOR@JSurface32@@UAEHJJJJPAVJSurface@@JJ@Z 0045b8c0 f   j_surf32.obj
 0001:0005a9e0       ?CopyNOT@JSurface32@@UAEHJJJJPAVJSurface@@JJ@Z 0045b9e0 f   j_surf32.obj
 0001:0005ab10       ?CopyNAND@JSurface32@@UAEHJJJJPAVJSurface@@JJ@Z 0045bb10 f   j_surf32.obj
 0001:0005ac40       ?CopyNOR@JSurface32@@UAEHJJJJPAVJSurface@@JJ@Z 0045bc40 f   j_surf32.obj
 0001:0005ad70       ?BlendFill@JSurface32@@UAEHJJJJKPAVJSurface@@E@Z 0045bd70 f   j_surf32.obj
 0001:0005b0f0       ?BlendDarken@JSurface32@@UAEHJJJJPAVJSurface@@JJ0@Z 0045c0f0 f   j_surf32.obj
 0001:0005b540       ?BlendLighten@JSurface32@@UAEHJJJJPAVJSurface@@JJ0@Z 0045c540 f   j_surf32.obj
 0001:0005b970       ?BlendMultiply@JSurface32@@UAEHJJJJPAVJSurface@@JJ0@Z 0045c970 f   j_surf32.obj
 0001:0005bdf0       ?BlendScreen@JSurface32@@UAEHJJJJPAVJSurface@@JJ0@Z 0045cdf0 f   j_surf32.obj
 0001:0005c2d0       ?BlendDissolve@JSurface32@@UAEHJJJJPAVJSurface@@JJ0@Z 0045d2d0 f   j_surf32.obj
 0001:0005c640       ?BlendColor@JSurface32@@UAEHJJJJPAVJSurface@@JJ0@Z 0045d640 f   j_surf32.obj
 0001:0005c640       ?BlendLuminosity@JSurface32@@UAEHJJJJPAVJSurface@@JJ0@Z 0045d640 f   j_surf32.obj
 0001:0005c640       ?BlendOverlay@JSurface32@@UAEHJJJJPAVJSurface@@JJ0@Z 0045d640 f   j_surf32.obj
 0001:0005c640       ?BlendSaturation@JSurface32@@UAEHJJJJPAVJSurface@@JJ0@Z 0045d640 f   j_surf32.obj
 0001:0005c640       ?BlendNormal@JSurface32@@UAEHJJJJPAVJSurface@@JJ0@Z 0045d640 f   j_surf32.obj
 0001:0005c640       ?BlendHue@JSurface32@@UAEHJJJJPAVJSurface@@JJ0@Z 0045d640 f   j_surf32.obj
 0001:0005cad0       ?BlendHardLight@JSurface32@@UAEHJJJJPAVJSurface@@JJ0@Z 0045dad0 f   j_surf32.obj
 0001:0005d090       ?BlendSoftLight@JSurface32@@UAEHJJJJPAVJSurface@@JJ0@Z 0045e090 f   j_surf32.obj
 0001:0005d630       ?BlendDifference@JSurface32@@UAEHJJJJPAVJSurface@@JJ0@Z 0045e630 f   j_surf32.obj
 0001:0005db30       ?SetAlphaPlane@JSurface32@@UAEXPBE@Z 0045eb30 f   j_surf32.obj
 0001:0005dc30       ?GetAlphaPlane@JSurface32@@UAEPAEXZ 0045ec30 f   j_surf32.obj
 0001:0005dcb0       ?Create@JSurface8@@UAEHPAVJSurfaceObject@@JJJ@Z 0045ecb0 f   j_surf8.obj
 0001:0005dd10       ?Create@JSurface8@@UAEHJJJ@Z 0045ed10 f   j_surf8.obj
 0001:0005dd80       ?CopyFrom@JSurface8@@UAEHJJJJPAVJSurface@@JJ@Z 0045ed80 f   j_surf8.obj
 0001:0005de20       ?ColorFill@JSurface8@@UAEHJJJJK@Z 0045ee20 f   j_surf8.obj
 0001:0005dec0       ?CopyAlpha@JSurface8@@UAEHJJJJPAVJSurface@@JJ@Z 0045eec0 f   j_surf8.obj
 0001:0005dff0       ?ColorFillAlpha@JSurface8@@UAEHJJJJKE@Z 0045eff0 f   j_surf8.obj
 0001:0005e080       ?StretchCopy@JSurface8@@UAEHJJJJPAVJSurface@@JJJJ@Z 0045f080 f   j_surf8.obj
 0001:0005e3b0       ?StretchCopyEx@JSurface8@@UAEHJJJJPAVJSurface@@JJJJPAJ1@Z 0045f3b0 f   j_surf8.obj
 0001:0005e710       ?CopyAND@JSurface8@@UAEHJJJJPAVJSurface@@JJ@Z 0045f710 f   j_surf8.obj
 0001:0005e830       ?CopyOR@JSurface8@@UAEHJJJJPAVJSurface@@JJ@Z 0045f830 f   j_surf8.obj
 0001:0005e950       ?CopyXOR@JSurface8@@UAEHJJJJPAVJSurface@@JJ@Z 0045f950 f   j_surf8.obj
 0001:0005ea70       ?CopyNOT@JSurface8@@UAEHJJJJPAVJSurface@@JJ@Z 0045fa70 f   j_surf8.obj
 0001:0005eba0       ?CopyNAND@JSurface8@@UAEHJJJJPAVJSurface@@JJ@Z 0045fba0 f   j_surf8.obj
 0001:0005ecd0       ?CopyNOR@JSurface8@@UAEHJJJJPAVJSurface@@JJ@Z 0045fcd0 f   j_surf8.obj
 0001:0005ee00       ?SetupSurface@JSurface@@UAEHXZ 0045fe00 f   j_surfc.obj
 0001:0005ee90       ?Release@JSurface@@UAEXXZ  0045fe90 f   j_surfc.obj
 0001:0005eed0       ?AdjustParameters@JSurface@@QAEHPAV1@AAJ11111@Z 0045fed0 f   j_surfc.obj
 0001:0005efd0       ??_GJThread@@UAEPAXI@Z     0045ffd0 f i j_thread.obj
 0001:0005efd0       ??_EJThread@@UAEPAXI@Z     0045ffd0 f i j_thread.obj
 0001:0005f000       ?SetLoop@JThread@@QAEXPAVJThreadLoop@@@Z 00460000 f   j_thread.obj
 0001:0005f050       ?AddNotify@JThread@@SAXP6AXKPAX0@Z@Z 00460050 f   j_thread.obj
 0001:0005f190       ?SendNotify@JThread@@SAXKPAX0@Z 00460190 f   j_thread.obj
 0001:0005f1d0       ??0JWinFile@@QAE@XZ        004601d0 f   j_winfile.obj
 0001:0005f1f0       ?Length@JStreamObject@@UAEKXZ 004601f0 f i j_winfile.obj
 0001:0005f1f0       ?GetNum@?$JArray@J@@QBEKXZ 004601f0 f i j_winfile.obj
 0001:0005f200       ?Unlock@JStreamObject@@UAEHXZ 00460200 f i j_winfile.obj
 0001:0005f200       ?Lock@JStreamObject@@UAEHXZ 00460200 f i j_winfile.obj
 0001:0005f200       ?IsExecutable@SPLogManagerScript@@UAEHXZ 00460200 f i j_winfile.obj
 0001:0005f200       ?InitInstance@JThreadLoop@@UAEHXZ 00460200 f i j_winfile.obj
 0001:0005f200       ?Pixel@JSurfaceObject@@UAEJXZ 00460200 f i j_winfile.obj
 0001:0005f210       ??_EJWinFile@@UAEPAXI@Z    00460210 f i j_winfile.obj
 0001:0005f210       ??_GJWinFile@@UAEPAXI@Z    00460210 f i j_winfile.obj
 0001:0005f240       ??1JWinFile@@UAE@XZ        00460240 f   j_winfile.obj
 0001:0005f290       ??1JStreamObject@@UAE@XZ   00460290 f i j_winfile.obj
 0001:0005f2a0       ??_GJStreamObject@@UAEPAXI@Z 004602a0 f i j_winfile.obj
 0001:0005f2a0       ??_EJStreamObject@@UAEPAXI@Z 004602a0 f i j_winfile.obj
 0001:0005f2d0       ?Open@JWinFile@@UAEHPBDH@Z 004602d0 f   j_winfile.obj
 0001:0005f370       ?OpenW@JWinFile@@UAEHPBGH@Z 00460370 f   j_winfile.obj
 0001:0005f460       ?Close@JWinFile@@UAEXXZ    00460460 f   j_winfile.obj
 0001:0005f490       ?Read@JWinFile@@UAEEXZ     00460490 f   j_winfile.obj
 0001:0005f4d0       ?Read@JWinFile@@UAEKPAXK@Z 004604d0 f   j_winfile.obj
 0001:0005f500       ?Write@JWinFile@@UAEKE@Z   00460500 f   j_winfile.obj
 0001:0005f530       ?Write@JWinFile@@UAEKPBXK@Z 00460530 f   j_winfile.obj
 0001:0005f560       ?Seek@JWinFile@@UAEHJH@Z   00460560 f   j_winfile.obj
 0001:0005f5c0       ??0JWinThread@@QAE@XZ      004605c0 f   j_wintrd.obj
 0001:0005f630       ??1JThread@@UAE@XZ         00460630 f i j_wintrd.obj
 0001:0005f640       ?Handle@JWinThread@@UAEPAXXZ 00460640 f i j_wintrd.obj
 0001:0005f640       ?Lock@JDIBSurface@@UAEPAEXZ 00460640 f i j_wintrd.obj
 0001:0005f650       ?IsSuspend@JWinThread@@UAE_NXZ 00460650 f i j_wintrd.obj
 0001:0005f660       ?ThreadStarted@JWinThread@@UAEHXZ 00460660 f i j_wintrd.obj
 0001:0005f670       ?Sleep@JWinThread@@UAEHJ@Z 00460670 f i j_wintrd.obj
 0001:0005f690       ?SetMsgQueueNeed@JWinThread@@UAEX_N@Z 00460690 f i j_wintrd.obj
 0001:0005f6a0       ?Lock@JWinThread@@UAE_NJ@Z 004606a0 f i j_wintrd.obj
 0001:0005f6b0       ?Unlock@JWinThread@@UAEXXZ 004606b0 f i j_wintrd.obj
 0001:0005f6c0       ??_EJWinThread@@UAEPAXI@Z  004606c0 f i j_wintrd.obj
 0001:0005f6c0       ??_GJWinThread@@UAEPAXI@Z  004606c0 f i j_wintrd.obj
 0001:0005f6f0       ??1JWinThread@@UAE@XZ      004606f0 f   j_wintrd.obj
 0001:0005f750       ?Start@JWinThread@@UAEHJ@Z 00460750 f   j_wintrd.obj
 0001:0005f800       ?Suspend@JWinThread@@UAEHXZ 00460800 f   j_wintrd.obj
 0001:0005f820       ?Resume@JWinThread@@UAEHXZ 00460820 f   j_wintrd.obj
 0001:0005f840       ?ForceResume@JWinThread@@UAEHXZ 00460840 f   j_wintrd.obj
 0001:0005f860       ?Exit@JWinThread@@UAEHXZ   00460860 f   j_wintrd.obj
 0001:0005f8b0       ?Terminate@JWinThread@@UAEHXZ 004608b0 f   j_wintrd.obj
 0001:0005f900       ?Release@JWinThread@@QAEXXZ 00460900 f   j_wintrd.obj
 0001:0005f910       ?SetPriority@JWinThread@@UAEXH@Z 00460910 f   j_wintrd.obj
 0001:0005f970       ?SetInterval@JWinThread@@UAEHJ@Z 00460970 f   j_wintrd.obj
 0001:0005fab0       ?WaitForThreadRelease@JWinThread@@UAEHH@Z 00460ab0 f   j_wintrd.obj
 0001:0005fb00       ?PostQueue@JWinThread@@UAE_NHPAX@Z 00460b00 f   j_wintrd.obj
 0001:0005fb50       ?GetQueue@JWinThread@@UAEPAXAAH@Z 00460b50 f   j_wintrd.obj
 0001:0005fbe0       ?JGXGetLocaleTable@@YAPBUtagJGX_LOCALE_TABLE@@XZ 00460be0 f   j_wstr.obj
 0001:0005fc30       ??4JWString@@QAEAAV0@PBG@Z 00460c30 f   j_wstr.obj
 0001:0005fd40       ??4JWString@@QAEAAV0@ABV0@@Z 00460d40 f   j_wstr.obj
 0001:0005fe40       ?Cat@JWString@@QAEXPBGK@Z  00460e40 f   j_wstr.obj
 0001:0005fec0       ?Remove@JWString@@QAE_NPBG@Z 00460ec0 f   j_wstr.obj
 0001:0005ffb0       ?RemoveLast@JWString@@QAEXJ@Z 00460fb0 f   j_wstr.obj
 0001:00060040       ?RemoveToLast@JWString@@QAEXJ@Z 00461040 f   j_wstr.obj
 0001:00060140       ?Remove@JWString@@QAE_NJJ@Z 00461140 f   j_wstr.obj
 0001:000601b0       ?Replace@JWString@@QAEHPBG0@Z 004611b0 f   j_wstr.obj
 0001:00060360       ?Replace@JWString@@QAEHGG@Z 00461360 f   j_wstr.obj
 0001:000603a0       ?ReplaceCharList@JWString@@QAEHPBGG@Z 004613a0 f   j_wstr.obj
 0001:000603f0       ?Find@JWString@@QBEJPBGJ@Z 004613f0 f   j_wstr.obj
 0001:00060420       ?FindList@JWString@@QBEJPBGJK@Z 00461420 f   j_wstr.obj
 0001:00060490       ?ReverseFindList@JWString@@QBEJPBGJK@Z 00461490 f   j_wstr.obj
 0001:00060500       ?Replace@JWString@@QAEHKKPBG@Z 00461500 f   j_wstr.obj
 0001:000606a0       ?ExtractRight@JWString@@QBE?AV1@K@Z 004616a0 f   j_wstr.obj
 0001:000606f0       ?ExtractLeft@JWString@@QBE?AV1@K@Z 004616f0 f   j_wstr.obj
 0001:00060800       ?Insert@JWString@@QAEHKG@Z 00461800 f   j_wstr.obj
 0001:00060910       ??YJWString@@QAEAAV0@PBD@Z 00461910 f   j_wstr.obj
 0001:00060980       ?ConvUTF8ToUnicode@JWString@@AAEKPBD@Z 00461980 f   j_wstr.obj
 0001:00060bd0       ?ConvMSUnicode@JWString@@QAEXXZ 00461bd0 f   j_wstr.obj
 0001:00060c40       ?GetDefaultCodePage@JWString@@SIHXZ 00461c40 f   j_wstr.obj
 0001:00060c40       _ssl_ok                    00461c40 f   j_wstr.obj
 0001:00060c50       ?GetCodePage@JWString@@SIHPBD@Z 00461c50 f   j_wstr.obj
 0001:00060d50       ?GetCodePageText@JWString@@SIPBDH@Z 00461d50 f   j_wstr.obj
 0001:00060d80       ?ToUnicode@JWString@@QAEKPBD0@Z 00461d80 f   j_wstr.obj
 0001:00060e80       ?ToUnicode@JWString@@QAEKPBDH@Z 00461e80 f   j_wstr.obj
 0001:000610f0       ?ToUnicodeFunc@JWString@@AAEKPBDH@Z 004620f0 f   j_wstr.obj
 0001:00061210       ?JGXMakeSystemPath@@YAPBDPBD@Z 00462210 f   jgxbase.obj
 0001:00061310       ?atol_impl@@YIJPBD@Z       00462310 f   libc_custom.obj
 0001:00061350       ?atoul_impl@@YIKPBD@Z      00462350 f   libc_custom.obj
 0001:00061390       ?wtol_impl@@YIJPBG@Z       00462390 f   libc_custom.obj
 0001:000613f0       ?wtoul_impl@@YIKPBG@Z      004623f0 f   libc_custom.obj
 0001:00061490       ?ultowcs@@YIPBGK@Z         00462490 f   libc_custom.obj
 0001:000614b0       ?ltowcs@@YIPBGJ@Z          004624b0 f   libc_custom.obj
 0001:000614d0       ?malloc_text@@YAPADPBD@Z   004624d0 f   libc_custom.obj
 0001:00061520       ?stricmp_custom@@YIHPBD0@Z 00462520 f   libc_custom.obj
 0001:00061590       ?wcsicmp_custom@@YIHPBG0@Z 00462590 f   libc_custom.obj
 0001:00061630       ?strnicmp_custom@@YIHPBD0I@Z 00462630 f   libc_custom.obj
 0001:000616e0       ?wcsnicmp_custom@@YIHPBG0I@Z 004626e0 f   libc_custom.obj
 0001:000617c0       ?stricmp_opt@@YIHPBD0@Z    004627c0 f   libc_custom.obj
 0001:00061820       ?wcsicmp_opt@@YIHPBG0@Z    00462820 f   libc_custom.obj
 0001:000618a0       ?strnicmp_opt@@YIHPBD0I@Z  004628a0 f   libc_custom.obj
 0001:00061930       ?wcsnicmp_opt@@YIHPBG0I@Z  00462930 f   libc_custom.obj
 0001:000619f0       ?strstri_custom@@YIPADPBD0@Z 004629f0 f   libc_custom.obj
 0001:00061ab0       ?wcsstri_custom@@YIPAGPBG0@Z 00462ab0 f   libc_custom.obj
 0001:00061bd0       ?strstri_opt@@YIPADPBD0@Z  00462bd0 f   libc_custom.obj
 0001:00061c80       ?wcsstri_opt@@YIPAGPBG0@Z  00462c80 f   libc_custom.obj
 0001:00061d70       ?wcs_cutctrlchar@@YIPAGPAG@Z 00462d70 f   libc_custom.obj
 0001:00061dd0       ?wcs_isemptystring@@YI_NPBG@Z 00462dd0 f   libc_custom.obj
 0001:00061e00       ?wcsicmpex@@YIHPBG0@Z      00462e00 f   libc_custom.obj
 0001:00062170       ?wcsnicmpex@@YIHPBG0I@Z    00463170 f   libc_custom.obj
 0001:000623d0       ?wcsstriex@@YIPBGPBG0@Z    004633d0 f   libc_custom.obj
 0001:00062450       ?wcsicmp_printchar@@YIHPBG0@Z 00463450 f   libc_custom.obj
 0001:00062500       ?strlcat@@YAIPADPBDI@Z     00463500 f   libc_custom.obj
 0001:00062570       ?strlcpy@@YAIPADPBDI@Z     00463570 f   libc_custom.obj
 0001:000625c0       ?wcslcpy@@YAIPAGPBGI@Z     004635c0 f   libc_custom.obj
 0001:00062620       _MMAG_hanalyze             00463620 f   M2BC.OBJ
 0001:00062910       _MMAG_getpc                00463910 f   M2BC.OBJ
 0001:000629c0       _MMAG_decordMagPixel       004639c0 f   M2BC.OBJ
 0001:00062c20       _pi_read_init              00463c20 f   piread.obj
 0001:00062c40       _pi_read_end               00463c40 f   piread.obj
 0001:00062c60       _pi_read_header            00463c60 f   piread.obj
 0001:00062fd0       _pi_read_palette           00463fd0 f   piread.obj
 0001:000630b0       _pi_read_row_init          004640b0 f   piread.obj
 0001:00063310       _pi_read_image             00464310 f   piread.obj
 0001:00063350       _pi_read_row               00464350 f   piread.obj
 0001:00063a60       _pi_read_init_io           00464a60 f   piread.obj
 0001:00063aa0       _pi_read_end_io            00464aa0 f   piread.obj
 0001:00063af0       _sp_resetstkoflw           00464af0 f   resetstk.obj
 0001:00063c50       ??0SPAdjustPrivADVAPI32@@QAE@XZ 00464c50 f   sp_adjustpriv.obj
 0001:00063d40       ??1SPAdjustPrivADVAPI32@@QAE@XZ 00464d40 f   sp_adjustpriv.obj
 0001:00063d90       ?OpenProcessToken@SPAdjustPrivADVAPI32@@QAEHPAXKPAPAX@Z 00464d90 f   sp_adjustpriv.obj
 0001:00063dc0       ?LookupPrivilegeValueA@SPAdjustPrivADVAPI32@@QAEHPAD0PAU_LUID@@@Z 00464dc0 f   sp_adjustpriv.obj
 0001:00063df0       ?AdjustTokenPrivileges@SPAdjustPrivADVAPI32@@QAEHPAXHPAU_TOKEN_PRIVILEGES@@K1PAK@Z 00464df0 f   sp_adjustpriv.obj
 0001:00063e20       ?GetTokenInformation@SPAdjustPrivADVAPI32@@QAEHPAXW4_TOKEN_INFORMATION_CLASS@@0KPAK@Z 00464e20 f   sp_adjustpriv.obj
 0001:00063e50       ??0SPAdjustPriv@@QAE@PADH@Z 00464e50 f   sp_adjustpriv.obj
 0001:00063f30       ??1SPAdjustPriv@@QAE@XZ    00464f30 f   sp_adjustpriv.obj
 0001:00064050       ?GetSPNTPrivSystem@@YAAAVSPNTPrivSystem@@XZ 00465050 f   sp_adjustpriv.obj
 0001:000640a0       ??0SPNTPrivSystem@@QAE@XZ  004650a0 f i sp_adjustpriv.obj
 0001:000640b0       ??1SPNTPrivSystem@@QAE@XZ  004650b0 f i sp_adjustpriv.obj
 0001:000640c0       ?IsNT@SPNTPrivSystem@@AAE_NXZ 004650c0 f   sp_adjustpriv.obj
 0001:00064100       ?SetPriv@SPNTPrivSystem@@QAE_NPADH@Z 00465100 f   sp_adjustpriv.obj
 0001:000641c0       ?IsUAC@SPNTPrivSystem@@QAE_NXZ 004651c0 f   sp_adjustpriv.obj
 0001:00064280       ?Create@SPCollisionProp@@SAPAV1@J@Z 00465280 f   sp_anime.obj
 0001:00064340       ?AddRef@SPCollisionProp@@QAEXXZ 00465340 f   sp_anime.obj
 0001:00064350       ?Release@SPCollisionProp@@QAE_NXZ 00465350 f   sp_anime.obj
 0001:00064390       ??1SPCollisionProp@@AAE@XZ 00465390 f i sp_anime.obj
 0001:000643f0       ?DrawCollision@SPCollisionProp@@QAEXPAXABUtagPOINT@@@Z 004653f0 f   sp_anime.obj
 0001:00064500       ?GetCollisionType@SPCollisionProp@@QAEPBGXZ 00465500 f   sp_anime.obj
 0001:00064520       ?IsCollide@SPCollisionProp@@QAE_NJJ@Z 00465520 f   sp_anime.obj
 0001:000646d0       ?SetFromTableText@SPCollisionProp@@QAEH_NPAG@Z 004656d0 f   sp_anime.obj
 0001:00064a70       ?CalcBoundingRect@SPCollisionProp@@AAE_NXZ 00465a70 f   sp_anime.obj
 0001:00064af0       ?Create@SPAnimeScript@@SAPAV1@J@Z 00465af0 f   sp_anime.obj
 0001:00064b80       ?AddRef@SPAnimeScript@@QAEXXZ 00465b80 f   sp_anime.obj
 0001:00064b90       ?Release@SPAnimeScript@@QAE_NXZ 00465b90 f   sp_anime.obj
 0001:00064bd0       ??1SPAnimeScript@@AAE@XZ   00465bd0 f   sp_anime.obj
 0001:00064cd0       ?ExecuteBind@SPAnimeScript@@QAEXPAVSPSerikoTask@@AAV?$JArray@VSPSerikoAnimationPlayPat@@@@AAV?$JArray@J@@PAVSPAnimeBase@@@Z 00465cd0 f   sp_anime.obj
 0001:00064eb0       ?Execute@SPAnimeScript@@QAEXPAVSPSerikoTask@@JAAV?$JArray@VSPSerikoAnimationPlayPat@@@@@Z 00465eb0 f   sp_anime.obj
 0001:00065030       ?AllWait@SPAnimeScript@@QAEKXZ 00466030 f   sp_anime.obj
 0001:00065060       ??0SPAnimeBase@@QAE@PAVSPGhost@@AAV?$SPSparsePtrArray@PAVSPAnimeBase@@@@@Z 00466060 f   sp_anime.obj
 0001:00065140       ?InitValue@SPAnimeBase@@QAEXXZ 00466140 f   sp_anime.obj
 0001:00065180       ??1SPAnimeBase@@QAE@XZ     00466180 f   sp_anime.obj
 0001:00065270       ?LoadScript@SPAnimeBase@@QAEHPAD@Z 00466270 f   sp_anime.obj
 0001:00065770       ?FindScript@SPAnimeBase@@QAEJJ@Z 00466770 f   sp_anime.obj
 0001:000657b0       ?GetScript@SPAnimeBase@@QAEPAVSPAnimeScript@@J@Z 004667b0 f   sp_anime.obj
 0001:000657e0       ?AddScript@SPAnimeBase@@QAEXPAVSPAnimeScript@@@Z 004667e0 f   sp_anime.obj
 0001:000659e0       ?LoadAreaNew@SPAnimeBase@@QAEHPAD@Z 004669e0 f   sp_anime.obj
 0001:000660c0       ?AddFromAnotherBase@SPAnimeBase@@QAEXPAV1@@Z 004670c0 f   sp_anime.obj
 0001:00066270       ?Release@SPAnimeBase@@QAEXXZ 00467270 f   sp_anime.obj
 0001:00066330       ?AllBindIDList@SPAnimeBase@@QAEXAAV?$JArray@J@@@Z 00467330 f   sp_anime.obj
 0001:00066490       ?BindOverlay@SPAnimeBase@@QAEXPAVSPSerikoTask@@AAV?$JArray@VSPSerikoAnimationPlayPat@@@@AAV?$JArray@J@@PAVJSurface@@PAXHH@Z 00467490 f   sp_anime.obj
 0001:00066720       ?SetBind@SPAnimeBase@@QAEXPAJK_N@Z 00467720 f   sp_anime.obj
 0001:00066790       ?IsSurfaceUsed@SPAnimeBase@@QAE_NJ@Z 00467790 f   sp_anime.obj
 0001:000667e0       ?CreateDummyDef@SPAnimeBase@@QAEXJKK@Z 004677e0 f   sp_anime.obj
 0001:000668e0       ?CreateBoundingBoxSub@SPAnimeBase@@IAEHAAUtagRECT@@K@Z 004678e0 f   sp_anime.obj
 0001:00066a40       ?CreateBoundingBox@SPAnimeBase@@QAEXXZ 00467a40 f   sp_anime.obj
 0001:00066be0       ?SetOffset@SPAnimeBase@@QAEXHH@Z 00467be0 f   sp_anime.obj
 0001:00066c30       ?GetCollisionRectCompat@SPAnimeBase@@QAEHPAVSPSerikoAnimation@@AAVJRect@@PBG@Z 00467c30 f   sp_anime.obj
 0001:00066d60       ?GetAnimeCollisionRectCompat@SPAnimeBase@@QAEHPAVSPSerikoAnimation@@AAVJRect@@PBG@Z 00467d60 f   sp_anime.obj
 0001:00066e90       ?GetCollisionName@SPAnimeBase@@QAEPAGPAVSPSerikoAnimation@@HHPAJ@Z 00467e90 f   sp_anime.obj
 0001:00066f80       ?GetAnimeCollisionName@SPAnimeBase@@QAEPAGPAVSPSerikoAnimation@@HHPAJ@Z 00467f80 f   sp_anime.obj
 0001:00067070       ?GetCollisionArray@SPAnimeBase@@QAEXPAVSPSerikoAnimation@@AAV?$JPtrArray@PAVSPCollisionProp@@@@@Z 00468070 f   sp_anime.obj
 0001:00067180       ?GetAnimeCollisionArray@SPAnimeBase@@QAEXPAVSPSerikoAnimation@@AAV?$JPtrArray@PAVSPCollisionProp@@@@@Z 00468180 f   sp_anime.obj
 0001:000671a0       ?ReleaseSurfaceElement@SPAnimeBase@@QAEXXZ 004681a0 f   sp_anime.obj
 0001:00067200       ?AddSurfaceElement@SPAnimeBase@@QAEHPAVSPSurface@@HHHH@Z 00468200 f   sp_anime.obj
 0001:000674e0       ?ElementRender@SPAnimeBase@@QAEHPAVJSurface@@HHHH@Z 004684e0 f   sp_anime.obj
 0001:00068140       ?GetRegion@SPAnimeBase@@QAEPAXPAV1@@Z 00469140 f   sp_anime.obj
 0001:00068250       ?ElementCombineRegionOffset@SPAnimeBase@@QAEXPAXHHH@Z 00469250 f   sp_anime.obj
 0001:000682a0       ?ClassificateAndSortScript@SPAnimeBase@@QAEXXZ 004692a0 f   sp_anime.obj
 0001:00068610       ?CheckInvalidDef@SPAnimeBase@@QAEHXZ 00469610 f   sp_anime.obj
 0001:00068f80       ?AddBalloonOffset@SPAnimeBase@@QAEAAUtagPOINT@@H@Z 00469f80 f   sp_anime.obj
 0001:00069010       ?GetBalloonOffset@SPAnimeBase@@QAEXHPAVSPSeriko@@AAUtagPOINT@@@Z 0046a010 f   sp_anime.obj
 0001:00069090       ?Copy@?$JArray@VJPoint@@@@QAE_NPBVJPoint@@K@Z 0046a090 f i sp_anime.obj
 0001:00069190       ?_Sort_0@std@@YAXPAPAVSPAnimeScript@@0U?$JArray_PredConverter@PAVSPAnimeScript@@P6AHPBV1@0@Z@@0@Z 0046a190 f i sp_anime.obj
 0001:00069460       ?_Sort@std@@YAXPAPAVSPAnimeScript@@0U?$JArray_PredConverter@PAVSPAnimeScript@@P6AHPBV1@0@Z@@0@Z 0046a460 f i sp_anime.obj
 0001:000695a0       ?_Sort@std@@YAXPAPAVSPCollisionProp@@0U?$JArray_PredConverter@PAVSPCollisionProp@@P6AHPBV1@0@Z@@0@Z 0046a5a0 f i sp_anime.obj
 0001:000696e0       ?_Unguarded_insert@std@@YAXPAPAVSPCollisionProp@@PAV2@U?$JArray_PredConverter@PAVSPCollisionProp@@P6AHPBV1@0@Z@@@Z 0046a6e0 f i sp_anime.obj
 0001:000696e0       ?_Unguarded_insert@std@@YAXPAPAVSPTimingEntry@@PAV2@U?$JArray_PredConverter@PAVSPTimingEntry@@P6AHPAV1@0@Z@@@Z 0046a6e0 f i sp_anime.obj
 0001:00069720       ?_Insertion_sort_1@std@@YAXPAPAVSPTimingEntry@@0U?$JArray_PredConverter@PAVSPTimingEntry@@P6AHPAV1@0@Z@@0@Z 0046a720 f i sp_anime.obj
 0001:00069720       ?_Insertion_sort_1@std@@YAXPAPAVSPCollisionProp@@0U?$JArray_PredConverter@PAVSPCollisionProp@@P6AHPBV1@0@Z@@0@Z 0046a720 f i sp_anime.obj
 0001:000697b0       ?ProcessDescript@SPBalloonFontPropMask@@QAE_NAAVJTokenStream@@PBD@Z 0046a7b0 f   sp_balloon.obj
 0001:00069bf0       ?GetBrushColor@SPBalloonFontPropMask@@QBEXAAVSPColor@@@Z 0046abf0 f   sp_balloon.obj
 0001:00069c50       ?GetFontColor@SPBalloonFontPropMask@@QBEXAAVSPColor@@@Z 0046ac50 f   sp_balloon.obj
 0001:00069cb0       ?GetShadowColor@SPBalloonFontPropMask@@QBEXAAVSPColor@@@Z 0046acb0 f   sp_balloon.obj
 0001:00069d10       ?GetHasShadow@SPBalloonFontPropMask@@QBEXAA_N@Z 0046ad10 f   sp_balloon.obj
 0001:00069d60       ?GetMethod@SPBalloonFontPropMask@@QBEXAAI@Z 0046ad60 f   sp_balloon.obj
 0001:00069db0       ?GetStyle@SPBalloonFontPropMask@@QBEXAAI@Z 0046adb0 f   sp_balloon.obj
 0001:00069e00       ?Add@SPBalloonDescHolder@@QAEPAVSPBalloonDesc@@H@Z 0046ae00 f   sp_balloon.obj
 0001:00069ef0       ?Get@SPBalloonDescHolder@@QAEPAVSPBalloonDesc@@H@Z 0046aef0 f   sp_balloon.obj
 0001:00069f20       ?GetArray@SPBalloonDescHolder@@QAEXAAV?$JArray@K@@@Z 0046af20 f   sp_balloon.obj
 0001:0006a040       ?ResetFontResource@SPBalloonDescHolder@@QAEXXZ 0046b040 f   sp_balloon.obj
 0001:0006a070       ?Release@SPBalloonDescHolder@@QAEXXZ 0046b070 f   sp_balloon.obj
 0001:0006a0b0       ??0SPBalloonDesc@@QAE@PAVSPBalloon@@@Z 0046b0b0 f   sp_balloon.obj
 0001:0006a2b0       ??_ESPBalloonDesc@@UAEPAXI@Z 0046b2b0 f i sp_balloon.obj
 0001:0006a2b0       ??_GSPBalloonDesc@@UAEPAXI@Z 0046b2b0 f i sp_balloon.obj
 0001:0006a2e0       ??1SPBalloonDesc@@UAE@XZ   0046b2e0 f i sp_balloon.obj
 0001:0006a360       ?Release@SPBalloonDesc@@QAEXXZ 0046b360 f   sp_balloon.obj
 0001:0006a390       ?Width@SPBalloonDesc@@QAEJXZ 0046b390 f   sp_balloon.obj
 0001:0006a3a0       ?Height@SPBalloonDesc@@QAEJXZ 0046b3a0 f   sp_balloon.obj
 0001:0006a3b0       ?LoadDescript@SPBalloonDesc@@QAEHPAD@Z 0046b3b0 f   sp_balloon.obj
 0001:0006b6a0       ?SetDefault@SPBalloonDesc@@QAEHPAVSPBalloon@@HH@Z 0046c6a0 f   sp_balloon.obj
 0001:0006bc40       ??0SPBalloon@@QAE@PAVSPGhost@@@Z 0046cc40 f   sp_balloon.obj
 0001:0006bf00       ??_ESPBalloon@@UAEPAXI@Z   0046cf00 f i sp_balloon.obj
 0001:0006bf00       ??_GSPBalloon@@UAEPAXI@Z   0046cf00 f i sp_balloon.obj
 0001:0006bf30       ??1SPBalloon@@UAE@XZ       0046cf30 f i sp_balloon.obj
 0001:0006c080       ?Release@SPBalloon@@QAEXXZ 0046d080 f   sp_balloon.obj
 0001:0006c290       ??1SPBalloonDescHolder@@QAE@XZ 0046d290 f i sp_balloon.obj
 0001:0006c2f0       ?LoadBalloon@SPBalloon@@QAEHPAD@Z 0046d2f0 f   sp_balloon.obj
 0001:0006d580       ?ScanSurface@SPBalloon@@AAEHAAVSPBalloonDescHolder@@PAD1_N@Z 0046e580 f   sp_balloon.obj
 0001:0006d8b0       ?LoadSurfaceOne@SPBalloon@@AAEPAVSPSurface@@PBD0_N@Z 0046e8b0 f   sp_balloon.obj
 0001:0006da00       ?LoadSurfaceTwo@SPBalloon@@AAE_NPAPAVSPSurface@@PBD11_N@Z 0046ea00 f   sp_balloon.obj
 0001:0006da90       ?LoadSurface@SPBalloon@@AAEHPAD@Z 0046ea90 f   sp_balloon.obj
 0001:0006dfe0       ?FillLoadSurface@SPBalloon@@QAEHPAD@Z 0046efe0 f   sp_balloon.obj
 0001:0006e0e0       ?OKButtonExtent@SPBalloon@@QAE?AUtagPOINT@@XZ 0046f0e0 f   sp_balloon.obj
 0001:0006e130       ?CancelButtonExtent@SPBalloon@@QAE?AUtagPOINT@@XZ 0046f130 f   sp_balloon.obj
 0001:0006e180       ?ModeButtonExtent@SPBalloon@@QAE?AUtagPOINT@@XZ 0046f180 f   sp_balloon.obj
 0001:0006e1d0       ?MaxButtonExtent@SPBalloon@@QAE?AUtagPOINT@@XZ 0046f1d0 f   sp_balloon.obj
 0001:0006e240       ?GetInput@SPBalloon@@QAEPAVSPBalloonDesc@@K@Z 0046f240 f   sp_balloon.obj
 0001:0006e310       ?GetCharCount@SPBalloon@@QAEKXZ 0046f310 f   sp_balloon.obj
 0001:0006e320       ?GetArray@SPBalloon@@QAEXHAAV?$JArray@K@@@Z 0046f320 f   sp_balloon.obj
 0001:0006e360       ?GetPropA@SPBalloon@@QAEPAVSPBalloonDesc@@HH@Z 0046f360 f   sp_balloon.obj
 0001:0006e3d0       ?ResetFontResourceAll@SPBalloon@@QAEXXZ 0046f3d0 f   sp_balloon.obj
 0001:0006e420       ?VarGet@SPBalloon@@UAE_NPAVSPGhost@@PAGAAVJWString@@PAVSPVarSystemNode@@@Z 0046f420 f   sp_balloon.obj
 0001:0006e530       ?VarSet@SPBalloon@@UAE_NPAVSPGhost@@PAG1PAVSPVarSystemNode@@@Z 0046f530 f   sp_balloon.obj
 0001:0006e5d0       ??0SPBalloonWnd@@QAE@PAVSPGhost@@H@Z 0046f5d0 f   sp_balloon.obj
 0001:0006e920       ?Lock@JThread@@UAE_NJ@Z    0046f920 f i sp_balloon.obj
 0001:0006e920       ?Lock@JDummyLockSection@@UAE_NJ@Z 0046f920 f i sp_balloon.obj
 0001:0006e930       ??_GJDummyLockSection@@UAEPAXI@Z 0046f930 f i sp_balloon.obj
 0001:0006e930       ??_EJDummyLockSection@@UAEPAXI@Z 0046f930 f i sp_balloon.obj
 0001:0006e960       ??_ESPBalloonWnd@@UAEPAXI@Z 0046f960 f i sp_balloon.obj
 0001:0006e960       ??_GSPBalloonWnd@@UAEPAXI@Z 0046f960 f i sp_balloon.obj
 0001:0006e990       ??1SPBalloonWnd@@UAE@XZ    0046f990 f   sp_balloon.obj
 0001:0006eb00       ?OnCreate@SPBalloonWnd@@QAEXPAX0@Z 0046fb00 f   sp_balloon.obj
 0001:0006eb70       ?OnDestroy@SPBalloonWnd@@QAEXXZ 0046fb70 f   sp_balloon.obj
 0001:0006ebe0       ?Release@SPBalloonWnd@@QAEXXZ 0046fbe0 f   sp_balloon.obj
 0001:0006eda0       ?Width@SPBalloonWnd@@QAEJXZ 0046fda0 f   sp_balloon.obj
 0001:0006edc0       ?CreateBackBuffer@SPBalloonWnd@@QAEHXZ 0046fdc0 f   sp_balloon.obj
 0001:0006ef90       ?ResetGlobalFontHeight@SPBalloonWnd@@AAEXXZ 0046ff90 f   sp_balloon.obj
 0001:0006efd0       ?VarGet@SPBalloonWnd@@UAE_NPAVSPGhost@@PAGAAVJWString@@PAVSPVarSystemNode@@@Z 0046ffd0 f   sp_balloon.obj
 0001:0006f150       ?VarSet@SPBalloonWnd@@UAE_NPAVSPGhost@@PAG1PAVSPVarSystemNode@@@Z 00470150 f   sp_balloon.obj
 0001:0006f2a0       ?SetBalloon@SPBalloonWnd@@QAEHPAVSPBalloon@@IHPAUtagPOINT@@@Z 004702a0 f   sp_balloon.obj
 0001:0006f700       ?UpdateRegion@SPBalloonWnd@@QAEHXZ 00470700 f   sp_balloon.obj
 0001:0006f790       ?DrawBackBuffer@SPBalloonWnd@@QAEXH@Z 00470790 f   sp_balloon.obj
 0001:0006fbf0       ?FillTextBuffer@SPBalloonWnd@@AAEXXZ 00470bf0 f   sp_balloon.obj
 0001:0006fcd0       ?BlendTextBuffer@SPBalloonWnd@@AAEXXZ 00470cd0 f   sp_balloon.obj
 0001:0006fd60       ?IsScrollUpLimit@SPBalloonWnd@@QAEHXZ 00470d60 f   sp_balloon.obj
 0001:0006fd70       ?IsScrollDownLimit@SPBalloonWnd@@QAEHXZ 00470d70 f   sp_balloon.obj
 0001:0006fda0       ?SetScrollToDownLimit@SPBalloonWnd@@QAEXXZ 00470da0 f   sp_balloon.obj
 0001:0006fdc0       ?DrawScrollArrowAuto@SPBalloonWnd@@AAEXXZ 00470dc0 f   sp_balloon.obj
 0001:0006fe20       ?GetScrollRangeY@SPBalloonWnd@@QAEHXZ 00470e20 f   sp_balloon.obj
 0001:0006fe30       ?GetDefaultTextElementOffsetY@SPBalloonWnd@@QAEHXZ 00470e30 f   sp_balloon.obj
 0001:0006fe40       ?IsMouseInScroolMarker@SPBalloonWnd@@QAEHHUtagPOINT@@@Z 00470e40 f   sp_balloon.obj
 0001:0006fee0       ?DrawScrollArrow@SPBalloonWnd@@AAEXH@Z 00470ee0 f   sp_balloon.obj
 0001:00070040       ?SetAlpha@SPBalloonWnd@@QAEXH@Z 00471040 f   sp_balloon.obj
 0001:00070070       ?Present@SPBalloonWnd@@QAEXXZ 00471070 f   sp_balloon.obj
 0001:00070170       ?PresentDirtyRect@SPBalloonWnd@@QAEXH@Z 00471170 f   sp_balloon.obj
 0001:00070310       ?NewString@SPBalloonWnd@@AAEPAVSPBalloonString@@PAV2@@Z 00471310 f   sp_balloon.obj
 0001:00070580       ??_GSPBalloonRefBlock@@AAEPAXI@Z 00471580 f i sp_balloon.obj
 0001:000705b0       ??1SPBalloonRefBlock@@AAE@XZ 004715b0 f i sp_balloon.obj
 0001:00070640       ??0SPBalloonString@@QAE@XZ 00471640 f i sp_balloon.obj
 0001:00070730       ?ClearStringCommand@SPBalloonWnd@@QAEHPAGH@Z 00471730 f   sp_balloon.obj
 0001:00070ea0       ?IsContentExist@SPBalloonWnd@@QAEIXZ 00471ea0 f   sp_balloon.obj
 0001:00070ec0       ?UpdateFlags@SPBalloonWnd@@AAEXXZ 00471ec0 f   sp_balloon.obj
 0001:00070f50       ?ClearString@SPBalloonWnd@@QAEXXZ 00471f50 f   sp_balloon.obj
 0001:00071130       ?InitFontProp@SPBalloonWnd@@AAEXXZ 00472130 f   sp_balloon.obj
 0001:00071160       ?ResetFontResource@SPBalloonWnd@@AAEXXZ 00472160 f   sp_balloon.obj
 0001:00071180       ?ResetFontResourceReal@SPBalloonWnd@@AAEXXZ 00472180 f   sp_balloon.obj
 0001:00071210       ?CheckFontResource@SPBalloonWnd@@AAEXXZ 00472210 f   sp_balloon.obj
 0001:000712d0       ?IsNoWrapChar@SPBalloonWnd@@SIHG@Z 004722d0 f   sp_balloon.obj
 0001:000712f0       ?IsSendNextChar@SPBalloonWnd@@SIHG@Z 004722f0 f   sp_balloon.obj
 0001:00071310       ?GetWaitChar@SPBalloonWnd@@SIHG@Z 00472310 f   sp_balloon.obj
 0001:000713b0       ?AddString@SPBalloonWnd@@QAEXPAGK@Z 004723b0 f   sp_balloon.obj
 0001:00071770       ?AddMarker@SPBalloonWnd@@QAEXPAG@Z 00472770 f   sp_balloon.obj
 0001:00071890       ?GetTextExtent@SPBalloonWnd@@AAEXPAVSPBalloonString@@@Z 00472890 f   sp_balloon.obj
 0001:00071950       ?AddSelectableString@SPBalloonWnd@@QAEXPAG0HPAPAGI@Z 00472950 f   sp_balloon.obj
 0001:00071ba0       ?LockUpdate@SPBalloonWnd@@QAEXH@Z 00472ba0 f   sp_balloon.obj
 0001:00071be0       ?UpdateBalloonScroll@SPBalloonWnd@@QAEXHH@Z 00472be0 f   sp_balloon.obj
 0001:00071cf0       ?AddAnchorOrSelectable@SPBalloonWnd@@QAEXPAG_N@Z 00472cf0 f   sp_balloon.obj
 0001:00071fc0       ?DrawString@SPBalloonWnd@@AAEXJ@Z 00472fc0 f   sp_balloon.obj
 0001:00072130       ?DrawOneElement@SPBalloonWnd@@AAEHPAVSPBalloonString@@HH@Z 00473130 f   sp_balloon.obj
 0001:00073210       ?DrawSstpMarker@SPBalloonWnd@@AAEXXZ 00474210 f   sp_balloon.obj
 0001:000733f0       ?DrawNetworkMarker@SPBalloonWnd@@AAEXPAG@Z 004743f0 f   sp_balloon.obj
 0001:000735f0       ?DrawProgressMsg@SPBalloonWnd@@AAEXXZ 004745f0 f   sp_balloon.obj
 0001:000737c0       ?SetProgress@SPBalloonWnd@@QAEHPAGHH@Z 004747c0 f   sp_balloon.obj
 0001:00073960       ?SetMarker@SPBalloonWnd@@QAEHPAG@Z 00474960 f   sp_balloon.obj
 0001:000739c0       ?GetSelectString@SPBalloonWnd@@QAEXPAVSPBalloonString@@AAVJWString@@@Z 004749c0 f   sp_balloon.obj
 0001:00073a00       ?FindFirstAndLastChoice@SPBalloonWnd@@AAEXKAAK0@Z 00474a00 f   sp_balloon.obj
 0001:00073a90       ?GetSelectString@SPBalloonWnd@@QAEXKAAVJWString@@@Z 00474a90 f   sp_balloon.obj
 0001:00073b90       ?GetSelectRect@SPBalloonWnd@@QAEXKAAUtagRECT@@@Z 00474b90 f   sp_balloon.obj
 0001:00073d00       ?FindNearChoiceStringRect@SPBalloonWnd@@QAE_NKABVJRect@@JAAV2@@Z 00474d00 f   sp_balloon.obj
 0001:00073f30       ?SelectLine@SPBalloonWnd@@QAEJJJ@Z 00474f30 f   sp_balloon.obj
 0001:00073fa0       ?SelectLineAndGet@SPBalloonWnd@@QAEPAVSPBalloonString@@JJAAJ@Z 00474fa0 f   sp_balloon.obj
 0001:00074040       ?SelectLineInternal@SPBalloonWnd@@AAEJJJ@Z 00475040 f   sp_balloon.obj
 0001:00074190       ?StartOnline@SPBalloonWnd@@QAEXH@Z 00475190 f   sp_balloon.obj
 0001:000741f0       ?ProcessOnline@SPBalloonWnd@@QAEXXZ 004751f0 f   sp_balloon.obj
 0001:000742f0       ?DrawOnline@SPBalloonWnd@@AAEXXZ 004752f0 f   sp_balloon.obj
 0001:000745d0       ?EndOnline@SPBalloonWnd@@QAEXXZ 004755d0 f   sp_balloon.obj
 0001:00074630       ?StartWaiting@SPBalloonWnd@@QAEXJ_N@Z 00475630 f   sp_balloon.obj
 0001:000746d0       ?DoWaiting@SPBalloonWnd@@QAEHXZ 004756d0 f   sp_balloon.obj
 0001:00074940       ?EndWaiting@SPBalloonWnd@@QAEXXZ 00475940 f   sp_balloon.obj
 0001:00074950       ?DisableTimeoutTimer@SPBalloonWnd@@QAEXXZ 00475950 f   sp_balloon.obj
 0001:00074980       ?WaitUserInput@SPBalloonWnd@@QAEXXZ 00475980 f   sp_balloon.obj
 0001:00074a30       ?OnUserInput@SPBalloonWnd@@QAEXXZ 00475a30 f   sp_balloon.obj
 0001:00074a60       ?ClearImageArray@SPBalloonWnd@@QAEXXZ 00475a60 f   sp_balloon.obj
 0001:00074ac0       ?AddImage@SPBalloonWnd@@QAEHPAGH@Z 00475ac0 f   sp_balloon.obj
 0001:00075110       ??1SPSurfaceManagerStateSave@@QAE@XZ 00476110 f i sp_balloon.obj
 0001:00075130       ?AdjustScrollPos@SPBalloonWnd@@AAEXPAVSPBalloonString@@@Z 00476130 f   sp_balloon.obj
 0001:000751b0       ?SetOffsetString@SPBalloonWnd@@QAEHPBGH@Z 004761b0 f   sp_balloon.obj
 0001:000755f0       ?LineFeed@SPBalloonWnd@@QAEXHH@Z 004765f0 f   sp_balloon.obj
 0001:00075620       ?LineFeedExt@SPBalloonWnd@@QAEXHH@Z 00476620 f   sp_balloon.obj
 0001:00075650       ?LineFeedProcessor@SPBalloonWnd@@AAEXXZ 00476650 f   sp_balloon.obj
 0001:00075830       ?ParseFontCommand@SPBalloonWnd@@QAEHPBGH@Z 00476830 f   sp_balloon.obj
 0001:00076ca0       ?GetAlign@SPBalloonWnd@@QAEHXZ 00477ca0 f   sp_balloon.obj
 0001:00076cd0       ?UpdateWindowPos@SPBalloonWnd@@AAEHPAUtagPOINT@@@Z 00477cd0 f   sp_balloon.obj
 0001:00076f80       ?Show@SPBalloonWnd@@QAE_N_N@Z 00477f80 f   sp_balloon.obj
 0001:000770e0       ?Hide@SPBalloonWnd@@QAE_N_N@Z 004780e0 f   sp_balloon.obj
 0001:000771f0       ?IsVisible@SPBalloonWnd@@QAE_NXZ 004781f0 f   sp_balloon.obj
 0001:00077210       ?FadeProc@SPBalloonWnd@@QAEHXZ 00478210 f   sp_balloon.obj
 0001:000773a0       ?GetDirection@SPBalloonWnd@@QAEHXZ 004783a0 f   sp_balloon.obj
 0001:000774a0       ?SetDirection@SPBalloonWnd@@QAEXHPAUtagPOINT@@@Z 004784a0 f   sp_balloon.obj
 0001:000774d0       ?SetDirectionAuto@SPBalloonWnd@@QAEXPAUtagPOINT@@@Z 004784d0 f   sp_balloon.obj
 0001:00077500       ?SetUserOffset@SPBalloonWnd@@QAEXABUtagPOINT@@H@Z 00478500 f   sp_balloon.obj
 0001:000775a0       ??0SPBalloonRefBlock@@QAE@PAPAGK@Z 004785a0 f   sp_balloon.obj
 0001:00077650       ?Clear@SPBalloonString@@QAEXXZ 00478650 f   sp_balloon.obj
 0001:000777e0       ??1SPBalloonString@@QAE@XZ 004787e0 f   sp_balloon.obj
 0001:000778b0       ?IsJumpString@SPBalloonString@@QAEHXZ 004788b0 f   sp_balloon.obj
 0001:000778d0       ?GetJumpString@SPBalloonString@@QAEXAAVJWString@@@Z 004788d0 f   sp_balloon.obj
 0001:000779e0       ?Length@SPBalloonString@@QAEKXZ 004789e0 f   sp_balloon.obj
 0001:00077a00       ?Remove@SPBalloonString@@QAE_NJJ@Z 00478a00 f   sp_balloon.obj
 0001:00077a40       ?IsSpaceOnly@SPBalloonString@@QAE_NXZ 00478a40 f   sp_balloon.obj
 0001:00077a80       ?SetMarker@SPBalloonString@@QAEXPAVSPBalloonWnd@@I@Z 00478a80 f   sp_balloon.obj
 0001:00077ad0       ?SetImage@SPBalloonString@@QAEXPAVSPSurface@@IABVJRect@@@Z 00478ad0 f   sp_balloon.obj
 0001:00077b20       ?ProcessMaxHeight@SPBalloonString@@QAEXPAVSPBalloonWnd@@@Z 00478b20 f   sp_balloon.obj
 0001:00077b60       ?GetFont@SPBalloonString@@QAEPBVSPBalloonFontProp@@PAVSPBalloonWnd@@@Z 00478b60 f   sp_balloon.obj
 0001:00077b80       ?GetID@SPBalloonString@@QAEXAAVJString@@@Z 00478b80 f   sp_balloon.obj
 0001:00077ce0       ?GetHeight@SPBalloonString@@QAEJPAVSPBalloonWnd@@@Z 00478ce0 f   sp_balloon.obj
 0001:00077d30       ?GetRealHeight@SPBalloonString@@QAEJPAVSPBalloonWnd@@@Z 00478d30 f   sp_balloon.obj
 0001:00077da0       ??1?$SPCacheObj@VSPBalloonString@@VJDummyLockSection@@VJDummyLock@@@@QAE@XZ 00478da0 f i sp_balloon.obj
 0001:00077e60       ??_ESPBalloonString@@QAEPAXI@Z 00478e60 f i sp_balloon.obj
 0001:00077ec0       ?DeleteLast@?$JArray@PAX@@QAEXK@Z 00478ec0 f i sp_balloon.obj
 0001:00077ee0       ?Last@?$JArray@PAX@@QAEAAPAXXZ 00478ee0 f i sp_balloon.obj
 0001:00077f00       ??_ESPBalloon@@W3AEPAXI@Z  00478f00 f i sp_balloon.obj
 0001:00077f10       ?CheckFontDifferent@SPBalloonFontProp@@ABE_NABV1@@Z 00478f10 f   sp_balloonfontprop.obj
 0001:00077f70       ??4SPBalloonFontProp@@QAEAAV0@ABV0@@Z 00478f70 f   sp_balloonfontprop.obj
 0001:00078190       ??4SPColor@@QAEAAV0@ABV0@@Z 00479190 f i sp_balloonfontprop.obj
 0001:000781b0       ??4SPBalloonFontPropMask@@QAEAAV0@ABV0@@Z 004791b0 f i sp_balloonfontprop.obj
 0001:00078200       ??9SPBalloonFontProp@@QBE_NABV0@@Z 00479200 f   sp_balloonfontprop.obj
 0001:00078520       ??0SPBalloonFontProp@@QAE@PBV0@@Z 00479520 f   sp_balloonfontprop.obj
 0001:000786e0       ??_GSPBalloonFontProp@@UAEPAXI@Z 004796e0 f i sp_balloonfontprop.obj
 0001:000786e0       ??_ESPBalloonFontProp@@UAEPAXI@Z 004796e0 f i sp_balloonfontprop.obj
 0001:00078710       ?ResetFontResource@SPBalloonFontProp@@QAEXXZ 00479710 f   sp_balloonfontprop.obj
 0001:00078730       ??1SPBalloonFontProp@@UAE@XZ 00479730 f   sp_balloonfontprop.obj
 0001:00078750       ?Clear@SPBalloonFontProp@@QAEXXZ 00479750 f   sp_balloonfontprop.obj
 0001:000787a0       ?GetFontFace@SPBalloonFontProp@@QBEPBGXZ 004797a0 f   sp_balloonfontprop.obj
 0001:000787c0       ?GetFontSize@SPBalloonFontProp@@QBEHXZ 004797c0 f   sp_balloonfontprop.obj
 0001:000787e0       ?GetFont@SPBalloonFontProp@@QBEPAXXZ 004797e0 f   sp_balloonfontprop.obj
 0001:00078890       ?CreateFontA@SPBalloonFontProp@@SAPAXHHHHHKKKKKKKKPBG@Z 00479890 f   sp_balloonfontprop.obj
 0001:00078950       ?SetAnchorPenColor@SPBalloonFontProp@@QBEXAAVSPColor@@@Z 00479950 f   sp_balloonfontprop.obj
 0001:000789a0       ?SetAnchorNotselectPenColor@SPBalloonFontProp@@QBEXAAVSPColor@@@Z 004799a0 f   sp_balloonfontprop.obj
 0001:000789f0       ?SetAnchorVisitedPenColor@SPBalloonFontProp@@QBEXAAVSPColor@@@Z 004799f0 f   sp_balloonfontprop.obj
 0001:00078a40       ?SetCursorPenColor@SPBalloonFontProp@@QBEXAAVSPColor@@@Z 00479a40 f   sp_balloonfontprop.obj
 0001:00078a90       ?Release@SPBindProp@@QAEXXZ 00479a90 f   sp_bind.obj
 0001:00078b20       ??1SPBindGroup@@QAE@XZ     00479b20 f i sp_bind.obj
 0001:00078b90       ?Load@SPBindProp@@QAEXPAG@Z 00479b90 f   sp_bind.obj
 0001:00078ca0       ?Save@SPBindProp@@QAEXAAVJWString@@@Z 00479ca0 f   sp_bind.obj
 0001:00078d70       ?GetFromEnableID@SPBindProp@@QAEPAVSPBindEntry@@H@Z 00479d70 f   sp_bind.obj
 0001:00078de0       ?GetFromFirstID@SPBindProp@@QAEPAVSPBindEntry@@H@Z 00479de0 f   sp_bind.obj
 0001:00078e20       ?GetFromMenuID@SPBindProp@@QAEPAVSPBindEntry@@H@Z 00479e20 f   sp_bind.obj
 0001:00078e50       ?GetFromName@SPBindProp@@QAEPAVSPBindEntry@@PBG0@Z 00479e50 f   sp_bind.obj
 0001:00078ec0       ?GetGroupFromName@SPBindProp@@QAEPAVSPBindGroup@@PBG@Z 00479ec0 f   sp_bind.obj
 0001:00078f10       ?NewGroupFromName@SPBindProp@@QAEPAVSPBindGroup@@PBG@Z 00479f10 f   sp_bind.obj
 0001:000790c0       ?GetMenuIndexFromID@SPBindProp@@QAEHH@Z 0047a0c0 f   sp_bind.obj
 0001:00079100       ?ParseEntry@SPBindProp@@QAEHPAVSPGhost@@PADPAG@Z 0047a100 f   sp_bind.obj
 0001:00079870       ?CheckEntry@SPBindProp@@QAEJPAVSPGhost@@AAV?$JArray@J@@@Z 0047a870 f   sp_bind.obj
 0001:00079ca0       ?ValidateEntryFlag@SPBindProp@@QAEXPAVSPBindEntry@@PAV?$JPtrArray@PAVSPBindEntry@@@@@Z 0047aca0 f   sp_bind.obj
 0001:00079cf0       ?GetThumbnail@SPBindEntry@@QAEPADPAVSPGhost@@@Z 0047acf0 f   sp_bind.obj
 0001:00079f10       ?GetNotifyEntry@SPBindEntry@@QAEPAGKPAVSPGhost@@@Z 0047af10 f   sp_bind.obj
 0001:0007a1c0       ??YJWString@@QAEAAV0@ABV0@@Z 0047b1c0 f i sp_bind.obj
 0001:0007a1e0       ?Add@JWString@@QAEXG@Z     0047b1e0 f i sp_bind.obj
 0001:0007a300       ?Release@SPBindGroup@@QAEXXZ 0047b300 f   sp_bind.obj
 0001:0007a310       ?Find@SPBindGroup@@QAEJPAVSPBindEntry@@@Z 0047b310 f   sp_bind.obj
 0001:0007a340       ?SetOption@SPBindGroup@@QAEXPBG@Z 0047b340 f   sp_bind.obj
 0001:0007a390       ?IsEnabled@SPBindGroup@@QBE_NKK@Z 0047b390 f   sp_bind.obj
 0001:0007a3f0       ?ValidateEntryFlag@SPBindGroup@@QAEXPAVSPBindEntry@@PAV?$JPtrArray@PAVSPBindEntry@@@@@Z 0047b3f0 f   sp_bind.obj
 0001:0007a720       ??1SPBindEntry@@QAE@XZ     0047b720 f i sp_bind.obj
 0001:0007a7a0       ?Release@SPCalendarIcon@@QAEXXZ 0047b7a0 f   sp_calendar.obj
 0001:0007a820       ?Load@SPCalendarIcon@@QAEHPAD@Z 0047b820 f   sp_calendar.obj
 0001:0007aba0       ?GetSurface@SPCalendarIcon@@QAEPAVSPSurface@@PAD@Z 0047bba0 f   sp_calendar.obj
 0001:0007abf0       ??0SPCalendarDesc@@QAE@XZ  0047bbf0 f   sp_calendar.obj
 0001:0007adb0       ?Release@SPCalendarDesc@@QAEXXZ 0047bdb0 f   sp_calendar.obj
 0001:0007ae00       ?Init@SPCalendarDesc@@QAEXXZ 0047be00 f   sp_calendar.obj
 0001:0007af50       ?LoadDescript@SPCalendarDesc@@QAEHPAD@Z 0047bf50 f   sp_calendar.obj
 0001:0007ba40       ??4SPCalendarDesc@@QAEAAV0@AAV0@@Z 0047ca40 f   sp_calendar.obj
 0001:0007bd50       ?PlayTodaysEvent@SPCalendarCell@@QAEHXZ 0047cd50 f   sp_calendar.obj
 0001:0007c140       ??0SPCalendar@@QAE@XZ      0047d140 f   sp_calendar.obj
 0001:0007c3c0       ??1SPSchedule@@QAE@XZ      0047d3c0 f i sp_calendar.obj
 0001:0007c430       ??1SPCalendarProperty@@QAE@XZ 0047d430 f i sp_calendar.obj
 0001:0007c4b0       ??0SPCalendarCell@@QAE@XZ  0047d4b0 f i sp_calendar.obj
 0001:0007c540       ??1SPCalendarCell@@QAE@XZ  0047d540 f i sp_calendar.obj
 0001:0007c5a0       ??1SPCalendar@@QAE@XZ      0047d5a0 f   sp_calendar.obj
 0001:0007c800       ??1SPCalendarDesc@@QAE@XZ  0047d800 f i sp_calendar.obj
 0001:0007c8d0       ?Release@SPCalendar@@QAEXXZ 0047d8d0 f   sp_calendar.obj
 0001:0007c8e0       ?ReleaseSurface@SPCalendar@@QAEXXZ 0047d8e0 f   sp_calendar.obj
 0001:0007c970       ?Init@SPCalendar@@QAEHXZ   0047d970 f   sp_calendar.obj
 0001:0007cca0       ?SetMonth@SPCalendar@@QAEHHHH@Z 0047dca0 f   sp_calendar.obj
 0001:0007cce0       ?IsInMoveMonthRect@SPCalendar@@QAEHAAUtagPOINT@@H@Z 0047dce0 f   sp_calendar.obj
 0001:0007cd50       ?MoveMonth@SPCalendar@@QAEHH@Z 0047dd50 f   sp_calendar.obj
 0001:0007cdd0       ?SetToday@SPCalendar@@QAEHXZ 0047ddd0 f   sp_calendar.obj
 0001:0007cdf0       ?InitCell@SPCalendar@@IAEXXZ 0047ddf0 f   sp_calendar.obj
 0001:0007d380       ?GetToday@SPCalendar@@IAEXXZ 0047e380 f   sp_calendar.obj
 0001:0007d3c0       ?CreateCalendar@SPCalendar@@QAEHXZ 0047e3c0 f   sp_calendar.obj
 0001:0007e2e0       ??0SPSurface@@QAE@XZ       0047f2e0 f i sp_calendar.obj
 0001:0007e330       ?DrawBackBuffer@SPCalendar@@QAEHXZ 0047f330 f   sp_calendar.obj
 0001:0007e5f0       ?DrawCell@SPCalendar@@IAEHHH@Z 0047f5f0 f   sp_calendar.obj
 0001:0007e7e0       ?DeleteYear@SPCalendar@@QAEXH@Z 0047f7e0 f   sp_calendar.obj
 0001:0007e810       ?DeleteMonth@SPCalendar@@QAEXHH@Z 0047f810 f   sp_calendar.obj
 0001:0007e910       ?LoadSchedule@SPCalendar@@QAEHXZ 0047f910 f   sp_calendar.obj
 0001:0007eaa0       ?SelectCell@SPCalendar@@QAEHHH@Z 0047faa0 f   sp_calendar.obj
 0001:0007eba0       ?MoveCell@SPCalendar@@QAEHHH@Z 0047fba0 f   sp_calendar.obj
 0001:0007ec20       ?GetCell@SPCalendar@@QAEPAVSPCalendarCell@@HH@Z 0047fc20 f   sp_calendar.obj
 0001:0007ecf0       ?GetIconCell@SPCalendar@@QAEHPAVSPCalendarCell@@HH@Z 0047fcf0 f   sp_calendar.obj
 0001:0007eda0       ?Present@SPCalendar@@QAEHXZ 0047fda0 f   sp_calendar.obj
 0001:0007ee70       ?UpdateCalendar@SPCalendar@@QAEXXZ 0047fe70 f   sp_calendar.obj
 0001:0007ee90       ?NotifyTodaySchedule@SPCalendar@@QAE_NPAVSPGhost@@@Z 0047fe90 f   sp_calendar.obj
 0001:0007f130       ??YJWString@@QAEAAV0@PBG@Z 00480130 f i sp_calendar.obj
 0001:0007f160       ??0SPModuleEvent@@QAE@XZ   00480160 f i sp_calendar.obj
 0001:0007f180       ?ToString@JTime@@QAEXAAVJWString@@G@Z 00480180 f i sp_calendar.obj
 0001:0007f3a0       ?GetTodaySchedule@SPCalendar@@QAE_N_N@Z 004803a0 f   sp_calendar.obj
 0001:0007f500       ?CheckSchedule@SPCalendar@@QAEHPAVSPGhost@@HH@Z 00480500 f   sp_calendar.obj
 0001:0007f7e0       ?PlayScheduleEntry@SPCalendar@@QAEHPAVSPScheduleEntry@@@Z 004807e0 f   sp_calendar.obj
 0001:0007f9d0       ?PlayTodaysSchedule@SPCalendar@@QAEHXZ 004809d0 f   sp_calendar.obj
 0001:0007fbc0       ??1SPCalendarIconEntry@@QAE@XZ 00480bc0 f i sp_calendar.obj
 0001:0007fc10       ??1SPMultiFileEntry@@QAE@XZ 00480c10 f i sp_calendar.obj
 0001:0007fc10       ??1SPCalendarImage@@QAE@XZ 00480c10 f i sp_calendar.obj
 0001:0007fc20       ??0SPCalendarProperty@@QAE@XZ 00480c20 f   sp_calprop.obj
 0001:0007fce0       ?Release@SPCalendarProperty@@QAEXXZ 00480ce0 f   sp_calprop.obj
 0001:0007fd40       ?EnumSkins@SPCalendarProperty@@QAEHXZ 00480d40 f   sp_calprop.obj
 0001:0007fed0       ??1SPFolderList@@QAE@XZ    00480ed0 f i sp_calprop.obj
 0001:0007ff50       ?LoadSkinInfo@SPCalendarProperty@@IAEHPAVSPFolderListData@@@Z 00480f50 f   sp_calprop.obj
 0001:00080200       ??_GSPCalendarSkinProp@@UAEPAXI@Z 00481200 f i sp_calprop.obj
 0001:00080200       ??_ESPCalendarSkinProp@@UAEPAXI@Z 00481200 f i sp_calprop.obj
 0001:00080230       ??1SPCalendarSkinProp@@UAE@XZ 00481230 f i sp_calprop.obj
 0001:000802f0       ?EnumSensors@SPCalendarProperty@@QAEHXZ 004812f0 f   sp_calprop.obj
 0001:00080480       ?LoadSensorInfo@SPCalendarProperty@@IAEHPAVSPFolderListData@@@Z 00481480 f   sp_calprop.obj
 0001:000807e0       ??_GSPScheduleSensorProp@@UAEPAXI@Z 004817e0 f i sp_calprop.obj
 0001:000807e0       ??_ESPScheduleSensorProp@@UAEPAXI@Z 004817e0 f i sp_calprop.obj
 0001:00080810       ??1SPScheduleSensorProp@@UAE@XZ 00481810 f i sp_calprop.obj
 0001:000808e0       ?SetSkin@SPCalendarProperty@@QAEHJ@Z 004818e0 f   sp_calprop.obj
 0001:00080920       ?SetSkin@SPCalendarProperty@@QAEHPAD@Z 00481920 f   sp_calprop.obj
 0001:00080960       ?FindSkinIDFromPath@SPCalendarProperty@@QAEHPBD@Z 00481960 f   sp_calprop.obj
 0001:00080a70       ?FindSkinIDFromRelativePath@SPCalendarProperty@@QAEHPBD@Z 00481a70 f   sp_calprop.obj
 0001:00080bb0       ?_Sort@std@@YAXPAPAVSPCalendarSkinProp@@0U?$JArray_PointerPred@PAVSPCalendarSkinProp@@@@0@Z 00481bb0 f i sp_calprop.obj
 0001:00080ce0       ?_Sort@std@@YAXPAPAVSPScheduleSensorProp@@0U?$JArray_PointerPred@PAVSPScheduleSensorProp@@@@0@Z 00481ce0 f i sp_calprop.obj
 0001:00080e10       ?_Unguarded_insert@std@@YAXPAPAVSPShellProp@@PAV2@U?$JArray_PointerPred@PAVSPShellProp@@@@@Z 00481e10 f i sp_calprop.obj
 0001:00080e10       ?_Unguarded_insert@std@@YAXPAPAVSPScheduleSensorProp@@PAV2@U?$JArray_PointerPred@PAVSPScheduleSensorProp@@@@@Z 00481e10 f i sp_calprop.obj
 0001:00080e10       ?_Unguarded_insert@std@@YAXPAPAVSPCalendarSkinProp@@PAV2@U?$JArray_PointerPred@PAVSPCalendarSkinProp@@@@@Z 00481e10 f i sp_calprop.obj
 0001:00080e50       ?SPGetCharcodeReference@@YAGPAG@Z 00481e50 f   sp_char.obj
 0001:00080eb0       ?Notify@SPCmdNotifier@@QAEKKPAPAXKPAVSPCmdListener@@@Z 00481eb0 f   sp_cmdlistener.obj
 0001:00080f00       ?NotifyOne@SPCmdNotifier@@QAE_NKPAPAXK@Z 00481f00 f   sp_cmdlistener.obj
 0001:00080f50       ?RequestOne@SPCmdNotifier@@QAE_NAAVJWString@@KPAPAXK@Z 00481f50 f   sp_cmdlistener.obj
 0001:00081070       ?Add@SPCmdNotifier@@QAE_NPAVSPCmdListener@@_N@Z 00482070 f   sp_cmdlistener.obj
 0001:000812a0       ?Delete@SPCmdNotifier@@QAE_NPAVSPCmdListener@@@Z 004822a0 f   sp_cmdlistener.obj
 0001:000813a0       ?Search@SPCmdNotifier@@QAEJPAVSPCmdListener@@@Z 004823a0 f   sp_cmdlistener.obj
 0001:000813d0       ?Release@SPCmdNotifier@@QAEXXZ 004823d0 f   sp_cmdlistener.obj
 0001:00081420       ?SPCNotify@SPCmdListener@@MAE_NKPAPAXK@Z 00482420 f   sp_cmdlistener.obj
 0001:00081430       ?SPCRequest@SPCmdListener@@MAE_NAAVJWString@@KPAPAXK@Z 00482430 f   sp_cmdlistener.obj
 0001:00081510       ?SPCDeleteFromNotify@SPCmdListener@@IAEXXZ 00482510 f   sp_cmdlistener.obj
 0001:00081540       ?SPCAddNotifier@SPCmdListener@@IAEXPAVSPCmdNotifier@@@Z 00482540 f   sp_cmdlistener.obj
 0001:00081620       ?SPCDeleteNotifier@SPCmdListener@@IAEXPAVSPCmdNotifier@@@Z 00482620 f   sp_cmdlistener.obj
 0001:00081690       ?Call@SPCmdListener@@SAKPAV1@KPAPAXK@Z 00482690 f   sp_cmdlistener.obj
 0001:000816b0       ?Set@SPColor@@QAEXHHH@Z    004826b0 f   sp_color.obj
 0001:000816d0       ?Set@SPColor@@QAEXPBG00@Z  004826d0 f   sp_color.obj
 0001:00081770       ?Set@SPColor@@QAE_NPBG@Z   00482770 f   sp_color.obj
 0001:000818d0       ?Set@SPColor@@QAE_NPBQBGJ@Z 004828d0 f   sp_color.obj
 0001:00081910       ?Set@SPColor@@QAE_NPBG0@Z  00482910 f   sp_color.obj
 0001:00081940       ?Set@SPColor@@QAE_NPBGH@Z  00482940 f   sp_color.obj
 0001:000819e0       ?Set@SPCommunicateData@@QAEXPAXPAVSPGhost@@PBG@Z 004829e0 f   sp_communicatedata.obj
 0001:00081ba0       ?Set@SPCommunicateData@@QAEXAAV?$JArray@PAX@@AAV?$JPtrArray@PAVSPGhost@@@@PBG@Z 00482ba0 f   sp_communicatedata.obj
 0001:00081dc0       ?Send@SPCommunicateData@@QAEXPAVSPGhost@@@Z 00482dc0 f   sp_communicatedata.obj
 0001:00081f60       ?GetSPCompatibleWord@@YAAAVSPCompatibleWord@@XZ 00482f60 f   sp_compatibleword.obj
 0001:00081fb0       ??1SPCompatibleWord@@QAE@XZ 00482fb0 f   sp_compatibleword.obj
 0001:00082070       ?Load@SPCompatibleWord@@QAE_NPBD@Z 00483070 f   sp_compatibleword.obj
 0001:000822a0       ??1SPCompatibleWordEntry@@QAE@XZ 004832a0 f i sp_compatibleword.obj
 0001:00082340       ?Get@SPCompatibleWord@@QAEPBGPBG@Z 00483340 f   sp_compatibleword.obj
 0001:000823c0       ?FindEntry@SPCompatibleWord@@AAEPAVSPCompatibleWordEntry@@PBG@Z 004833c0 f   sp_compatibleword.obj
 0001:00082410       ?Release@SPCookieClient@@QAEXXZ 00483410 f   sp_cookie.obj
 0001:00082460       ?GetValue@SPCookieClient@@QAEPAGPAG@Z 00483460 f   sp_cookie.obj
 0001:000824b0       ?SetValue@SPCookieClient@@QAEHPAG0@Z 004834b0 f   sp_cookie.obj
 0001:000826c0       ?Release@SPCookie@@QAEXXZ  004836c0 f   sp_cookie.obj
 0001:00082710       ??1SPCookieClient@@QAE@XZ  00483710 f i sp_cookie.obj
 0001:00082780       ?GetClient@SPCookie@@QAEPAVSPCookieClient@@PAGABVJSockAddr@@@Z 00483780 f   sp_cookie.obj
 0001:000827e0       ?AddClient@SPCookie@@QAEPAVSPCookieClient@@PAGABVJSockAddr@@@Z 004837e0 f   sp_cookie.obj
 0001:000829a0       ?Load@SPCookie@@QAEHPAD@Z  004839a0 f   sp_cookie.obj
 0001:00082d20       ?Save@SPCookie@@QAEHXZ     00483d20 f   sp_cookie.obj
 0001:00083010       ??1SPCookieEntry@@QAE@XZ   00484010 f i sp_cookie.obj
 0001:00083060       ?Register@SPControlAdjuster@@QAEXHI@Z 00484060 f   sp_ctrladjuster.obj
 0001:00083190       ?Release@SPControlAdjuster@@QAEXXZ 00484190 f   sp_ctrladjuster.obj
 0001:000831a0       ?Init@SPControlAdjuster@@QAEXPAUHWND__@@@Z 004841a0 f   sp_ctrladjuster.obj
 0001:000831e0       ?OnSize@SPControlAdjuster@@QAEXXZ 004841e0 f   sp_ctrladjuster.obj
 0001:000832c0       ?GetSPDataPathList@@YAAAVSPDataPathList@@XZ 004842c0 f   sp_datapathlist.obj
 0001:00083300       ??0SPDataPathList@@QAE@XZ  00484300 f i sp_datapathlist.obj
 0001:00083380       ?GetSPDataPathTitle@@YAPADW4SPDataPathListID@@@Z 00484380 f   sp_datapathlist.obj
 0001:000833a0       ?GetSPDataPathListID@@YAPAGW4SPDataPathListID@@@Z 004843a0 f   sp_datapathlist.obj
 0001:000833c0       ?GetUnresolvePath@SPDataPathListData@@QAEXAAVJString@@@Z 004843c0 f   sp_datapathlist.obj
 0001:000833f0       ?SetPath@SPDataPathListData@@QAEXPBD@Z 004843f0 f   sp_datapathlist.obj
 0001:000834d0       ?ProcessPath@SPDataPathListData@@SAXAAVJString@@@Z 004844d0 f   sp_datapathlist.obj
 0001:00083670       ?SetGroupName@SPDataPathListData@@QAEXPBG@Z 00484670 f   sp_datapathlist.obj
 0001:00083a00       ?quit@TiXmlString@@AAEXXZ  00484a00 f i sp_datapathlist.obj
 0001:00083a00       ??1TiXmlString@@QAE@XZ     00484a00 f i sp_datapathlist.obj
 0001:00083a20       ??1TiXmlText@@UAE@XZ       00484a20 f i sp_datapathlist.obj
 0001:00083a30       ??_GTiXmlText@@UAEPAXI@Z   00484a30 f i sp_datapathlist.obj
 0001:00083a30       ??_ETiXmlText@@UAEPAXI@Z   00484a30 f i sp_datapathlist.obj
 0001:00083a60       ??1TiXmlDeclaration@@UAE@XZ 00484a60 f i sp_datapathlist.obj
 0001:00083ab0       ?Print@TiXmlDeclaration@@UBEXPAU_iobuf@@H@Z 00484ab0 f i sp_datapathlist.obj
 0001:00083ad0       ??_ETiXmlDeclaration@@UAEPAXI@Z 00484ad0 f i sp_datapathlist.obj
 0001:00083ad0       ??_GTiXmlDeclaration@@UAEPAXI@Z 00484ad0 f i sp_datapathlist.obj
 0001:00083b00       ??1TiXmlDocument@@UAE@XZ   00484b00 f i sp_datapathlist.obj
 0001:00083b30       ??_GTiXmlDocument@@UAEPAXI@Z 00484b30 f i sp_datapathlist.obj
 0001:00083b30       ??_ETiXmlDocument@@UAEPAXI@Z 00484b30 f i sp_datapathlist.obj
 0001:00083b60       ?GetGroupNameFromXML@SPDataPathListData@@AAEXAAVJString@@@Z 00484b60 f   sp_datapathlist.obj
 0001:00083d00       ?GetGroupNameFromPath@SPDataPathListData@@AAEXAAVJString@@@Z 00484d00 f   sp_datapathlist.obj
 0001:00083dc0       ?Release@SPDataPathList@@QAEXXZ 00484dc0 f   sp_datapathlist.obj
 0001:00083e40       ??4SPDataPathList@@QAEAAV0@AAV0@@Z 00484e40 f   sp_datapathlist.obj
 0001:00084040       ?Set@SPDataPathList@@QAEXW4SPDataPathListID@@HW4SPDataPathListStatus@@PBD@Z 00485040 f   sp_datapathlist.obj
 0001:000842f0       ??1SPDataPathListData@@QAE@XZ 004852f0 f i sp_datapathlist.obj
 0001:00084340       ?Swap@SPDataPathList@@QAEHW4SPDataPathListID@@KK@Z 00485340 f   sp_datapathlist.obj
 0001:000843c0       ?GetToFolderList@SPDataPathList@@QAEHW4SPDataPathListID@@AAVSPFolderList@@@Z 004853c0 f   sp_datapathlist.obj
 0001:000844e0       ?Get@SPDataPathList@@QAE?AW4SPDataPathListStatus@@W4SPDataPathListID@@KAAVJString@@@Z 004854e0 f   sp_datapathlist.obj
 0001:00084510       ?GetReal@SPDataPathList@@QAE?AW4SPDataPathListStatus@@W4SPDataPathListID@@KAAVJString@@@Z 00485510 f   sp_datapathlist.obj
 0001:00084540       ?GetStatus@SPDataPathList@@QAE?AW4SPDataPathListStatus@@W4SPDataPathListID@@K@Z 00485540 f   sp_datapathlist.obj
 0001:00084560       ?GetGroupName@SPDataPathList@@QAEPAGW4SPDataPathListID@@K@Z 00485560 f   sp_datapathlist.obj
 0001:00084580       ?SetGroupName@SPDataPathList@@QAEXW4SPDataPathListID@@KPBG@Z 00485580 f   sp_datapathlist.obj
 0001:000845a0       ?GetNum@SPDataPathList@@QAEKW4SPDataPathListID@@@Z 004855a0 f   sp_datapathlist.obj
 0001:000845c0       ?GetEnableNum@SPDataPathList@@QAEKW4SPDataPathListID@@@Z 004855c0 f   sp_datapathlist.obj
 0001:00084600       ?GetFirst@SPDataPathList@@QAEHW4SPDataPathListID@@AAVJString@@@Z 00485600 f   sp_datapathlist.obj
 0001:00084690       ?GetTableW@SPDataPathList@@QAEPAPAGW4SPDataPathListID@@AAK@Z 00485690 f   sp_datapathlist.obj
 0001:00084800       ?Add@SPDataPathList@@QAEHW4SPDataPathListID@@PBD@Z 00485800 f   sp_datapathlist.obj
 0001:00084820       ?Delete@SPDataPathList@@QAEXW4SPDataPathListID@@K@Z 00485820 f   sp_datapathlist.obj
 0001:000848c0       ?Clear@SPDataPathList@@QAEXW4SPDataPathListID@@@Z 004858c0 f   sp_datapathlist.obj
 0001:00084930       ?Find@SPDataPathList@@QAEHW4SPDataPathListID@@PBD@Z 00485930 f   sp_datapathlist.obj
 0001:00084a00       ?Load@SPDataPathList@@QAEXAAVSPSettings@@@Z 00485a00 f   sp_datapathlist.obj
 0001:00084d30       ?Save@SPDataPathList@@QAEXAAVSPSettings@@@Z 00485d30 f   sp_datapathlist.obj
 0001:00084f30       ?CheckPathIsOK@SPDataPathList@@QAEHPBD@Z 00485f30 f   sp_datapathlist.obj
 0001:00085060       ?SPSEDefaultFilter@@YGJPAU_EXCEPTION_POINTERS@@@Z 00486060 f   sp_debugger.obj
 0001:00085790       ?WriteEnvironment@@YAHPAD@Z 00486790 f   sp_debugger.obj
 0001:000860d0       ?SPGetExceptionReasonTextA@@YAPADK@Z 004870d0 f   sp_debugger.obj
 0001:00086120       ?SPGetExceptionReasonTextW@@YAPAGK@Z 00487120 f   sp_debugger.obj
 0001:00086ed0       ??0SPDecoder@@QAE@XZ       00487ed0 f   sp_decode.obj
 0001:00086f80       ??1SPDecoder@@QAE@XZ       00487f80 f   sp_decode.obj
 0001:00086fc0       ?MakeTempName@SPDecoder@@AAEXD@Z 00487fc0 f   sp_decode.obj
 0001:00087050       ?DecodeWithSearch@SPDecoder@@QAEPADPADDH@Z 00488050 f   sp_decode.obj
 0001:000871e0       ?Decode@SPDecoder@@QAEPADPADH@Z 004881e0 f   sp_decode.obj
 0001:00087300       ?Decode_D@SPDecoder@@AAEHPAD0HH@Z 00488300 f   sp_decode.obj
 0001:000875f0       ?Decode_F@SPDecoder@@AAEHPAD0H@Z 004885f0 f   sp_decode.obj
 0001:000879b0       ?Decode_G@SPDecoder@@AAEHPAD0H@Z 004889b0 f   sp_decode.obj
 0001:00087e40       ?Load@SPDeleteTxt@@QAEHPAD@Z 00488e40 f   sp_deletetxt.obj
 0001:00088010       ?Find@SPDeleteTxt@@QAEHPAD@Z 00489010 f   sp_deletetxt.obj
 0001:000880a0       ?Execute@SPDeleteTxt@@QAEHPAD@Z 004890a0 f   sp_deletetxt.obj
 0001:00088270       ?ProcessPath@SPDeleteTxt@@CAHAAVJWString@@@Z 00489270 f   sp_deletetxt.obj
 0001:000882e0       ?Copy@SPDIBStretchCopy32@@SAXPAVJSurface@@0AAV?$JArray@K@@IIHH@Z 004892e0 f   sp_dibstretchcopy.obj
 0001:000884d0       ?GetSPDigest@@YAAAVSPDigest@@W4SPDigest_Type@@@Z 004894d0 f   sp_digest.obj
 0001:00088630       ??0SPDigestMD5@@QAE@XZ     00489630 f i sp_digest.obj
 0001:00088650       ?Update@SPDigestMD5@@UAEXPBD@Z 00489650 f i sp_digest.obj
 0001:00088680       ?Update@SPDigestMD5@@UAEXPBXK@Z 00489680 f i sp_digest.obj
 0001:000886e0       ?GetDigest@SPDigestMD5@@UAEPBEXZ 004896e0 f i sp_digest.obj
 0001:000888a0       ?GetDigestStr@SPDigestMD5@@UAEPBDXZ 004898a0 f i sp_digest.obj
 0001:000888b0       ?GetDigestBase64Str@SPDigestMD5@@UAEPBDXZ 004898b0 f i sp_digest.obj
 0001:000888c0       ??_GSPDigestMD5@@UAEPAXI@Z 004898c0 f i sp_digest.obj
 0001:000888c0       ??_ESPDigestMD5@@UAEPAXI@Z 004898c0 f i sp_digest.obj
 0001:000888f0       ??_ESPDigest@@UAEPAXI@Z    004898f0 f i sp_digest.obj
 0001:000888f0       ??_GSPDigest@@UAEPAXI@Z    004898f0 f i sp_digest.obj
 0001:00088920       ??0SPDigestSHA1@@QAE@XZ    00489920 f i sp_digest.obj
 0001:00088940       ?Update@SPDigestSHA1@@UAEXPBD@Z 00489940 f i sp_digest.obj
 0001:00088970       ?Update@SPDigestSHA1@@UAEXPBXK@Z 00489970 f i sp_digest.obj
 0001:000889d0       ?GetDigest@SPDigestSHA1@@UAEPBEXZ 004899d0 f i sp_digest.obj
 0001:00088a60       ?GetDigestStr@SPDigestSHA1@@UAEPBDXZ 00489a60 f i sp_digest.obj
 0001:00088a70       ?GetDigestBase64Str@SPDigestSHA1@@UAEPBDXZ 00489a70 f i sp_digest.obj
 0001:00088a80       ??_ESPDigestSHA256@@UAEPAXI@Z 00489a80 f i sp_digest.obj
 0001:00088a80       ??_ESPDigestSHA512@@UAEPAXI@Z 00489a80 f i sp_digest.obj
 0001:00088a80       ??_GSPDigestSHA512@@UAEPAXI@Z 00489a80 f i sp_digest.obj
 0001:00088a80       ??_ESPDigestSHA1@@UAEPAXI@Z 00489a80 f i sp_digest.obj
 0001:00088a80       ??_GSPDigestSHA224@@UAEPAXI@Z 00489a80 f i sp_digest.obj
 0001:00088a80       ??_GSPDigestSHA384@@UAEPAXI@Z 00489a80 f i sp_digest.obj
 0001:00088a80       ??_ESPDigestSHA384@@UAEPAXI@Z 00489a80 f i sp_digest.obj
 0001:00088a80       ??_ESPDigestSHA224@@UAEPAXI@Z 00489a80 f i sp_digest.obj
 0001:00088a80       ??_GSPDigestSHA256@@UAEPAXI@Z 00489a80 f i sp_digest.obj
 0001:00088a80       ??_GSPDigestSHA1@@UAEPAXI@Z 00489a80 f i sp_digest.obj
 0001:00088ab0       ??0SPDigestSHA224@@QAE@XZ  00489ab0 f i sp_digest.obj
 0001:00088ad0       ?Update@SPDigestSHA224@@UAEXPBD@Z 00489ad0 f i sp_digest.obj
 0001:00088b00       ?Update@SPDigestSHA224@@UAEXPBXK@Z 00489b00 f i sp_digest.obj
 0001:00088b60       ?GetDigest@SPDigestSHA224@@UAEPBEXZ 00489b60 f i sp_digest.obj
 0001:00088bf0       ?GetDigestStr@SPDigestSHA224@@UAEPBDXZ 00489bf0 f i sp_digest.obj
 0001:00088c00       ?GetDigestBase64Str@SPDigestSHA224@@UAEPBDXZ 00489c00 f i sp_digest.obj
 0001:00088c10       ??0SPDigestSHA256@@QAE@XZ  00489c10 f i sp_digest.obj
 0001:00088c30       ?Update@SPDigestSHA256@@UAEXPBD@Z 00489c30 f i sp_digest.obj
 0001:00088c60       ?Update@SPDigestSHA256@@UAEXPBXK@Z 00489c60 f i sp_digest.obj
 0001:00088cc0       ?GetDigest@SPDigestSHA256@@UAEPBEXZ 00489cc0 f i sp_digest.obj
 0001:00088d50       ?GetDigestStr@SPDigestSHA256@@UAEPBDXZ 00489d50 f i sp_digest.obj
 0001:00088d60       ?GetDigestBase64Str@SPDigestSHA256@@UAEPBDXZ 00489d60 f i sp_digest.obj
 0001:00088d70       ??0SPDigestSHA384@@QAE@XZ  00489d70 f i sp_digest.obj
 0001:00088d90       ?Update@SPDigestSHA384@@UAEXPBD@Z 00489d90 f i sp_digest.obj
 0001:00088dc0       ?Update@SPDigestSHA384@@UAEXPBXK@Z 00489dc0 f i sp_digest.obj
 0001:00088e20       ?GetDigest@SPDigestSHA384@@UAEPBEXZ 00489e20 f i sp_digest.obj
 0001:00088eb0       ?GetDigestStr@SPDigestSHA384@@UAEPBDXZ 00489eb0 f i sp_digest.obj
 0001:00088ec0       ?GetDigestBase64Str@SPDigestSHA384@@UAEPBDXZ 00489ec0 f i sp_digest.obj
 0001:00088ed0       ??1SPDigestMD5@@UAE@XZ     00489ed0 f i sp_digest.obj
 0001:00088ed0       ??1SPDigestSHA384@@UAE@XZ  00489ed0 f i sp_digest.obj
 0001:00088ed0       ??1SPDigestSHA256@@UAE@XZ  00489ed0 f i sp_digest.obj
 0001:00088ed0       ??1SPDigestSHA224@@UAE@XZ  00489ed0 f i sp_digest.obj
 0001:00088ed0       ??1SPDigestSHA512@@UAE@XZ  00489ed0 f i sp_digest.obj
 0001:00088ed0       ??1SPDigestSHA1@@UAE@XZ    00489ed0 f i sp_digest.obj
 0001:00088ee0       ??0SPDigestSHA512@@QAE@XZ  00489ee0 f i sp_digest.obj
 0001:00088f00       ?Update@SPDigestSHA512@@UAEXPBD@Z 00489f00 f i sp_digest.obj
 0001:00088f30       ?Update@SPDigestSHA512@@UAEXPBXK@Z 00489f30 f i sp_digest.obj
 0001:00088f90       ?GetDigest@SPDigestSHA512@@UAEPBEXZ 00489f90 f i sp_digest.obj
 0001:00089020       ?GetDigestStr@SPDigestSHA512@@UAEPBDXZ 0048a020 f i sp_digest.obj
 0001:00089030       ?GetDigestBase64Str@SPDigestSHA512@@UAEPBDXZ 0048a030 f i sp_digest.obj
 0001:000890a0       ?GetStrDigest@SPDigest@@SIXW4SPDigest_Type@@AAVJString@@PBDI@Z 0048a0a0 f   sp_digest.obj
 0001:000890e0       ?GetStrDigest@SPDigest@@SIXW4SPDigest_Type@@PADPBDI@Z 0048a0e0 f   sp_digest.obj
 0001:00089130       ?GetBase64StrDigest@SPDigest@@SIXW4SPDigest_Type@@PADPBDI@Z 0048a130 f   sp_digest.obj
 0001:00089180       ?Get0ByteDigestStr@SPDigest@@SIPBDW4SPDigest_Type@@@Z 0048a180 f   sp_digest.obj
 0001:00089450       ?GetFileDigest@SPDigest@@SI_NW4SPDigest_Type@@PAD1PAI@Z 0048a450 f   sp_digest.obj
 0001:000895c0       ?GetHMAC@SPDigest@@SIXPADPBD11@Z 0048a5c0 f   sp_digest.obj
 0001:00089670       ?QueryUser@SPDirServProp@@QAEHPAVSPMessengerUser@@@Z 0048a670 f   sp_dirserv.obj
 0001:00089ac0       ??0SPStaticStringArrayA@@QAE@XZ 0048aac0 f i sp_dirserv.obj
 0001:00089b10       ??1SPParamManager@@QAE@XZ  0048ab10 f i sp_dirserv.obj
 0001:00089c50       ?Start@SPDirServLogon@@UAEXXZ 0048ac50 f   sp_dirserv.obj
 0001:00089c80       ?Loop@SPDirServLogon@@UAEHXZ 0048ac80 f   sp_dirserv.obj
 0001:0008a0d0       ?Logon@SPDirServLogon@@QAEHPAD00@Z 0048b0d0 f   sp_dirserv.obj
 0001:0008a130       ?Update@SPDirServLogon@@QAEHXZ 0048b130 f   sp_dirserv.obj
 0001:0008a170       ?Logoff@SPDirServLogon@@QAEHXZ 0048b170 f   sp_dirserv.obj
 0001:0008a1a0       ?GetSPDirServManager@@YAAAVSPDirServManager@@XZ 0048b1a0 f   sp_dirserv.obj
 0001:0008a1f0       ??1SPDirServManager@@QAE@XZ 0048b1f0 f i sp_dirserv.obj
 0001:0008a2a0       ??0SPDirServManager@@QAE@XZ 0048b2a0 f   sp_dirserv.obj
 0001:0008a380       ?Release@SPDirServManager@@QAEXXZ 0048b380 f   sp_dirserv.obj
 0001:0008a440       ?GetService@SPDirServManager@@QAEPAVSPDirServProp@@PAD@Z 0048b440 f   sp_dirserv.obj
 0001:0008a4c0       ?GetServiceByAddress@SPDirServManager@@QAEPAVSPDirServProp@@PAD@Z 0048b4c0 f   sp_dirserv.obj
 0001:0008a540       ?GetLogon@SPDirServManager@@QAEPAVSPDirServLogon@@PAVSPDirServProp@@@Z 0048b540 f   sp_dirserv.obj
 0001:0008a580       ?DeleteService@SPDirServManager@@QAEHPAVSPDirServProp@@@Z 0048b580 f   sp_dirserv.obj
 0001:0008a640       ?AddService@SPDirServManager@@QAEHPAD00H@Z 0048b640 f   sp_dirserv.obj
 0001:0008a840       ?Logon@SPDirServManager@@QAEHPAVSPDirServProp@@@Z 0048b840 f   sp_dirserv.obj
 0001:0008aa90       ??_ESPDirServLogon@@UAEPAXI@Z 0048ba90 f i sp_dirserv.obj
 0001:0008aa90       ??_GSPDirServLogon@@UAEPAXI@Z 0048ba90 f i sp_dirserv.obj
 0001:0008aac0       ??1SPDirServLogon@@UAE@XZ  0048bac0 f i sp_dirserv.obj
 0001:0008ab30       ?Logoff@SPDirServManager@@QAEHPAVSPDirServProp@@@Z 0048bb30 f   sp_dirserv.obj
 0001:0008ab60       ?AutoLogon@SPDirServManager@@QAEHXZ 0048bb60 f   sp_dirserv.obj
 0001:0008aba0       ?UpdateLogon@SPDirServManager@@QAEHXZ 0048bba0 f   sp_dirserv.obj
 0001:0008abf0       ?Load@SPDirServManager@@QAEHPAD@Z 0048bbf0 f   sp_dirserv.obj
 0001:0008ae50       ?Save@SPDirServManager@@QAEHXZ 0048be50 f   sp_dirserv.obj
 0001:0008b0d0       ?Create@SPDlgTemplate@@QAEPAXXZ 0048c0d0 f   sp_dlgtemplate.obj
 0001:0008b2a0       ?Read@SPDlgTemplate@@QAEXPAXK@Z 0048c2a0 f   sp_dlgtemplate.obj
 0001:0008b2d0       ?ReadTmpl@SPDlgTemplate@@AAEXPBGK@Z 0048c2d0 f   sp_dlgtemplate.obj
 0001:0008b720       ?ReadTmplEx@SPDlgTemplate@@AAEXPBGK@Z 0048c720 f   sp_dlgtemplate.obj
 0001:0008bae0       ?Clear@SPDlgTemplate@@QAEXXZ 0048cae0 f   sp_dlgtemplate.obj
 0001:0008bc80       ??1SPDlgTemplateItem@@QAE@XZ 0048cc80 f i sp_dlgtemplate.obj
 0001:0008bcf0       ?ConvertToChild@SPDlgTemplate@@QAEXXZ 0048ccf0 f   sp_dlgtemplate.obj
 0001:0008bd10       ?ConvertComboBox@SPDlgTemplate@@QAEXXZ 0048cd10 f   sp_dlgtemplate.obj
 0001:0008bd60       ?SetShellFont@SPDlgTemplate@@QAEXXZ 0048cd60 f   sp_dlgtemplate.obj
 0001:0008bdb0       ?SetItemText@SPDlgTemplate@@QAE_NKPBG@Z 0048cdb0 f   sp_dlgtemplate.obj
 0001:0008be00       ?SPDLT_ClassTextToID@@YAGPBG@Z 0048ce00 f   sp_dlgtemplate.obj
 0001:0008bea0       ?WriteToArray@SPDlgTemplate@@AAEXAAV?$JArray@G@@@Z 0048cea0 f   sp_dlgtemplate.obj
 0001:0008c2c0       ?ReadTmpl@SPDlgTemplateItem@@AAEPBGPBGK@Z 0048d2c0 f   sp_dlgtemplate.obj
 0001:0008c600       ?ReadTmplEx@SPDlgTemplateItem@@AAEPBGPBGK@Z 0048d600 f   sp_dlgtemplate.obj
 0001:0008c940       ?WriteToArray@SPDlgTemplateItem@@AAEXAAV?$JArray@G@@@Z 0048d940 f   sp_dlgtemplate.obj
 0001:0008cc50       ?Clear@SPDlgTemplateItem@@QAEXXZ 0048dc50 f   sp_dlgtemplate.obj
 0001:0008cdb0       ?SetResourceID@SPDlgTemplateItem@@QAEXG@Z 0048ddb0 f   sp_dlgtemplate.obj
 0001:0008cdf0       ?Add@?$JArray@G@@QAEXPBGJ@Z 0048ddf0 f i sp_dlgtemplate.obj
 0001:0008cee0       ?InternalLoad@SPDynLoad@@AAE_NXZ 0048dee0 f   sp_dynload.obj
 0001:0008cfb0       ?InternalUnload@SPDynLoad@@AAEXXZ 0048dfb0 f   sp_dynload.obj
 0001:0008cfd0       ?GetProc@SPDynLoad@@QAEPAXPBD@Z 0048dfd0 f   sp_dynload.obj
 0001:0008d000       ?SetModuleName@SPDynLoad@@UAEXPBD@Z 0048e000 f   sp_dynload.obj
 0001:0008d020       ?SetModuleName@SPDynLoadSystem@@UAEXPBD@Z 0048e020 f   sp_dynload.obj
 0001:0008d040       ??0SPEnumString@@QAE@PAUIUnknown@@KPAPAGPAUIMalloc@@@Z 0048e040 f   sp_enumstring.obj
 0001:0008d100       ??1SPEnumString@@QAE@XZ    0048e100 f   sp_enumstring.obj
 0001:0008d1a0       ?QueryInterface@SPEnumString@@UAGJABU_GUID@@PAPAX@Z 0048e1a0 f   sp_enumstring.obj
 0001:0008d200       ?AddRef@SPEnumString@@UAGKXZ 0048e200 f   sp_enumstring.obj
 0001:0008d230       ?Release@SPEnumString@@UAGKXZ 0048e230 f   sp_enumstring.obj
 0001:0008d280       ?Next@SPEnumString@@UAGJKPAPAGPAK@Z 0048e280 f   sp_enumstring.obj
 0001:0008d3a0       ?Skip@SPEnumString@@UAGJK@Z 0048e3a0 f   sp_enumstring.obj
 0001:0008d3e0       ?Reset@SPEnumString@@UAGJXZ 0048e3e0 f   sp_enumstring.obj
 0001:0008d400       ?Clone@SPEnumString@@UAGJPAPAUIEnumString@@@Z 0048e400 f   sp_enumstring.obj
 0001:0008d4b0       ?Release@SPEventObject@@QAEXXZ 0048e4b0 f   sp_eventobj.obj
 0001:0008d4d0       ?Create@SPEventObject@@QAE_N_N0@Z 0048e4d0 f   sp_eventobj.obj
 0001:0008d540       ?Wait@SPEventObject@@QAE_NJ@Z 0048e540 f   sp_eventobj.obj
 0001:0008d590       ?WaitPump@SPEventObject@@QAE_NJ@Z 0048e590 f   sp_eventobj.obj
 0001:0008d5e0       ?Pulse@SPEventObject@@QAEXXZ 0048e5e0 f   sp_eventobj.obj
 0001:0008d5f0       ?Activate@SPEventObject@@QAEXXZ 0048e5f0 f   sp_eventobj.obj
 0001:0008d600       ?DeActivate@SPEventObject@@QAEXXZ 0048e600 f   sp_eventobj.obj
 0001:0008d610       ?SetThru@SPEventObject@@QAEX_N@Z 0048e610 f   sp_eventobj.obj
 0001:0008d630       ?Init@SPFileDialog@@AAEXXZ 0048e630 f   sp_filedialog.obj
 0001:0008d680       ??0SPFileDialog@@QAE@XZ    0048e680 f   sp_filedialog.obj
 0001:0008d730       ??1SPFileDialog@@QAE@XZ    0048e730 f   sp_filedialog.obj
 0001:0008d750       ?SetOpenFile@SPFileDialog@@QAEXPBG00_N@Z 0048e750 f   sp_filedialog.obj
 0001:0008d7f0       ?SetSaveFile@SPFileDialog@@QAEXPBG0000_N@Z 0048e7f0 f   sp_filedialog.obj
 0001:0008d8a0       ?DoModal@SPFileDialog@@QAEHPAUHWND__@@@Z 0048e8a0 f   sp_filedialog.obj
 0001:0008d8e0       ?Get@SPFileTimeOperation@@QAEHPAD@Z 0048e8e0 f   sp_filetime.obj
 0001:0008d950       ?Set@SPFileTimeOperation@@QAEHPADI@Z 0048e950 f   sp_filetime.obj
 0001:0008d9f0       ?Close@SPFindFile@@QAEXXZ  0048e9f0 f   sp_findfile.obj
 0001:0008da20       ?First@SPFindFile@@QAE_NPBD@Z 0048ea20 f   sp_findfile.obj
 0001:0008dbf0       ?Next@SPFindFile@@QAE_NXZ  0048ebf0 f   sp_findfile.obj
 0001:0008dca0       ?IsDir@SPFindFile@@QAE_NXZ 0048eca0 f   sp_findfile.obj
 0001:0008dcb0       ?FullPath@SPFindFile@@QAEXAAVJString@@@Z 0048ecb0 f   sp_findfile.obj
 0001:0008dd70       ?Set@SPFolderDialog@@QAEXPAGPAD@Z 0048ed70 f   sp_folderdialog.obj
 0001:0008dfc0       ?BrowseCallbackProc@SPFolderDialog@@CGHPAUHWND__@@IJJ@Z 0048efc0 f   sp_folderdialog.obj
 0001:0008dff0       ?DoModal@SPFolderDialog@@QAEHPAUHWND__@@@Z 0048eff0 f   sp_folderdialog.obj
 0001:0008e180       ?GetUnresolvePath@SPFolderListData@@QAEPADXZ 0048f180 f   sp_folderlist.obj
 0001:0008e190       ?SetSPProp@SPFolderListData@@QAEXPAVSPProp@@@Z 0048f190 f   sp_folderlist.obj
 0001:0008e1f0       ?Release@SPFolderList@@QAEXXZ 0048f1f0 f   sp_folderlist.obj
 0001:0008e290       ??1SPFolderListData@@QAE@XZ 0048f290 f i sp_folderlist.obj
 0001:0008e2f0       ?AddFromFolder@SPFolderList@@QAEXPADPAG@Z 0048f2f0 f   sp_folderlist.obj
 0001:0008e8e0       ?MakeList@SPFolderList@@QAEKXZ 0048f8e0 f   sp_folderlist.obj
 0001:0008e9e0       ??ASPFolderList@@QAEPAVSPFolderListData@@K@Z 0048f9e0 f   sp_folderlist.obj
 0001:0008ea00       ?FindPath@SPFolderList@@QAEHPAD@Z 0048fa00 f   sp_folderlist.obj
 0001:0008eb50       ?GetThumbnail@SPRecommendProp@@QAEPADPAVSPGhost@@@Z 0048fb50 f   sp_ghost.obj
 0001:0008eda0       ?VarGet@SPShellProp@@UAE_NPAVSPGhost@@PAGAAVJWString@@PAVSPVarSystemNode@@@Z 0048fda0 f   sp_ghost.obj
 0001:0008ee10       ?VarSet@SPShellProp@@UAE_NPAVSPGhost@@PAG1PAVSPVarSystemNode@@@Z 0048fe10 f   sp_ghost.obj
 0001:0008ee30       ?ReadDescript@SPShellProp@@UAEHXZ 0048fe30 f   sp_ghost.obj
 0001:0008f160       ??0SPGhost@@QAE@XZ         00490160 f   sp_ghost.obj
 0001:0008fb50       ?Alloc@JWString@@QAEXK@Z   00490b50 f i sp_ghost.obj
 0001:0008fcc0       ??1SPSurfaceManager@@QAE@XZ 00490cc0 f i sp_ghost.obj
 0001:0008fd10       ??_GSPGhost@@UAEPAXI@Z     00490d10 f i sp_ghost.obj
 0001:0008fd10       ??_ESPGhost@@UAEPAXI@Z     00490d10 f i sp_ghost.obj
 0001:0008fd40       ??1SPGhost@@UAE@XZ         00490d40 f   sp_ghost.obj
 0001:000903f0       ?UnloadCompatibleData@SPGhost@@AAEXXZ 004913f0 f   sp_ghost.obj
 0001:00090510       ??1SPTiming@@QAE@XZ        00491510 f i sp_ghost.obj
 0001:00090570       ??1SPScript@@QAE@XZ        00491570 f i sp_ghost.obj
 0001:000905f0       ??1SPSong@@QAE@XZ          004915f0 f i sp_ghost.obj
 0001:00090650       ??1SPNews@@QAE@XZ          00491650 f i sp_ghost.obj
 0001:00090700       ?ReleaseRecommendations@SPGhost@@AAEXH@Z 00491700 f   sp_ghost.obj
 0001:000907e0       ?Release@SPGhost@@QAEXXZ   004917e0 f   sp_ghost.obj
 0001:00090910       ?ReloadShiori@SPGhost@@QAEHXZ 00491910 f   sp_ghost.obj
 0001:00090950       ?ReloadMakoto@SPGhost@@QAEHXZ 00491950 f   sp_ghost.obj
 0001:000909b0       ?GetRecommendations@SPGhost@@QAEPAV?$JPtrArray@PAVSPRecommendProp@@@@H@Z 004919b0 f   sp_ghost.obj
 0001:000909e0       ?GetRecommendationsNum@SPGhost@@QAEKH@Z 004919e0 f   sp_ghost.obj
 0001:00090a00       ?AddRecommendations@SPGhost@@QAEPAV?$JPtrArray@PAVSPRecommendProp@@@@H@Z 00491a00 f   sp_ghost.obj
 0001:00090b00       ?EnumRecommendations@SPGhost@@QAEHH@Z 00491b00 f   sp_ghost.obj
 0001:00091160       ?CheckRecommendationsNew@SPGhost@@AAEHHPAV?$JPtrArray@PAVSPRecommendProp@@@@PAG1@Z 00492160 f   sp_ghost.obj
 0001:00091400       ?EnumRecommendationsNew@SPGhost@@QAEHH@Z 00492400 f   sp_ghost.obj
 0001:00091540       ?EnumShells@SPGhost@@QAEK_N@Z 00492540 f   sp_ghost.obj
 0001:000917e0       ?LoadShellInfo@SPGhost@@AAEHPAVSPFolderListData@@@Z 004927e0 f   sp_ghost.obj
 0001:00091af0       ??_ESPShellProp@@UAEPAXI@Z 00492af0 f i sp_ghost.obj
 0001:00091af0       ??_GSPShellProp@@UAEPAXI@Z 00492af0 f i sp_ghost.obj
 0001:00091b20       ??1SPShellProp@@UAE@XZ     00492b20 f i sp_ghost.obj
 0001:00091c00       ?EnumSurfaceSetAsShell@SPGhost@@QAEHXZ 00492c00 f   sp_ghost.obj
 0001:00091fe0       ?FindLastInstalled@SPGhost@@QAEJI@Z 00492fe0 f   sp_ghost.obj
 0001:000920f0       ?GetPropPtr@SPGhost@@QAEPAVSPProp@@IH@Z 004930f0 f   sp_ghost.obj
 0001:000921c0       ?FindShellIDFromPath@SPGhost@@QAEJPAD@Z 004931c0 f   sp_ghost.obj
 0001:000921f0       ?FindShellIDFromName@SPGhost@@QAEJPAG@Z 004931f0 f   sp_ghost.obj
 0001:00092240       ?SetTrayIconName@SPGhost@@AAEHPAG@Z 00493240 f   sp_ghost.obj
 0001:000923a0       ?SetTrayBalloon@SPGhost@@AAEHPAG@Z 004933a0 f   sp_ghost.obj
 0001:00092580       ?LoadGhost@SPGhost@@QAEHJH@Z 00493580 f   sp_ghost.obj
 0001:00093080       ?ReloadGhost@SPGhost@@QAE_NXZ 00494080 f   sp_ghost.obj
 0001:000930c0       ?ReloadShellWait@SPGhost@@QAE_NXZ 004940c0 f   sp_ghost.obj
 0001:00093120       ?ReloadShell@SPGhost@@QAE_NXZ 00494120 f   sp_ghost.obj
 0001:00093150       ?ReloadBalloonWait@SPGhost@@QAE_NXZ 00494150 f   sp_ghost.obj
 0001:00093180       ?ReloadBalloon@SPGhost@@QAE_NXZ 00494180 f   sp_ghost.obj
 0001:000931b0       ?ReloadDescript@SPGhost@@QAE_NPBG@Z 004941b0 f   sp_ghost.obj
 0001:00093270       ?ModuleUnload@SPGhost@@QAEXH@Z 00494270 f   sp_ghost.obj
 0001:000932e0       ?ModuleUnloadDirectly@SPGhost@@QAEXXZ 004942e0 f   sp_ghost.obj
 0001:00093310       ?LoadAfterModuleUnload@SPGhost@@QAEXXZ 00494310 f   sp_ghost.obj
 0001:00093370       ?LoadShell@SPGhost@@QAEHPADH@Z 00494370 f   sp_ghost.obj
 0001:00093700       ?GetBalloonIDFromSetting@SPGhost@@QAEJXZ 00494700 f   sp_ghost.obj
 0001:00093870       ?LoadGhostCore@SPGhost@@QAEXH@Z 00494870 f   sp_ghost.obj
 0001:00093a10       ?LoadMakotoGhost@SPGhost@@QAEHXZ 00494a10 f   sp_ghost.obj
 0001:00093ae0       ?LoadMakotoShell@SPGhost@@QAEHXZ 00494ae0 f   sp_ghost.obj
 0001:00093be0       ?LoadShiori@SPGhost@@QAEHH@Z 00494be0 f   sp_ghost.obj
 0001:00093f30       ?UnloadShiori@SPGhost@@QAEHH@Z 00494f30 f   sp_ghost.obj
 0001:00093f90       ?UnloadMakotoGhost@SPGhost@@QAEXXZ 00494f90 f   sp_ghost.obj
 0001:00093fd0       ?UnloadMakotoShell@SPGhost@@QAEXXZ 00494fd0 f   sp_ghost.obj
 0001:00094010       ?LoadPiro@SPGhost@@QAEHXZ  00495010 f   sp_ghost.obj
 0001:00094240       ?SetCompatibleMode@SPGhost@@QAEHHH@Z 00495240 f   sp_ghost.obj
 0001:000948d0       ?LoadShell@SPGhost@@QAEHJH@Z 004958d0 f   sp_ghost.obj
 0001:000949d0       ?SaveShellSetting@SPGhost@@AAEXXZ 004959d0 f   sp_ghost.obj
 0001:00094a20       ?GetODMFromShiori@SPGhost@@QAEHH@Z 00495a20 f   sp_ghost.obj
 0001:000952c0       ?LoadDescript@SPGhost@@QAE_NPAD@Z 004962c0 f   sp_ghost.obj
 0001:00095a00       ?LoadDescriptOverride@SPGhost@@QAEHPADH@Z 00496a00 f   sp_ghost.obj
 0001:00095dd0       ?FindInstallAccept@SPGhost@@QAEHPAG@Z 00496dd0 f   sp_ghost.obj
 0001:00095e50       ?GetBalloonCursor@SPGhost@@QAEPAX_N@Z 00496e50 f   sp_ghost.obj
 0001:00095e90       ?GetGhostCursor@SPGhost@@QAEPAX_N@Z 00496e90 f   sp_ghost.obj
 0001:00095ec0       ?LoadBalloon@SPGhost@@QAEHJ@Z 00496ec0 f   sp_ghost.obj
 0001:000960f0       ?DecodeEntity@SPGhost@@SIXAAVJWString@@@Z 004970f0 f   sp_ghost.obj
 0001:000962c0       ?NormalizeUnicodeStringC@SPGhost@@QAEXAAVJWString@@@Z 004972c0 f   sp_ghost.obj
 0001:00096400       ?MoveCharWindow@SPGhost@@AAEXJAAVSPGhostMoveInfo@@_N@Z 00497400 f   sp_ghost.obj
 0001:00096420       ?ShowChars@SPGhost@@QAEX_NPAX@Z 00497420 f   sp_ghost.obj
 0001:00096440       ?ParseParameters@SPGhost@@SIHAAVJWString@@IAAV?$JArray@G@@AAJ@Z 00497440 f   sp_ghost.obj
 0001:00096780       ?ParametersToArray@SPGhost@@SIXPAGAAV?$JPtrArray@PAG@@@Z 00497780 f   sp_ghost.obj
 0001:00096980       ?ParseBracket@SPGhost@@SIHAAVJWString@@IAAV?$JArray@G@@@Z 00497980 f   sp_ghost.obj
 0001:00096be0       ?ShowHideCharBalloon@SPGhost@@AAEXJ@Z 00497be0 f   sp_ghost.obj
 0001:00096c20       ?ScanScriptToShowBalloon@SPGhost@@AAEHPBG_N@Z 00497c20 f   sp_ghost.obj
 0001:00096f50       ?DecodeProcClearState@SPGhost@@AAEXXZ 00497f50 f   sp_ghost.obj
 0001:00096f80       ?MoveCharAwayClose@SPGhost@@AAEXHHH@Z 00497f80 f   sp_ghost.obj
 0001:000972b0       ??1SPGhostMoveInfo@@QAE@XZ 004982b0 f i sp_ghost.obj
 0001:00097330       ?ExecuteHttpGetThread@SPGhost@@QAEXPAXPCH@Z 00498330 f   sp_ghost.obj
 0001:00097c10       ?ExecuteHttpGet@SPGhost@@QAEX_NPBG@Z 00498c10 f   sp_ghost.obj
 0001:00098510       ??1SPGhost_HTTPInfo@@QAE@XZ 00499510 f i sp_ghost.obj
 0001:00098630       ?ExecutePingThread@SPGhost@@QAEXPAXPCH@Z 00499630 f   sp_ghost.obj
 0001:00098fb0       ?ExecutePing@SPGhost@@QAEXPBG@Z 00499fb0 f   sp_ghost.obj
 0001:00099420       ??1SPGhost_PingInfo@@QAE@XZ 0049a420 f i sp_ghost.obj
 0001:00099870       ?ExecuteNSLookup@SPGhost@@QAEXPBG@Z 0049a870 f   sp_ghost.obj
 0001:00099a60       ??1SPGhost_NSLookupInfo@@QAE@XZ 0049aa60 f i sp_ghost.obj
 0001:00099ab0       ?ExecuteNSLookupThread@SPGhost@@QAEXPAXPCH@Z 0049aab0 f   sp_ghost.obj
 0001:00099d80       ?DecodeProcAnimeExec@SPGhost@@AAEKAAVJWString@@KAAV?$JArray@J@@AAH@Z 0049ad80 f   sp_ghost.obj
 0001:00099f40       ?DecodeProc@SPGhost@@AAEHAAVJWString@@PAVSPScriptQueueData@@@Z 0049af40 f   sp_ghost.obj
 0001:0009cc50       ?Length@JWString@@QBEKXZ   0049dc50 f i sp_ghost.obj
 0001:0009cc60       ?Clear@JWString@@QAEXXZ    0049dc60 f i sp_ghost.obj
 0001:0009cd40       ?SetAutoScroll@SPBalloonWnd@@QAEXH@Z 0049dd40 f i sp_ghost.obj
 0001:0009cd50       ?GetGhostIDFromTag@SPGhost@@QAEJPAG_N@Z 0049dd50 f   sp_ghost.obj
 0001:0009cfd0       ?ExecuteChange@SPGhost@@QAEHPAG0_N@Z 0049dfd0 f   sp_ghost.obj
 0001:0009d2c0       ?ExecuteExclamationTag@SPGhost@@AAEXPAGJJAAVJWString@@AAJJ@Z 0049e2c0 f   sp_ghost.obj
 0001:000a0490       ??0JWString@@QAE@PBG@Z     004a1490 f i sp_ghost.obj
 0001:000a04e0       ?Bool@SPUtils@@SA_NPBG@Z   004a14e0 f i sp_ghost.obj
 0001:000a0530       ??1SPGhostRaiseTimerBlock@@QAE@XZ 004a1530 f   sp_ghost.obj
 0001:000a05b0       ?ExecuteRaiseTimer@SPGhost@@QAEXPAVSPGhostRaiseTimerBlock@@@Z 004a15b0 f   sp_ghost.obj
 0001:000a0760       ?ExecuteRaise@SPGhost@@QAEXPBGPAGJ@Z 004a1760 f   sp_ghost.obj
 0001:000a0cb0       ?ExecuteRaiseReal@SPGhost@@QAEXPBGPAGJ@Z 004a1cb0 f   sp_ghost.obj
 0001:000a18e0       ?TranslateParam@SPGhost@@AAE_NAAVJWString@@@Z 004a28e0 f   sp_ghost.obj
 0001:000a1990       ?TranslateParamReal@SPGhost@@AAEXAAVJWString@@@Z 004a2990 f   sp_ghost.obj
 0001:000a26f0       ?GetIconName@SPGhost@@QAE_NAAVJString@@@Z 004a36f0 f   sp_ghost.obj
 0001:000a28b0       ?GetIconMinimizeName@SPGhost@@QAE_NAAVJString@@@Z 004a38b0 f   sp_ghost.obj
 0001:000a2a80       ?UpdateMe@SPGhost@@QAEXPBG@Z 004a3a80 f   sp_ghost.obj
 0001:000a30b0       ??0JString@@QAE@PBD@Z      004a40b0 f i sp_ghost.obj
 0001:000a3100       ??1SPUpdateListener@@UAE@XZ 004a4100 f i sp_ghost.obj
 0001:000a3190       ??_ESPUpdateListener@@UAEPAXI@Z 004a4190 f i sp_ghost.obj
 0001:000a3190       ??_GSPUpdateListener@@UAEPAXI@Z 004a4190 f i sp_ghost.obj
 0001:000a31c0       ?GetUpdateURL@SPGhost@@QAE?AW4SPHttp_Type@@PAVJString@@0@Z 004a41c0 f   sp_ghost.obj
 0001:000a3420       ?GetStatusText@SPGhost@@QAEPBGXZ 004a4420 f   sp_ghost.obj
 0001:000a3690       ?ExecuteCommonDialogThread@SPGhost@@AAEXPAXPCH@Z 004a4690 f   sp_ghost.obj
 0001:000a41c0       ?ExecuteCommonDialog@SPGhost@@AAEXPBG0@Z 004a51c0 f   sp_ghost.obj
 0001:000a4600       ?CheckString@SPGhost@@CAKPBG0@Z 004a5600 f   sp_ghost.obj
 0001:000a4640       ?Exit@SPGhost@@UAEHXZ      004a5640 f   sp_ghost.obj
 0001:000a46f0       ?MakeVarPath@SPGhost@@AAE_NAAVJString@@@Z 004a56f0 f   sp_ghost.obj
 0001:000a4780       ?SetPriority@SPGhost@@QAEXXZ 004a5780 f   sp_ghost.obj
 0001:000a47a0       ?Loop@SPGhost@@UAEHXZ      004a57a0 f   sp_ghost.obj
 0001:000a4e90       ?TranslateScript@SPGhost@@QAEXAAVJWString@@PBG111@Z 004a5e90 f   sp_ghost.obj
 0001:000a4f80       ?IsExecuteJumpString@SPGhost@@SIHPAG@Z 004a5f80 f   sp_ghost.obj
 0001:000a5020       ?ExecuteJump@SPGhost@@QAEHPAD@Z 004a6020 f   sp_ghost.obj
 0001:000a50f0       ?ExecuteJump@SPGhost@@QAEHPAG@Z 004a60f0 f   sp_ghost.obj
 0001:000a5120       ?ExecuteJumpFromBalloonStr@SPGhost@@QAEHPAVSPBalloonString@@@Z 004a6120 f   sp_ghost.obj
 0001:000a5230       ?ExecuteJumpExec@SPGhost@@AAEHPAGH@Z 004a6230 f   sp_ghost.obj
 0001:000a5470       ?PlayEntry@SPGhost@@QAEHPAGKKK@Z 004a6470 f   sp_ghost.obj
 0001:000a54e0       ?PlayEntry2@SPGhost@@QAEHPAG0KK@Z 004a64e0 f   sp_ghost.obj
 0001:000a5610       ?PlayEntryJump@SPGhost@@QAEHPAG0J@Z 004a6610 f   sp_ghost.obj
 0001:000a5710       ?PlayScript@SPGhost@@QAEHVSPShioriEventResult@@K@Z 004a6710 f   sp_ghost.obj
 0001:000a5750       ?PlayScriptWithMsg@SPGhost@@QAEHVSPShioriEventResult@@KKKPAVSPCmdListener@@@Z 004a6750 f   sp_ghost.obj
 0001:000a5790       ?PlayScriptInternal@SPGhost@@QAEHVSPShioriEventResult@@KKKKPAVSPCmdListener@@@Z 004a6790 f   sp_ghost.obj
 0001:000a5b10       ?PlaySSTPScript@SPGhost@@QAEHPAGPAVSPSSTPData@@H@Z 004a6b10 f   sp_ghost.obj
 0001:000a6250       ?BreakScriptNoEvent@SPGhost@@QAEXXZ 004a7250 f   sp_ghost.obj
 0001:000a6280       ?BreakScript@SPGhost@@QAEXHHH@Z 004a7280 f   sp_ghost.obj
 0001:000a6450       ?PlayAITalk@SPGhost@@QAEHXZ 004a7450 f   sp_ghost.obj
 0001:000a64d0       ?GetAITalkOrNewsCompatible@SPGhost@@QAEPBGXZ 004a74d0 f   sp_ghost.obj
 0001:000a6560       ?ExecuteHeadline@SPGhost@@QAE_NPBG@Z 004a7560 f   sp_ghost.obj
 0001:000a6640       ?PlayTiming@SPGhost@@QAEHJJJJJ@Z 004a7640 f   sp_ghost.obj
 0001:000a66a0       ?CommunicateResponse@SPGhost@@QAEHPAG@Z 004a76a0 f   sp_ghost.obj
 0001:000a6710       ?CommunicateSSTP@SPGhost@@QAEHPAVSPSSTPData@@@Z 004a7710 f   sp_ghost.obj
 0001:000a68b0       ?BalloonCloseWithCheck@SPGhost@@QAEX_N@Z 004a78b0 f   sp_ghost.obj
 0001:000a68e0       ?BalloonClose@SPGhost@@QAE_N_N0@Z 004a78e0 f   sp_ghost.obj
 0001:000a6a30       ?IsAllBalloonHide@SPGhost@@QAE_NXZ 004a7a30 f   sp_ghost.obj
 0001:000a6a70       ?ClearBalloons@SPGhost@@QAE_NH@Z 004a7a70 f   sp_ghost.obj
 0001:000a6b10       ?HideBalloons@SPGhost@@QAE_NXZ 004a7b10 f   sp_ghost.obj
 0001:000a6b80       ?UpdateBalloons@SPGhost@@QAEXXZ 004a7b80 f   sp_ghost.obj
 0001:000a6bb0       ?UpdateBalloonChar@SPGhost@@QAEXJ@Z 004a7bb0 f   sp_ghost.obj
 0001:000a6be0       ?SetCharBalloonTempAlpha@SPGhost@@QAEXJH@Z 004a7be0 f   sp_ghost.obj
 0001:000a6c00       ?GetCharBalloonAlphaCalc@SPGhost@@QAEHJ@Z 004a7c00 f   sp_ghost.obj
 0001:000a6c60       ?CloseInputBox@SPGhost@@QAEXIPAG@Z 004a7c60 f   sp_ghost.obj
 0001:000a6ca0       ?ShowInputBoxFromTag@SPGhost@@QAEXIPAGH@Z 004a7ca0 f   sp_ghost.obj
 0001:000a6d10       ?ShowInputBox@SPGhost@@QAEXIPAG0I@Z 004a7d10 f   sp_ghost.obj
 0001:000a6d80       ?MakeIDAndNotify@SPGhost@@QAEXK@Z 004a7d80 f   sp_ghost.obj
 0001:000a6e90       ?ExitGhost@SPGhost@@QAEX_N@Z 004a7e90 f   sp_ghost.obj
 0001:000a6ed0       ?LockAllBalloonUpdate@SPGhost@@AAEXH@Z 004a7ed0 f   sp_ghost.obj
 0001:000a6f20       ?ProcessLazyCommandExec@SPGhost@@AAEXXZ 004a7f20 f   sp_ghost.obj
 0001:000a6f60       ?DispMessage@SPGhost@@AAEXHAAVJWString@@@Z 004a7f60 f   sp_ghost.obj
 0001:000a70d0       ?DispMessageSync@SPGhost@@AAEXAAVJWString@@@Z 004a80d0 f   sp_ghost.obj
 0001:000a72f0       ?InitInstance@SPGhost@@UAEHXZ 004a82f0 f   sp_ghost.obj
 0001:000a7310       ?ExitInstance@SPGhost@@UAEXH@Z 004a8310 f   sp_ghost.obj
 0001:000a7430       ?GetWord@SPGhost@@QAEPBGPBG@Z 004a8430 f   sp_ghost.obj
 0001:000a7540       ?GetScript@SPGhost@@QAEPAGPAGH@Z 004a8540 f   sp_ghost.obj
 0001:000a7720       ?Wait@SPGhost@@AAEXH@Z     004a8720 f   sp_ghost.obj
 0001:000a77d0       ?WaitAbsolute@SPGhost@@AAEXPAGHH@Z 004a87d0 f   sp_ghost.obj
 0001:000a7880       ?ResetWait@SPGhost@@AAEXXZ 004a8880 f   sp_ghost.obj
 0001:000a78a0       ?WaitSound@SPGhost@@AAEXXZ 004a88a0 f   sp_ghost.obj
 0001:000a78d0       ?WaitTillScriptPlaying@SPGhost@@QAEXXZ 004a88d0 f   sp_ghost.obj
 0001:000a7940       ?NotifyHwnd@SPGhost@@QAEXK@Z 004a8940 f   sp_ghost.obj
 0001:000a7b70       ?NotifyFolder@SPGhost@@QAEXK@Z 004a8b70 f   sp_ghost.obj
 0001:000a7c70       ?NotifyCmdListener@SPGhost@@QAEHKPAPAXH@Z 004a8c70 f   sp_ghost.obj
 0001:000a7c90       ?RequestCmdListener@SPGhost@@QAEHAAVJWString@@KPAPAXH@Z 004a8c90 f   sp_ghost.obj
 0001:000a7cc0       ?NotifyPiro@SPGhost@@AAEHH@Z 004a8cc0 f   sp_ghost.obj
 0001:000a7d90       ?TestNewSpecification@SPGhost@@QAEHXZ 004a8d90 f   sp_ghost.obj
 0001:000a7f90       ?CheckNewSpecification@SPGhost@@QAEHXZ 004a8f90 f   sp_ghost.obj
 0001:000a8010       ?OnMouseEvent@SPGhost@@QAEHPAGH0HABUtagPOINT@@0H@Z 004a9010 f   sp_ghost.obj
 0001:000a82a0       ?OnDisplayChange@SPGhost@@QAEHH@Z 004a92a0 f   sp_ghost.obj
 0001:000a8360       ?OnFileDrop@SPGhost@@QAEHHPAD@Z 004a9360 f   sp_ghost.obj
 0001:000a84a0       ?OnTimeChange@SPGhost@@QAE_N_NKK0@Z 004a94a0 f   sp_ghost.obj
 0001:000a8710       ?OnNotifyEventThread@SPGhost@@QAE_NPAGPAPAGHKKK_N@Z 004a9710 f   sp_ghost.obj
 0001:000a87a0       ?OnNotifyEventThread@SPGhost@@QAE_NAAVSPShioriEvent@@KKK@Z 004a97a0 f   sp_ghost.obj
 0001:000a8870       ?OnNotifyEventThreadAllOther@SPGhost@@QAE_NAAVSPShioriEvent@@KKK@Z 004a9870 f   sp_ghost.obj
 0001:000a8940       ?OnNotifyEvent@SPGhost@@QAE_NPAGPAPAGHKKK_N@Z 004a9940 f   sp_ghost.obj
 0001:000a89d0       ?OnNotifyEvent@SPGhost@@QAE_NAAVSPShioriEvent@@KKK@Z 004a99d0 f   sp_ghost.obj
 0001:000a8ab0       ?OnNotifyEventAllOther@SPGhost@@QAE_NAAVSPShioriEvent@@KKK@Z 004a9ab0 f   sp_ghost.obj
 0001:000a8ae0       ?GetStringBool@SPGhost@@QAE?AVSPGhostBoolResult@@PAGH@Z 004a9ae0 f   sp_ghost.obj
 0001:000a8b50       ?GetString@SPGhost@@QAEPAGPAG@Z 004a9b50 f   sp_ghost.obj
 0001:000a8b70       ?PushSurfaceStatus@SPGhost@@QAEXXZ 004a9b70 f   sp_ghost.obj
 0001:000a8e00       ?HideSurfaceFromPushStatus@SPGhost@@QAEXXZ 004a9e00 f   sp_ghost.obj
 0001:000a8e60       ?PopSurfaceStatus@SPGhost@@QAEX_N@Z 004a9e60 f   sp_ghost.obj
 0001:000a8ee0       ?OnSurfaceRestore@SPGhost@@QAEHXZ 004a9ee0 f   sp_ghost.obj
 0001:000a9070       ?SetSurfaceChar@SPGhost@@QAEHPBJKPAGHH_N@Z 004aa070 f   sp_ghost.obj
 0001:000a90d0       ?OnSurfaceChange@SPGhost@@QAEXHPAVSPAnimeBase@@JAAJ@Z 004aa0d0 f   sp_ghost.obj
 0001:000a9330       ?OnNotifyOtherGhost@SPGhost@@QAEHXZ 004aa330 f   sp_ghost.obj
 0001:000a9340       ?TalkBootMessage@SPGhost@@QAEXPAPAGK@Z 004aa340 f   sp_ghost.obj
 0001:000a9b00       ?GetChangeVanishScript@SPGhost@@QAE?AVSPShioriEventResult@@PAG0PAPAGH@Z 004aab00 f   sp_ghost.obj
 0001:000a9c30       ?OnTeach@SPGhost@@QAEHPAG@Z 004aac30 f   sp_ghost.obj
 0001:000a9cb0       ?GetUserNameA@SPGhost@@QAEHXZ 004aacb0 f   sp_ghost.obj
 0001:000a9ce0       ?SaveBindInfo@SPGhost@@QAEXXZ 004aace0 f   sp_ghost.obj
 0001:000a9e00       ?LoadBindInfo@SPGhost@@QAEXXZ 004aae00 f   sp_ghost.obj
 0001:000a9e70       ?GetCurrentShellProp@SPGhost@@QAEPAVSPShellProp@@XZ 004aae70 f   sp_ghost.obj
 0001:000a9e80       ?GetCurrentBalloonProp@SPGhost@@QAEPAVSPBalloonProp@@XZ 004aae80 f   sp_ghost.obj
 0001:000a9e90       ?GetGhostProp@SPGhost@@QAEPAVSPGhostProp@@XZ 004aae90 f   sp_ghost.obj
 0001:000a9ea0       ?SetCurrentShellIndex@SPGhost@@QAE_NJPAVSPShellProp@@@Z 004aaea0 f   sp_ghost.obj
 0001:000a9f10       ?SetCurrentGhostIndex@SPGhost@@QAE_NJPAVSPGhostProp@@@Z 004aaf10 f   sp_ghost.obj
 0001:000a9fb0       ?SetCurrentBalloonIndex@SPGhost@@QAEXJPAVSPBalloonProp@@@Z 004aafb0 f   sp_ghost.obj
 0001:000a9fe0       ?AddCharBalloon@SPGhost@@QAEPAVSPBalloonWnd@@J@Z 004aafe0 f   sp_ghost.obj
 0001:000aa0e0       ?DeleteBallons@SPGhost@@QAEXH@Z 004ab0e0 f   sp_ghost.obj
 0001:000aa150       ?PrepareToTalk@SPGhost@@AAE_NJ_N@Z 004ab150 f   sp_ghost.obj
 0001:000aa1d0       ?StartBalloonTest@SPGhost@@QAEXXZ 004ab1d0 f   sp_ghost.obj
 0001:000aa230       ?EndBalloonTest@SPGhost@@QAEXXZ 004ab230 f   sp_ghost.obj
 0001:000aa260       ?GetCharBalloon@SPGhost@@QAEPAVSPBalloonWnd@@J@Z 004ab260 f   sp_ghost.obj
 0001:000aa290       ?GetNumCharacter@SPGhost@@QAEKXZ 004ab290 f   sp_ghost.obj
 0001:000aa2a0       ?GetMainHwnd@SPGhost@@QAEPAUHWND__@@XZ 004ab2a0 f   sp_ghost.obj
 0001:000aa2b0       ?GetCharHwnd@SPGhost@@QAEPAUHWND__@@J@Z 004ab2b0 f   sp_ghost.obj
 0001:000aa2d0       ?UpdateBalloonSelection@SPGhost@@QAEXXZ 004ab2d0 f   sp_ghost.obj
 0001:000aa370       ?ResetAllBalloonPos@SPGhost@@QAEXXZ 004ab370 f   sp_ghost.obj
 0001:000aa3c0       ?ResetAllBalloonFont@SPGhost@@QAEXXZ 004ab3c0 f   sp_ghost.obj
 0001:000aa3f0       ?IsLocked@SPGhost@@QAEPBGXZ 004ab3f0 f   sp_ghost.obj
 0001:000aa430       ?IsMatch@SPGhost@@QAEHPBG00@Z 004ab430 f   sp_ghost.obj
 0001:000aa4e0       ?SetWallPaper@SPGhost@@QAEHPAG0@Z 004ab4e0 f   sp_ghost.obj
 0001:000aa7f0       ?MakeFullPath@SPGhost@@QAEXAAVJString@@PAG@Z 004ab7f0 f   sp_ghost.obj
 0001:000aa8d0       ?MakeFullPath@SPGhost@@QAEXAAVJString@@PAD@Z 004ab8d0 f   sp_ghost.obj
 0001:000aab20       ?FindGhostFileFromRelPath@SPGhost@@QAEHAAVJString@@PBD@Z 004abb20 f   sp_ghost.obj
 0001:000aacc0       ?LoadSettings@SPGhost@@AAEXXZ 004abcc0 f   sp_ghost.obj
 0001:000aae20       ?ReloadSettings@SPGhost@@QAEXXZ 004abe20 f   sp_ghost.obj
 0001:000aae60       ?SuspendGhost@SPGhost@@QAEXXZ 004abe60 f   sp_ghost.obj
 0001:000aae80       ?ResumeGhost@SPGhost@@QAEXXZ 004abe80 f   sp_ghost.obj
 0001:000aaeb0       ?VarGet@SPGhost@@UAE_NPAV1@PAGAAVJWString@@PAVSPVarSystemNode@@@Z 004abeb0 f   sp_ghost.obj
 0001:000ab410       ??1SPPropListNode@@UAE@XZ  004ac410 f i sp_ghost.obj
 0001:000ab460       ??_ESPPropListNode@@UAEPAXI@Z 004ac460 f i sp_ghost.obj
 0001:000ab460       ??_GSPPropListNode@@UAEPAXI@Z 004ac460 f i sp_ghost.obj
 0001:000ab490       ?VarSet@SPGhost@@UAE_NPAV1@PAG1PAVSPVarSystemNode@@@Z 004ac490 f   sp_ghost.obj
 0001:000ab700       ?GetActiveHeadline@SPGhost@@QAEPAVSPHeadline@@XZ 004ac700 f   sp_ghost.obj
 0001:000ab730       ?StartOnline@SPGhost@@QAEXH@Z 004ac730 f   sp_ghost.obj
 0001:000ab750       ?ResetOnline@SPGhost@@QAEXXZ 004ac750 f   sp_ghost.obj
 0001:000ab760       ?EndOnline@SPGhost@@QAEXXZ 004ac760 f   sp_ghost.obj
 0001:000ab770       ?CacheSuspend@SPGhost@@QAEHXZ 004ac770 f   sp_ghost.obj
 0001:000ab800       ?CacheRestore@SPGhost@@QAEHH@Z 004ac800 f   sp_ghost.obj
 0001:000ab910       ?ResetDataCache@SPGhost@@QAEXXZ 004ac910 f   sp_ghost.obj
 0001:000ab920       ?SetAlignAll@SPGhost@@AAEXXZ 004ac920 f   sp_ghost.obj
 0001:000ab960       ?LoadModuleCharset@SPGhost@@QAEX_N@Z 004ac960 f   sp_ghost.obj
 0001:000abbf0       ?SetCharset@SPModule@@QAEXPBD@Z 004acbf0 f i sp_ghost.obj
 0001:000abd20       ?GetActivateSetting@SPGhost@@SAIPBG@Z 004acd20 f   sp_ghost.obj
 0001:000abd70       ?GetActivateSetting@SPGhost@@SAPBGI@Z 004acd70 f   sp_ghost.obj
 0001:000abda0       ?OnNotifyOnline@SPGhost@@QAEXXZ 004acda0 f   sp_ghost.obj
 0001:000abf50       ?GetSelectModeAll@SPGhost@@QAEIXZ 004acf50 f   sp_ghost.obj
 0001:000abf90       ?SPCNotify@SPGhost@@UAE_NKPAPAXK@Z 004acf90 f   sp_ghost.obj
 0001:000ac010       ??0SPScriptQueueData@@AAE@XZ 004ad010 f   sp_ghost.obj
 0001:000ac150       ?Clear@SPScriptQueueData@@QAEXXZ 004ad150 f   sp_ghost.obj
 0001:000ac390       ??1SPCommunicateData@@QAE@XZ 004ad390 f i sp_ghost.obj
 0001:000ac3e0       ??1SPScriptQueueData@@AAE@XZ 004ad3e0 f   sp_ghost.obj
 0001:000ac4b0       ??1?$SPCacheObj@VSPScriptQueueData@@VJDummyLockSection@@VJDummyLock@@@@QAE@XZ 004ad4b0 f i sp_ghost.obj
 0001:000ac570       ?Delete@?$SPCacheObj@VSPScriptQueueData@@VJDummyLockSection@@VJDummyLock@@@@QAEXPAVSPScriptQueueData@@@Z 004ad570 f i sp_ghost.obj
 0001:000ac690       ?DeleteArray@?$SPCacheObj@VSPScriptQueueData@@VJDummyLockSection@@VJDummyLock@@@@QAEXAAV?$JPtrArray@PAVSPScriptQueueData@@@@@Z 004ad690 f i sp_ghost.obj
 0001:000ac730       ??1?$SPCacheObj@VSPGhostRaiseBlock@@VJDummyLockSection@@VJDummyLock@@@@QAE@XZ 004ad730 f i sp_ghost.obj
 0001:000ac7f0       ?New@?$SPCacheObj@VSPGhostRaiseBlock@@VJDummyLockSection@@VJDummyLock@@@@QAEPAVSPGhostRaiseBlock@@XZ 004ad7f0 f i sp_ghost.obj
 0001:000ac930       ??0?$SPCacheObj@VSPRecommendProp@@VJDummyLockSection@@VJDummyLock@@@@QAE@K@Z 004ad930 f i sp_ghost.obj
 0001:000ac980       ??1?$SPCacheObj@VSPRecommendProp@@VJDummyLockSection@@VJDummyLock@@@@QAE@XZ 004ad980 f i sp_ghost.obj
 0001:000aca40       ?New@?$SPCacheObj@VSPRecommendProp@@VJDummyLockSection@@VJDummyLock@@@@QAEPAVSPRecommendProp@@XZ 004ada40 f i sp_ghost.obj
 0001:000acb80       ??0SPRecommendProp@@QAE@XZ 004adb80 f i sp_ghost.obj
 0001:000accb0       ?DeleteArray@?$SPCacheObj@VSPRecommendProp@@VJDummyLockSection@@VJDummyLock@@@@QAEXAAV?$JPtrArray@PAVSPRecommendProp@@@@@Z 004adcb0 f i sp_ghost.obj
 0001:000acdf0       ??0SPGhostRaiseBlock@@QAE@XZ 004addf0 f i sp_ghost.obj
 0001:000ace90       ??1SPGhostRaiseBlock@@QAE@XZ 004ade90 f i sp_ghost.obj
 0001:000acec0       ??1SPRecommendProp@@QAE@XZ 004adec0 f i sp_ghost.obj
 0001:000acf30       ?Release@?$SPCacheObj@VSPScriptQueueData@@VJDummyLockSection@@VJDummyLock@@@@QAEXXZ 004adf30 f i sp_ghost.obj
 0001:000acfc0       ?Release@?$SPCacheObj@VSPGhostRaiseBlock@@VJDummyLockSection@@VJDummyLock@@@@QAEXXZ 004adfc0 f i sp_ghost.obj
 0001:000ad050       ?Insert@?$JArray@PAX@@QAEXJPBQAXJ@Z 004ae050 f i sp_ghost.obj
 0001:000ad1e0       ?ShiftLeft@?$JArray@PAX@@QAEXJJ@Z 004ae1e0 f i sp_ghost.obj
 0001:000ad220       ?ShiftRight@?$JArray@PAX@@QAEXJJ@Z 004ae220 f i sp_ghost.obj
 0001:000ad330       ?_Sort@std@@YAXPAPAVSPShellProp@@0U?$JArray_PointerPred@PAVSPShellProp@@@@0@Z 004ae330 f i sp_ghost.obj
 0001:000ad460       ?_Insertion_sort_1@std@@YAXPAPAVSPCalendarSkinProp@@0U?$JArray_PointerPred@PAVSPCalendarSkinProp@@@@0@Z 004ae460 f i sp_ghost.obj
 0001:000ad460       ?_Insertion_sort_1@std@@YAXPAPAVSPScheduleSensorProp@@0U?$JArray_PointerPred@PAVSPScheduleSensorProp@@@@0@Z 004ae460 f i sp_ghost.obj
 0001:000ad460       ?_Insertion_sort_1@std@@YAXPAPAVSPShellProp@@0U?$JArray_PointerPred@PAVSPShellProp@@@@0@Z 004ae460 f i sp_ghost.obj
 0001:000ad4f0       ??_ESPGhost@@W7AEPAXI@Z    004ae4f0 f i sp_ghost.obj
 0001:000ad500       ??_ESPGhost@@WDE@AEPAXI@Z  004ae500 f i sp_ghost.obj
 0001:000ad510       ?GetSPGhostDlgHWndManager@@YAAAVSPGhostDlgHWndManager@@XZ 004ae510 f   sp_ghost_dlg_hwnd.obj
 0001:000ad560       ??0SPGhostDlgHWndManager@@QAE@XZ 004ae560 f   sp_ghost_dlg_hwnd.obj
 0001:000ad5b0       ??1SPGhostDlgHWndManager@@QAE@XZ 004ae5b0 f   sp_ghost_dlg_hwnd.obj
 0001:000ad650       ?Add@SPGhostDlgHWndManager@@QAEKPAVSPGhost@@PBG@Z 004ae650 f   sp_ghost_dlg_hwnd.obj
 0001:000ad890       ?Release@SPGhostDlgHWndManager@@QAEXK@Z 004ae890 f   sp_ghost_dlg_hwnd.obj
 0001:000ad990       ?Delete@SPGhostDlgHWndManager@@AAEXPAX@Z 004ae990 f   sp_ghost_dlg_hwnd.obj
 0001:000ada40       ?Update@SPGhostDlgHWndManager@@AAEXPAX@Z 004aea40 f   sp_ghost_dlg_hwnd.obj
 0001:000adaf0       ?Close@SPGhostDlgHWndManager@@QAEXPAVSPGhost@@PBG@Z 004aeaf0 f   sp_ghost_dlg_hwnd.obj
 0001:000adc10       ?GetHookHandle@SPGhostDlgHWndManager@@QAEPAXK@Z 004aec10 f   sp_ghost_dlg_hwnd.obj
 0001:000adcb0       ?IsCancel@SPGhostDlgHWndManager@@QAE_NK@Z 004aecb0 f   sp_ghost_dlg_hwnd.obj
 0001:000add50       ??0SPGhostLoader@@QAE@XZ   004aed50 f   sp_ghostloader.obj
 0001:000addf0       ??_ESPGhostLoader@@UAEPAXI@Z 004aedf0 f i sp_ghostloader.obj
 0001:000addf0       ??_GSPGhostLoader@@UAEPAXI@Z 004aedf0 f i sp_ghostloader.obj
 0001:000ade20       ??1SPGhostLoader@@UAE@XZ   004aee20 f   sp_ghostloader.obj
 0001:000adf30       ?Clear@SPGhostLoaderInfo@@QAEXXZ 004aef30 f   sp_ghostloader.obj
 0001:000ae020       ?ProcessCallTarget@SPGhostLoaderInfo@@QAEXXZ 004af020 f   sp_ghostloader.obj
 0001:000ae160       ??1SPGhostLoaderInfo@@AAE@XZ 004af160 f   sp_ghostloader.obj
 0001:000ae180       ?Loop@SPGhostLoader@@UAEHXZ 004af180 f   sp_ghostloader.obj
 0001:000ae1f0       ?Exit@SPGhostLoader@@UAEHXZ 004af1f0 f   sp_ghostloader.obj
 0001:000ae230       ?ExitInstance@SPGhostLoader@@UAEXH@Z 004af230 f   sp_ghostloader.obj
 0001:000ae240       ?LoadGhost@SPGhostLoader@@QAEHPAVSPGhostLoaderInfo@@@Z 004af240 f   sp_ghostloader.obj
 0001:000ae290       ?GhostLoadProc@SPGhostLoader@@AAEXPAVSPGhostLoaderInfo@@@Z 004af290 f   sp_ghostloader.obj
 0001:000ae480       ?GhostLoadProcSub@SPGhostLoader@@AAEXPAVSPGhostLoaderInfo@@@Z 004af480 f   sp_ghostloader.obj
 0001:000ae620       ?PlayMessenger@SPGhostLoader@@AAEXPAVSPGhostLoaderInfo@@PAVSPGhost@@H@Z 004af620 f   sp_ghostloader.obj
 0001:000ae750       ??1?$SPCacheObj@VSPGhostLoaderInfo@@VJCriticalSection@@VJLock@@@@QAE@XZ 004af750 f i sp_ghostloader.obj
 0001:000ae840       ?Reset@?$SPCacheObj@VSPGhostLoaderInfo@@VJCriticalSection@@VJLock@@@@QAEXXZ 004af840 f i sp_ghostloader.obj
 0001:000ae9a0       ?Delete@?$SPCacheObj@VSPGhostLoaderInfo@@VJCriticalSection@@VJLock@@@@QAEXPAVSPGhostLoaderInfo@@@Z 004af9a0 f i sp_ghostloader.obj
 0001:000aeab0       ?Create@SPGhostMoveManagerInfo@@SAPAV1@PAVSPSerikoAnimation@@PAVSPGhostMoveInfo@@_N2@Z 004afab0 f   sp_ghostmovemanager.obj
 0001:000af0d0       ?Execute@SPGhostMoveManagerInfo@@QAEHPAVSPSerikoAnimation@@@Z 004b00d0 f   sp_ghostmovemanager.obj
 0001:000af1d0       ?Loop@SPGhostMoveManager@@QAEJAAJ@Z 004b01d0 f   sp_ghostmovemanager.obj
 0001:000af350       ?Execute@SPGhostMoveManager@@QAE_NPAVSPGhostMoveInfo@@_N1@Z 004b0350 f   sp_ghostmovemanager.obj
 0001:000af500       ?CalcMinimumTime@SPGhostMoveManager@@AAEXXZ 004b0500 f   sp_ghostmovemanager.obj
 0001:000af530       ??1SPSystemInfo@@QAE@XZ    004b0530 f   sp_ghosttime.obj
 0001:000af530       ?OnOK@CDevPalette@@MAEXXZ  004b0530 f   sp_ghosttime.obj
 0001:000af530       ??1JMemoryManager@@QAE@XZ  004b0530 f   sp_ghosttime.obj
 0001:000af530       ?Release@SPDirServLogon@@QAEXXZ 004b0530 f   sp_ghosttime.obj
 0001:000af530       ?CompleteCommonData@SPGhostTimeEntry@@QAEXXZ 004b0530 f   sp_ghosttime.obj
 0001:000af530       ?Release@SPDirServProp@@QAEXXZ 004b0530 f   sp_ghosttime.obj
 0001:000af530       ?SetHeapFlags@SPScriptPlayer@@AAEXXZ 004b0530 f   sp_ghosttime.obj
 0001:000af530       ?OnOK@CSurfaceTest@@MAEXXZ 004b0530 f   sp_ghosttime.obj
 0001:000af530       _ENGINE_load_rsax          004b0530 f   sp_ghosttime.obj
 0001:000af530       _jpeg_mem_term             004b0530 f   sp_ghosttime.obj
 0001:000af540       ?CompleteNew@SPGhostTimeEntry@@QAEXXZ 004b0540 f   sp_ghosttime.obj
 0001:000af550       ?CompleteOld@SPGhostTimeEntry@@QAEXXZ 004b0550 f   sp_ghosttime.obj
 0001:000af660       ?GetNotifyData@SPGhostTimeEntry@@QAEAAVJWString@@K@Z 004b0660 f   sp_ghosttime.obj
 0001:000af8c0       ?VarGet@SPGhostTimeEntry@@QAE_NPAVSPGhostTime@@PAGAAVJWString@@PAVSPVarSystemNode@@@Z 004b08c0 f   sp_ghosttime.obj
 0001:000afa20       ?CheckStatus@SPGhostTimeEntry@@QAEXXZ 004b0a20 f   sp_ghosttime.obj
 0001:000afa50       ?GetStatusText@SPGhostTimeEntry@@QAEPBGXZ 004b0a50 f   sp_ghosttime.obj
 0001:000afa80       ??0SPGhostTime@@QAE@XZ     004b0a80 f   sp_ghosttime.obj
 0001:000afb30       ??_GSPGhostTime@@UAEPAXI@Z 004b0b30 f i sp_ghosttime.obj
 0001:000afb30       ??_ESPGhostTime@@UAEPAXI@Z 004b0b30 f i sp_ghosttime.obj
 0001:000afb60       ??1SPGhostTime@@UAE@XZ     004b0b60 f i sp_ghosttime.obj
 0001:000afc70       ?Release@SPGhostTime@@QAEXXZ 004b0c70 f   sp_ghosttime.obj
 0001:000afca0       ?Load@SPGhostTime@@QAEHXZ  004b0ca0 f   sp_ghosttime.obj
 0001:000aff00       ?LoadNew@SPGhostTime@@AAEHPAD@Z 004b0f00 f   sp_ghosttime.obj
 0001:000b03e0       ??0SPGhostTimeEntry@@IAE@XZ 004b13e0 f i sp_ghosttime.obj
 0001:000b0580       ??1SPGhostTimeEntry@@IAE@XZ 004b1580 f i sp_ghosttime.obj
 0001:000b0600       ?LoadOld@SPGhostTime@@AAEHPAD@Z 004b1600 f   sp_ghosttime.obj
 0001:000b0c10       ?Save@SPGhostTime@@QAEHXZ  004b1c10 f   sp_ghosttime.obj
 0001:000b1400       ??YJString@@QAEAAV0@PBD@Z  004b2400 f i sp_ghosttime.obj
 0001:000b14e0       ?FindCurrentEntryFromGhost@SPGhostTime@@QAEPAVSPGhostTimeEntry@@PAVSPGhost@@@Z 004b24e0 f   sp_ghosttime.obj
 0001:000b1510       ?FindEntry@SPGhostTime@@AAEJPAG00@Z 004b2510 f   sp_ghosttime.obj
 0001:000b1590       ?DeleteCurrentGhost@SPGhostTime@@QAEHPAVSPGhost@@@Z 004b2590 f   sp_ghosttime.obj
 0001:000b16b0       ?AddCurrentGhost@SPGhostTime@@QAEHPAVSPGhost@@H@Z 004b26b0 f   sp_ghosttime.obj
 0001:000b19e0       ?TimerExec@SPGhostTime@@QAEXH@Z 004b29e0 f   sp_ghosttime.obj
 0001:000b1a40       ?AddTime@SPGhostTime@@QAEHXZ 004b2a40 f   sp_ghosttime.obj
 0001:000b1a90       ?Sort@SPGhostTime@@QAEHXZ  004b2a90 f   sp_ghosttime.obj
 0001:000b1d90       ?GetTotalTime@SPGhostTime@@QAEKXZ 004b2d90 f   sp_ghosttime.obj
 0001:000b1dc0       ?CheckStatus@SPGhostTime@@QAEXXZ 004b2dc0 f   sp_ghosttime.obj
 0001:000b1df0       ?DeleteEntry@SPGhostTime@@QAEXABVJWString@@000@Z 004b2df0 f   sp_ghosttime.obj
 0001:000b1fa0       ?NotifyInfo@SPGhostTime@@QAEXPAVSPGhost@@@Z 004b2fa0 f   sp_ghosttime.obj
 0001:000b2110       ?VarGet@SPGhostTime@@UAE_NPAVSPGhost@@PAGAAVJWString@@PAVSPVarSystemNode@@@Z 004b3110 f   sp_ghosttime.obj
 0001:000b2300       ??1?$SPCacheObj@VSPGhostTimeEntry@@VJDummyLockSection@@VJDummyLock@@@@QAE@XZ 004b3300 f i sp_ghosttime.obj
 0001:000b23c0       ?Delete@?$SPCacheObj@VSPGhostTimeEntry@@VJDummyLockSection@@VJDummyLock@@@@QAEXPAVSPGhostTimeEntry@@@Z 004b33c0 f i sp_ghosttime.obj
 0001:000b2530       ?DeleteArray@?$SPCacheObj@VSPGhostTimeEntry@@VJDummyLockSection@@VJDummyLock@@@@QAEXAAV?$JPtrArray@PAVSPGhostTimeEntry@@@@@Z 004b3530 f i sp_ghosttime.obj
 0001:000b2680       ??_ESPGhostTimeEntry@@IAEPAXI@Z 004b3680 f i sp_ghosttime.obj
 0001:000b26e0       ?_Sort@std@@YAXPAPAVSPGhostTimeEntry@@0U?$JArray_PredConverter@PAVSPGhostTimeEntry@@P6AHPAV1@0@Z@@0@Z 004b36e0 f i sp_ghosttime.obj
 0001:000b2820       ??0SPHeadline@@QAE@XZ      004b3820 f   sp_headline.obj
 0001:000b2b30       ?Lock@SPModule@@UAE_NJ@Z   004b3b30 f i sp_headline.obj
 0001:000b2b50       ?Unlock@SPModule@@UAEXXZ   004b3b50 f i sp_headline.obj
 0001:000b2b60       ?GetModuleDesc@SPHeadline@@UAEPBGXZ 004b3b60 f i sp_headline.obj
 0001:000b2b70       ?GetLogFileName@SPHeadline@@UAEPBDXZ 004b3b70 f i sp_headline.obj
 0001:000b2b80       ??_GSPHeadline@@UAEPAXI@Z  004b3b80 f i sp_headline.obj
 0001:000b2b80       ??_ESPHeadline@@UAEPAXI@Z  004b3b80 f i sp_headline.obj
 0001:000b2bb0       ??1SPHeadline@@UAE@XZ      004b3bb0 f   sp_headline.obj
 0001:000b2ec0       ?VarGet@SPHeadline@@UAE_NPAVSPGhost@@PAGAAVJWString@@PAVSPVarSystemNode@@@Z 004b3ec0 f   sp_headline.obj
 0001:000b2f30       ?VarSet@SPHeadline@@UAE_NPAVSPGhost@@PAG1PAVSPVarSystemNode@@@Z 004b3f30 f   sp_headline.obj
 0001:000b2f50       ?Load@SPHeadline@@QAEHPAD@Z 004b3f50 f   sp_headline.obj
 0001:000b31c0       ?Unload@SPHeadline@@QAEXXZ 004b41c0 f   sp_headline.obj
 0001:000b3220       ?LoadScript@SPHeadline@@QAEHXZ 004b4220 f   sp_headline.obj
 0001:000b35c0       ?ReadDescript@SPHeadline@@UAEHXZ 004b45c0 f   sp_headline.obj
 0001:000b3de0       ?Execute@SPHeadline@@QAE_NPAVSPGhost@@H@Z 004b4de0 f   sp_headline.obj
 0001:000b3fd0       ?SPCNotify@SPHeadline@@UAE_NKPAPAXK@Z 004b4fd0 f   sp_headline.obj
 0001:000b4010       ?CloseConnection@SPHeadline@@AAEXXZ 004b5010 f   sp_headline.obj
 0001:000b4030       ?ExecuteNext@SPHeadline@@QAE_NPAVSPGhost@@@Z 004b5030 f   sp_headline.obj
 0001:000b4070       ?ExecuteOld@SPHeadline@@QAE_NPAVSPGhost@@@Z 004b5070 f   sp_headline.obj
 0001:000b40b0       ?SplitOldData@SPHeadline@@AAEHPAVSPStaticStringArrayW@@00PAG@Z 004b50b0 f   sp_headline.obj
 0001:000b4170       ?GetHeadline@SPHeadline@@AAEHPAVSPStaticStringArrayW@@00PAD@Z 004b5170 f   sp_headline.obj
 0001:000b4590       ?GetVersion@SPHeadline@@AAEHXZ 004b5590 f   sp_headline.obj
 0001:000b46d0       ?ThreadProc@SPHeadline@@QAEHXZ 004b56d0 f   sp_headline.obj
 0001:000b47b0       ?ThreadProcSub@SPHeadline@@AAEXAAVJString@@@Z 004b57b0 f   sp_headline.obj
 0001:000b4ba0       ?ReadURL@SPHeadline@@AAEHPAD0@Z 004b5ba0 f   sp_headline.obj
 0001:000b4ce0       ?Failure@SPHeadline@@AAEXPAG0@Z 004b5ce0 f   sp_headline.obj
 0001:000b4db0       ?NotUpdated@SPHeadline@@AAEXXZ 004b5db0 f   sp_headline.obj
 0001:000b4ee0       ?CheckSpecificDLL@SPHeadline@@AAEXH@Z 004b5ee0 f   sp_headline.obj
 0001:000b50a0       ?PlayHeadline@SPHeadline@@AAE_NH@Z 004b60a0 f   sp_headline.obj
 0001:000b5e40       ??_ESPHeadline@@WBIE@AEPAXI@Z 004b6e40 f i sp_headline.obj
 0001:000b5e50       ??_ESPHeadline@@WEDA@AEPAXI@Z 004b6e50 f i sp_headline.obj
 0001:000b5e60       ??0SPHeadlineRSS@@QAE@XZ   004b6e60 f   sp_headlinerss.obj
 0001:000b5f60       ??1SPHeadlineRSS@@QAE@XZ   004b6f60 f   sp_headlinerss.obj
 0001:000b6010       ?Release@SPHeadlineRSS@@QAEXXZ 004b7010 f   sp_headlinerss.obj
 0001:000b6210       ?Parse@SPHeadlineRSS@@QAEHPAD@Z 004b7210 f   sp_headlinerss.obj
 0001:000b6b70       ??1SPHeadlineRSSElement@@QAE@XZ 004b7b70 f i sp_headlinerss.obj
 0001:000b6bc0       ?Sort@SPHeadlineRSS@@AAEXXZ 004b7bc0 f   sp_headlinerss.obj
 0001:000b6bf0       ?GetSingleText@SPHeadlineRSS@@AAEHPBVTiXmlNode@@PAPBDIAAVJWString@@@Z 004b7bf0 f   sp_headlinerss.obj
 0001:000b6de0       ?WriteError@SPHeadlineRSS@@AAEXAAVTiXmlDocument@@PAG@Z 004b7de0 f   sp_headlinerss.obj
 0001:000b6e60       ?GetFeedData@SPHeadlineRSS@@QAEXPAVSPStaticStringArrayW@@00@Z 004b7e60 f   sp_headlinerss.obj
 0001:000b6ff0       ?SelectUpdateGhost@SPHeadlineRSS@@QAEXAAV?$JArray@K@@0@Z 004b7ff0 f   sp_headlinerss.obj
 0001:000b71a0       ?GetNodes@SPHeadlineRSS@@CAPBVTiXmlNode@@PBV2@PBDAAV?$JPtrArray@PBVTiXmlNode@@@@PAPBVTiXmlAttribute@@H@Z 004b81a0 f   sp_headlinerss.obj
 0001:000b7390       ?GetSingleNode@SPHeadlineRSS@@CAPBVTiXmlNode@@PBV2@PBDPAPBVTiXmlAttribute@@@Z 004b8390 f   sp_headlinerss.obj
 0001:000b7400       ?_Stable_sort@std@@YAXPAPAVSPHeadlineRSSElement@@0PAH0U?$JArray_PointerPred@PAVSPHeadlineRSSElement@@@@@Z 004b8400 f i sp_headlinerss.obj
 0001:000b75d0       ??1?$_Temp_iterator@PAVSPHeadlineRSSElement@@@std@@QAE@XZ 004b85d0 f i sp_headlinerss.obj
 0001:000b75f0       ?_Stable_sort@std@@YAXPAPAVSPHeadlineRSSElement@@0HAAV?$_Temp_iterator@PAVSPHeadlineRSSElement@@@1@U?$JArray_PointerPred@PAVSPHeadlineRSSElement@@@@@Z 004b85f0 f i sp_headlinerss.obj
 0001:000b78f0       ?_Buffered_merge_sort@std@@YAXPAPAVSPHeadlineRSSElement@@0HAAV?$_Temp_iterator@PAVSPHeadlineRSSElement@@@1@U?$JArray_PointerPred@PAVSPHeadlineRSSElement@@@@@Z 004b88f0 f i sp_headlinerss.obj
 0001:000b7b50       ?_Buffered_merge@std@@YAXPAPAVSPHeadlineRSSElement@@00HHAAV?$_Temp_iterator@PAVSPHeadlineRSSElement@@@1@U?$JArray_PointerPred@PAVSPHeadlineRSSElement@@@@@Z 004b8b50 f i sp_headlinerss.obj
 0001:000b7f10       ??0?$_Temp_iterator@PAVSPHeadlineRSSElement@@@std@@QAE@ABV01@@Z 004b8f10 f i sp_headlinerss.obj
 0001:000b7f30       ?_Init@?$_Temp_iterator@PAVSPHeadlineRSSElement@@@std@@QAEAAV12@XZ 004b8f30 f i sp_headlinerss.obj
 0001:000b7f40       ?_Insertion_sort_1@std@@YAXPAPAVSPHeadlineRSSElement@@0U?$JArray_PointerPred@PAVSPHeadlineRSSElement@@@@0@Z 004b8f40 f i sp_headlinerss.obj
 0001:000b7fb0       ?_Chunked_merge@std@@YAXPAPAVSPHeadlineRSSElement@@0AAV?$_Temp_iterator@PAVSPHeadlineRSSElement@@@1@HHU?$JArray_PointerPred@PAVSPHeadlineRSSElement@@@@@Z 004b8fb0 f i sp_headlinerss.obj
 0001:000b80c0       ?_Chunked_merge@std@@YAXPAPAVSPHeadlineRSSElement@@0AAPAPAV2@HHU?$JArray_PointerPred@PAVSPHeadlineRSSElement@@@@@Z 004b90c0 f i sp_headlinerss.obj
 0001:000b8200       ?copy@std@@YA?AV?$_Temp_iterator@PAVSPHeadlineRSSElement@@@1@PAPAVSPHeadlineRSSElement@@0V21@@Z 004b9200 f i sp_headlinerss.obj
 0001:000b8280       ?merge@std@@YAPAPAVSPHeadlineRSSElement@@PAPAV2@0000U?$JArray_PointerPred@PAVSPHeadlineRSSElement@@@@@Z 004b9280 f i sp_headlinerss.obj
 0001:000b82f0       ?_Unguarded_insert@std@@YAXPAPAVSPHeadlineRSSElement@@PAV2@U?$JArray_PointerPred@PAVSPHeadlineRSSElement@@@@@Z 004b92f0 f i sp_headlinerss.obj
 0001:000b8330       ?merge@std@@YA?AV?$_Temp_iterator@PAVSPHeadlineRSSElement@@@1@PAPAVSPHeadlineRSSElement@@000V21@U?$JArray_PointerPred@PAVSPHeadlineRSSElement@@@@@Z 004b9330 f i sp_headlinerss.obj
 0001:000b8430       ?copy@std@@YAPAPAVSPHeadlineRSSElement@@PAPAV2@00@Z 004b9430 f i sp_headlinerss.obj
 0001:000b8460       ?_Lower_bound@std@@YAPAPAVSPHeadlineRSSElement@@PAPAV2@0ABQAV2@U?$JArray_PointerPred@PAVSPHeadlineRSSElement@@@@PAH@Z 004b9460 f i sp_headlinerss.obj
 0001:000b84b0       ?rotate@std@@YAXPAPAVSPHeadlineRSSElement@@00@Z 004b94b0 f i sp_headlinerss.obj
 0001:000b8560       ?GetSPHistory@@YAAAVSPHistory@@XZ 004b9560 f   sp_history.obj
 0001:000b85a0       ??0SPHistory@@QAE@XZ       004b95a0 f i sp_history.obj
 0001:000b8710       ??_ESPHistory@@UAEPAXI@Z   004b9710 f i sp_history.obj
 0001:000b8710       ??_GSPHistory@@UAEPAXI@Z   004b9710 f i sp_history.obj
 0001:000b8740       ??1SPHistory@@UAE@XZ       004b9740 f i sp_history.obj
 0001:000b88d0       ??_F?$JArray@J@@QAEXXZ     004b98d0 f i sp_history.obj
 0001:000b88f0       ?Save@SPHistory@@QAEXH@Z   004b98f0 f   sp_history.obj
 0001:000b8980       ?SaveOne@SPHistory@@AAEXH@Z 004b9980 f   sp_history.obj
 0001:000b8a70       ?Load@SPHistory@@QAEXXZ    004b9a70 f   sp_history.obj
 0001:000b8cc0       ?GetGhost@SPHistory@@QAEPAVSPGhostProp@@K@Z 004b9cc0 f   sp_history.obj
 0001:000b8d50       ?Get@SPHistory@@QAEPAVSPProp@@W4SPHistoryID@@K@Z 004b9d50 f   sp_history.obj
 0001:000b8e40       ?Add@SPHistory@@QAEXW4SPHistoryID@@PAVSPProp@@@Z 004b9e40 f   sp_history.obj
 0001:000b9110       ?ValidateCache@SPHistory@@AAEXW4SPHistoryID@@@Z 004ba110 f   sp_history.obj
 0001:000b9300       ?SetHistoryNum@SPHistory@@QAEXK@Z 004ba300 f   sp_history.obj
 0001:000b9320       ?UpdateHistoryNum@SPHistory@@QAEXXZ 004ba320 f   sp_history.obj
 0001:000b9410       ?VarGet@SPHistory@@UAE_NPAVSPGhost@@PAGAAVJWString@@PAVSPVarSystemNode@@@Z 004ba410 f   sp_history.obj
 0001:000b9730       ?DeleteAllObject@?$JPtrArray@PAVJString@@@@QAEXXZ 004ba730 f i sp_history.obj
 0001:000b9780       ??_GJString@@QAEPAXI@Z     004ba780 f i sp_history.obj
 0001:000b97b0       ?Size@?$JArray@J@@QBEKXZ   004ba7b0 f i sp_history.obj
 0001:000b97b0       ?Size@?$JArray@PAX@@QBEKXZ 004ba7b0 f i sp_history.obj
 0001:000b97d0       ?Add@?$JArray@J@@QAEAAJXZ  004ba7d0 f i sp_history.obj
 0001:000b97d0       ?Add@?$JArray@PAX@@QAEAAPAXXZ 004ba7d0 f i sp_history.obj
 0001:000b98b0       ?ShiftRight@?$JArray@J@@QAEXJJ@Z 004ba8b0 f i sp_history.obj
 0001:000b99c0       ?SetSSLVerify@SPHttp@@SAXH@Z 004ba9c0 f   sp_http.obj
 0001:000b99e0       ?SetProxyAuth@SPHttp@@AAEXPBD0@Z 004ba9e0 f   sp_http.obj
 0001:000b9aa0       ?SetConnectionAuth@SPHttp@@QAEXPBD0@Z 004baaa0 f   sp_http.obj
 0001:000b9af0       ?SetCookie@SPHttp@@QAEXPBD@Z 004baaf0 f   sp_http.obj
 0001:000b9b20       ?Connect@SPHttp@@QAEHPBD@Z 004bab20 f   sp_http.obj
 0001:000b9c40       ?ConnectInternal@SPHttp@@QAEHPBD@Z 004bac40 f   sp_http.obj
 0001:000b9f80       ?Reconnect@SPHttp@@AAEHXZ  004baf80 f   sp_http.obj
 0001:000ba310       ?ErrorText@SPHttp@@QAEPAGH@Z 004bb310 f   sp_http.obj
 0001:000ba390       ?Close@SPHttp@@QAEXH@Z     004bb390 f   sp_http.obj
 0001:000ba5a0       ?Break@SPHttp@@QAEXXZ      004bb5a0 f   sp_http.obj
 0001:000ba5b0       ?CloseInternal@SPHttp@@QAEXH@Z 004bb5b0 f   sp_http.obj
 0001:000ba600       ?IsSocketError@SPHttp@@AAEHXZ 004bb600 f   sp_http.obj
 0001:000ba640       ?SetIfModifiedSince@SPHttp@@QAEXPBD@Z 004bb640 f   sp_http.obj
 0001:000ba6a0       ?RetryConnect@SPHttp@@AAEHPBD00W4SPHttp_Method@@@Z 004bb6a0 f   sp_http.obj
 0001:000ba720       ?ReadSimple@SPHttp@@QAEHPBD00W4SPHttp_Method@@@Z 004bb720 f   sp_http.obj
 0001:000ba7e0       ?ReadSimple@SPHttp@@QAEHPBDPBG0W4SPHttp_Method@@@Z 004bb7e0 f   sp_http.obj
 0001:000ba990       ?Read@SPHttp@@QAEHPBD00W4SPHttp_Method@@@Z 004bb990 f   sp_http.obj
 0001:000baa30       ?RealRead@SPHttp@@AAEHPBD00W4SPHttp_Method@@@Z 004bba30 f   sp_http.obj
 0001:000bc1b0       ?RealReadHeader@SPHttp@@AAE_NAAVJString@@@Z 004bd1b0 f   sp_http.obj
 0001:000bc310       ?RealReadContent@SPHttp@@AAEHPAVSPStreamFilter@@PBDAAVJStream@@@Z 004bd310 f   sp_http.obj
 0001:000bc470       ?SetFlag@SPHttp@@AAEXIH@Z  004bd470 f   sp_http.obj
 0001:000bc4b0       ?CallNotifyProc@SPHttp@@AAEXXZ 004bd4b0 f   sp_http.obj
 0001:000bc510       ?ExecAuth@SPHttp@@AAEHPBDPAD@Z 004bd510 f   sp_http.obj
 0001:000bc6e0       ?MakeConnectionAuth@SPHttp@@AAEHPAD0@Z 004bd6e0 f   sp_http.obj
 0001:000bc840       ?Redirect@SPHttp@@AAEHPBDPAD@Z 004bd840 f   sp_http.obj
 0001:000bcb10       ?LastExtFromContentType@SPHttp@@QBEPBDXZ 004bdb10 f   sp_http.obj
 0001:000bcdb0       ?LastHost@SPHttp@@QBEXAAVJString@@H@Z 004bddb0 f   sp_http.obj
 0001:000bcf50       ?LastFullUrl@SPHttp@@QBEXAAVJWString@@HH@Z 004bdf50 f   sp_http.obj
 0001:000bd010       ?LastFullUrl@SPHttp@@QBEXAAVJString@@HH@Z 004be010 f   sp_http.obj
 0001:000bd170       ?GetProtocolScheme@SPHttp@@SAPADW4SPHttp_Type@@@Z 004be170 f   sp_http.obj
 0001:000bd1a0       ?GetDefaultPort@SPHttp@@QBEHXZ 004be1a0 f   sp_http.obj
 0001:000bd1c0       ?FileProtocolHandler@SPHttp@@AAEHPBD0@Z 004be1c0 f   sp_http.obj
 0001:000bd3e0       ?DataProtocolHandler@SPHttp@@AAEHPBD0@Z 004be3e0 f   sp_http.obj
 0001:000bd690       ?SPBalloonProgressProc@@YAJPAXKK@Z 004be690 f   sp_httputil.obj
 0001:000bd6b0       ?SPLoadIconFromFile@@YAPAUHICON__@@PADHII@Z 004be6b0 f   sp_iconloader.obj
 0001:000bdb70       ?SPInstallProc@@YAXPAVSPGhost@@PADH@Z 004beb70 f   sp_install.obj
 0001:000bdbb0       ?SPInstallProc@@YAXPAVSPGhost@@PAVSPMultiFile@@H@Z 004bebb0 f   sp_install.obj
 0001:000bdc60       ??0SPInstaller@@QAE@PAVSPGhost@@PAVSPMultiFile@@@Z 004bec60 f   sp_install.obj
 0001:000bdd20       ??1SPInstaller@@QAE@XZ     004bed20 f   sp_install.obj
 0001:000bddb0       ?Install@SPInstaller@@QAE_NXZ 004bedb0 f   sp_install.obj
 0001:000bde10       ?ThreadProc@SPInstaller@@QAE_NXZ 004bee10 f   sp_install.obj
 0001:000be070       ?InstallProc@SPInstaller@@AAE_NPAD@Z 004bf070 f   sp_install.obj
 0001:000be490       ?InstallProcCore@SPInstaller@@AAE_NPADAAVJWString@@1111AAPAG2@Z 004bf490 f   sp_install.obj
 0001:000c0d50       ??1SPFindFile@@QAE@XZ      004c1d50 f i sp_install.obj
 0001:000c0da0       ?InstallFiles@SPInstaller@@AAEXPAD0_NPAG@Z 004c1da0 f   sp_install.obj
 0001:000c0e90       ?InstallFilesMask@SPInstaller@@AAEXPAD0_NPAV?$JPtrArray@PAG@@@Z 004c1e90 f   sp_install.obj
 0001:000c1020       ??1SPDeleteTxt@@QAE@XZ     004c2020 f i sp_install.obj
 0001:000c10c0       ?UpdateResources@SPInstaller@@AAEHXZ 004c20c0 f   sp_install.obj
 0001:000c10f0       ?GetObjectName@SPInstaller@@AAEHAAVJString@@AAVJWString@@@Z 004c20f0 f   sp_install.obj
 0001:000c13c0       ?GetObjectNameArray@SPInstaller@@AAEHAAVJString@@AAVJWString@@@Z 004c23c0 f   sp_install.obj
 0001:000c14f0       ?GetSourceAndTarget@SPInstaller@@AAEHABVSPSettings@@PBDIABVJString@@AAV3@3@Z 004c24f0 f   sp_install.obj
 0001:000c2260       ??4?$JArray@D@@QAEAAV0@ABV0@@Z 004c3260 f i sp_install.obj
 0001:000c2350       ??4?$JArray@K@@QAEAAV0@ABV0@@Z 004c3350 f i sp_install.obj
 0001:000c2460       ?Complete@SPInstallEvent@@QAEHPAPAGHPAG@Z 004c3460 f   sp_installevent.obj
 0001:000c27d0       ?Refuse@SPInstallEvent@@QAEHPAPAGH@Z 004c37d0 f   sp_installevent.obj
 0001:000c2890       ?Failure@SPInstallEvent@@QAEHPAPAGH@Z 004c3890 f   sp_installevent.obj
 0001:000c2950       ?Begin@SPInstallEvent@@QAEHPAPAGH@Z 004c3950 f   sp_installevent.obj
 0001:000c2a10       ??0SPIPMessenger@@QAE@XZ   004c3a10 f   sp_ipmsgr.obj
 0001:000c2b80       ??1SPIPMessenger@@QAE@XZ   004c3b80 f   sp_ipmsgr.obj
 0001:000c2c70       ?Open@SPIPMessenger@@QAEHPAUHWND__@@@Z 004c3c70 f   sp_ipmsgr.obj
 0001:000c2d60       ?Close@SPIPMessenger@@QAEXXZ 004c3d60 f   sp_ipmsgr.obj
 0001:000c2de0       ?ReleaseBroadcastAddr@SPIPMessenger@@AAEXXZ 004c3de0 f   sp_ipmsgr.obj
 0001:000c2e50       ?Send@SPIPMessenger@@AAEHHVJSockAddr@@AAVSPIPMessengerMsgData@@@Z 004c3e50 f   sp_ipmsgr.obj
 0001:000c2f30       ?SendToHelperFunc@SPIPMessenger@@AAEHABVJSockAddr@@HPBDK@Z 004c3f30 f   sp_ipmsgr.obj
 0001:000c2fa0       ?SendBroadcast@SPIPMessenger@@AAEHHAAVSPIPMessengerMsgData@@@Z 004c3fa0 f   sp_ipmsgr.obj
 0001:000c3120       ?MakeMsg@SPIPMessenger@@AAEHAAV?$JArray@D@@AAVSPIPMessengerMsgData@@@Z 004c4120 f   sp_ipmsgr.obj
 0001:000c3460       ?ProcReceive@SPIPMessenger@@QAEHKK@Z 004c4460 f   sp_ipmsgr.obj
 0001:000c3b50       ?MessageRecv@SPIPMessenger@@QAEXPBDABVJSockAddr@@@Z 004c4b50 f   sp_ipmsgr.obj
 0001:000c3cc0       ?MessageSend@SPIPMessenger@@QAEHPAVSPMessengerUser@@PBDK@Z 004c4cc0 f   sp_ipmsgr.obj
 0001:000c3d30       ?SendMyProperty@SPIPMessenger@@AAEHHABVJSockAddr@@KH@Z 004c4d30 f   sp_ipmsgr.obj
 0001:000c3ed0       ?ScriptToMsg@SPIPMessenger@@QAEHAAV?$JArray@D@@PADH@Z 004c4ed0 f   sp_ipmsgr.obj
 0001:000c4120       ?SavePref@SPIPMessenger@@QAEXXZ 004c5120 f   sp_ipmsgr.obj
 0001:000c4200       ?LoadPref@SPIPMessenger@@QAEXXZ 004c5200 f   sp_ipmsgr.obj
 0001:000c4510       ?InitBroadcastAddr@SPIPMessenger@@QAEXXZ 004c5510 f   sp_ipmsgr.obj
 0001:000c46c0       ?AddBroadcastAddr@SPIPMessenger@@QAEXPAD@Z 004c56c0 f   sp_ipmsgr.obj
 0001:000c4850       ?DelBroadcastAddr@SPIPMessenger@@QAEXJ@Z 004c5850 f   sp_ipmsgr.obj
 0001:000c4960       ?Add@?$JArray@D@@QAEXPBDJ@Z 004c5960 f i sp_ipmsgr.obj
 0001:000c4a40       ?Realloc@?$JArray@VJSockAddr@@@@QAE_NK@Z 004c5a40 f i sp_ipmsgr.obj
 0001:000c4a40       ?Realloc@?$JArray@USPSerikoAnimationQueue@@@@QAE_NK@Z 004c5a40 f i sp_ipmsgr.obj
 0001:000c4af0       ??0SPKei@@QAE@XZ           004c5af0 f   sp_kei.obj
 0001:000c4c10       ??1SPKei@@QAE@XZ           004c5c10 f   sp_kei.obj
 0001:000c4c30       ?Extract@SPKei@@QAEHPAD00H@Z 004c5c30 f   sp_kei.obj
 0001:000c4cc0       ?CanExtract@SPKei@@QAEHPAD@Z 004c5cc0 f   sp_kei.obj
 0001:000c4d50       ?CanExtractExtension@SPKei@@QAEPBDXZ 004c5d50 f   sp_kei.obj
 0001:000c4d70       ?Compress@SPKei@@QAEHPAD00H@Z 004c5d70 f   sp_kei.obj
 0001:000c4df0       ?IsSelfUnpack@SPKei@@QAEHPAD@Z 004c5df0 f   sp_kei.obj
 0001:000c4e20       ??0SPLogData@@QAE@PBG0I@Z  004c5e20 f   sp_logdata.obj
 0001:000c4f40       ??_GSPLogData@@UAEPAXI@Z   004c5f40 f i sp_logdata.obj
 0001:000c4f40       ??_ESPLogData@@UAEPAXI@Z   004c5f40 f i sp_logdata.obj
 0001:000c4f70       ??1SPLogData@@UAE@XZ       004c5f70 f i sp_logdata.obj
 0001:000c4fd0       ?Set@SPLogData@@QAEXPBG0I@Z 004c5fd0 f   sp_logdata.obj
 0001:000c51c0       ?SetTime@SPLogData@@QAEXXZ 004c61c0 f   sp_logdata.obj
 0001:000c51d0       ?GetTime@SPLogData@@QAEXAAU_SYSTEMTIME@@@Z 004c61d0 f   sp_logdata.obj
 0001:000c51f0       ?VarGet@SPLogData@@UAE_NPAVSPGhost@@PAGAAVJWString@@PAVSPVarSystemNode@@@Z 004c61f0 f   sp_logdata.obj
 0001:000c5370       ?GetTypeText@SPScriptLogData@@UAEXAAVJString@@@Z 004c6370 f   sp_logdata.obj
 0001:000c55b0       ?GetIconID@SPScriptLogData@@UAEHXZ 004c65b0 f   sp_logdata.obj
 0001:000c55d0       ?GetTypeText@SPErrorLogData@@UAEXAAVJString@@@Z 004c65d0 f   sp_logdata.obj
 0001:000c55f0       ?GetIconID@SPErrorLogData@@UAEHXZ 004c65f0 f   sp_logdata.obj
 0001:000c5630       ?LevelTextToNum@SPErrorLogData@@SAHPBD@Z 004c6630 f   sp_logdata.obj
 0001:000c56e0       ?LevelNumToText@SPErrorLogData@@SAPBDI@Z 004c66e0 f   sp_logdata.obj
 0001:000c5730       ?Release@SPLogManagerCore@@QAEXXZ 004c6730 f   sp_logmanager.obj
 0001:000c57b0       ?SetNum@SPLogManagerCore@@QAEXI@Z 004c67b0 f   sp_logmanager.obj
 0001:000c57f0       ?Add@SPLogManagerCore@@QAEKPBG0I@Z 004c67f0 f   sp_logmanager.obj
 0001:000c59f0       ?SetText@SPLogManagerCore@@QAE_NKPBG@Z 004c69f0 f   sp_logmanager.obj
 0001:000c5aa0       ?VarGet@SPLogManagerCore@@MAE_NPAVSPGhost@@PAGAAVJWString@@PAVSPVarSystemNode@@@Z 004c6aa0 f   sp_logmanager.obj
 0001:000c5d90       ?New@SPLogManagerScript@@EAEPAVSPLogData@@PBG0I@Z 004c6d90 f   sp_logmanager.obj
 0001:000c5df0       ??_ESPScriptLogData@@UAEPAXI@Z 004c6df0 f i sp_logmanager.obj
 0001:000c5df0       ??_GSPScriptLogData@@UAEPAXI@Z 004c6df0 f i sp_logmanager.obj
 0001:000c5e20       ??1SPScriptLogData@@UAE@XZ 004c6e20 f i sp_logmanager.obj
 0001:000c5e80       ?New@SPLogManagerError@@EAEPAVSPLogData@@PBG0I@Z 004c6e80 f   sp_logmanager.obj
 0001:000c5ee0       ??_GSPErrorLogData@@UAEPAXI@Z 004c6ee0 f i sp_logmanager.obj
 0001:000c5ee0       ??_ESPErrorLogData@@UAEPAXI@Z 004c6ee0 f i sp_logmanager.obj
 0001:000c5f10       ??1SPErrorLogData@@UAE@XZ  004c6f10 f i sp_logmanager.obj
 0001:000c5f70       ??0SPMakoto@@QAE@PAVSPGhost@@@Z 004c6f70 f   sp_makoto.obj
 0001:000c60e0       ?GetModuleDesc@SPMakoto@@UAEPBGXZ 004c70e0 f i sp_makoto.obj
 0001:000c60f0       ?GetLogFileName@SPMakoto@@UAEPBDXZ 004c70f0 f i sp_makoto.obj
 0001:000c6100       ??_ESPMakoto@@UAEPAXI@Z    004c7100 f i sp_makoto.obj
 0001:000c6100       ??_GSPMakoto@@UAEPAXI@Z    004c7100 f i sp_makoto.obj
 0001:000c6130       ??1SPMakoto@@UAE@XZ        004c7130 f i sp_makoto.obj
 0001:000c61b0       ?LoadProc@SPMakoto@@QAEHPAD@Z 004c71b0 f   sp_makoto.obj
 0001:000c68f0       ?Load@SPMakoto@@QAEHPAD@Z  004c78f0 f   sp_makoto.obj
 0001:000c6c60       ?Unload@SPMakoto@@QAEXXZ   004c7c60 f   sp_makoto.obj
 0001:000c6cf0       ?Notify@SPMakoto@@QAE_NPBGPAPAGK@Z 004c7cf0 f   sp_makoto.obj
 0001:000c6d50       ?NotifyReal@SPMakoto@@AAE_NPBGPAPAGK@Z 004c7d50 f   sp_makoto.obj
 0001:000c7010       ?Translate@SPMakoto@@QAEPBGPBG0H@Z 004c8010 f   sp_makoto.obj
 0001:000c7060       ?TranslateReal@SPMakoto@@AAEPBGPBG0H@Z 004c8060 f   sp_makoto.obj
 0001:000c7450       ?GetVersion@SPMakoto@@QAEHXZ 004c8450 f   sp_makoto.obj
 0001:000c7540       ??_ESPMakoto@@WBIE@AEPAXI@Z 004c8540 f i sp_makoto.obj
 0001:000c7590       ?Release@SPMenuItem@@QAEXXZ 004c8590 f   sp_menu.obj
 0001:000c7640       ?ClearValue@SPMenuItem@@QAEXXZ 004c8640 f   sp_menu.obj
 0001:000c7670       ?DeleteChildren@SPMenuItem@@QAEXK@Z 004c8670 f   sp_menu.obj
 0001:000c7700       ?AddMenuItemW@SPMenuItem@@QAEPAV1@PBGK@Z 004c8700 f   sp_menu.obj
 0001:000c7940       ??0SPMenuItem@@QAE@XZ      004c8940 f i sp_menu.obj
 0001:000c79e0       ??1SPMenuItem@@QAE@XZ      004c89e0 f i sp_menu.obj
 0001:000c7a30       ?ModifyAsSubMenuParent@SPMenuItem@@QAEXPAX@Z 004c8a30 f   sp_menu.obj
 0001:000c7a50       ?SetHandle@SPMenuItem@@QAEXPAX@Z 004c8a50 f   sp_menu.obj
 0001:000c7ce0       ?GetMenuItemByPosition@SPMenuItem@@QAEPAV1@J@Z 004c8ce0 f   sp_menu.obj
 0001:000c7d10       ?GetMenuItemByCommand@SPMenuItem@@QAEPAV1@K@Z 004c8d10 f   sp_menu.obj
 0001:000c7d60       ?ModifyMenuItemW@SPMenuItem@@QAEXPBG@Z 004c8d60 f   sp_menu.obj
 0001:000c7dd0       ?GetMenuHeight@SPMenuItem@@QAEJXZ 004c8dd0 f   sp_menu.obj
 0001:000c7e10       ?SetSelfHeight@SPMenuItem@@QAEXJ@Z 004c8e10 f   sp_menu.obj
 0001:000c7e40       ?GetMenuText@SPMenuItem@@QAEXAAVJWString@@@Z 004c8e40 f   sp_menu.obj
 0001:000c7e70       ??0SPMenu@@QAE@XZ          004c8e70 f   sp_menu.obj
 0001:000c80c0       ??1SPMenu@@QAE@XZ          004c90c0 f   sp_menu.obj
 0001:000c8230       ?Release@SPMenu@@QAEXXZ    004c9230 f   sp_menu.obj
 0001:000c82b0       ?ReleaseSurfaces@SPMenu@@AAEXXZ 004c92b0 f   sp_menu.obj
 0001:000c8300       ?ReleaseFonts@SPMenu@@AAEXXZ 004c9300 f   sp_menu.obj
 0001:000c8360       ?InitMenuProp@SPMenu@@QAEXXZ 004c9360 f   sp_menu.obj
 0001:000c8460       ?SetMenuFlag@SPMenu@@SIXAAIPAD@Z 004c9460 f   sp_menu.obj
 0001:000c8500       ?SetMenuFlag@SPMenu@@SIXAAIPAG@Z 004c9500 f   sp_menu.obj
 0001:000c85a0       ?LoadFromDescript@SPMenu@@QAEHPAD0H@Z 004c95a0 f   sp_menu.obj
 0001:000c8af0       ?SetBarText@SPMenu@@QAEXPAG@Z 004c9af0 f   sp_menu.obj
 0001:000c8b50       ?SetBarWidth@SPMenu@@QAEXK@Z 004c9b50 f   sp_menu.obj
 0001:000c8b80       ?LoadMenuDescript@SPMenu@@QAEHPAD@Z 004c9b80 f   sp_menu.obj
 0001:000c8cb0       ?SetPath@SPMenu@@QAEXPAPADI@Z 004c9cb0 f   sp_menu.obj
 0001:000c8e70       ?LoadSurface@SPMenu@@QAE_NXZ 004c9e70 f   sp_menu.obj
 0001:000c8fc0       ?LoadSurfaceBackground@SPMenu@@QAE_NH@Z 004c9fc0 f   sp_menu.obj
 0001:000c8fe0       ?LoadSurfaceForeground@SPMenu@@QAE_NH@Z 004c9fe0 f   sp_menu.obj
 0001:000c9000       ?LoadSurfaceSidebar@SPMenu@@QAE_NH@Z 004ca000 f   sp_menu.obj
 0001:000c9020       ?LoadMultipleMenuImage@SPMenu@@AAE_NHAAVJString@@AAV?$JPtrArray@PAVJSurface@@@@@Z 004ca020 f   sp_menu.obj
 0001:000c9400       ?SetValues@SPMenu@@AAEPAVJSurface@@IAAVSPColor@@IAAV?$JPtrArray@PAVJSurface@@@@@Z 004ca400 f   sp_menu.obj
 0001:000c9650       ?ShowPopup@SPMenu@@QAEXPAX0PBVJPoint@@@Z 004ca650 f   sp_menu.obj
 0001:000c9700       ?PreparePopup@SPMenu@@QAEXPAX0@Z 004ca700 f   sp_menu.obj
 0001:000c9b30       ?MeasureItem@SPMenu@@QAEHHPAUtagMEASUREITEMSTRUCT@@@Z 004cab30 f   sp_menu.obj
 0001:000c9c70       ?DrawItem@SPMenu@@QAEHHPAUtagDRAWITEMSTRUCT@@@Z 004cac70 f   sp_menu.obj
 0001:000ca470       ?LoadSurfaceDataFromName@SPMenu@@AAEPAVJSurface@@PAD@Z 004cb470 f   sp_menu.obj
 0001:000ca660       ?NewItem@SPMenu@@SAPAVSPMenuItem@@XZ 004cb660 f   sp_menu.obj
 0001:000ca670       ?DeleteItem@SPMenu@@SAXPAVSPMenuItem@@@Z 004cb670 f   sp_menu.obj
 0001:000ca690       ??0?$SPCacheObj@VSPMenuItem@@VJDummyLockSection@@VJDummyLock@@@@QAE@K@Z 004cb690 f i sp_menu.obj
 0001:000ca6e0       ??1?$SPCacheObj@VSPMenuItem@@VJDummyLockSection@@VJDummyLock@@@@QAE@XZ 004cb6e0 f i sp_menu.obj
 0001:000ca7a0       ?New@?$SPCacheObj@VSPMenuItem@@VJDummyLockSection@@VJDummyLock@@@@QAEPAVSPMenuItem@@XZ 004cb7a0 f i sp_menu.obj
 0001:000ca8e0       ?Delete@?$SPCacheObj@VSPMenuItem@@VJDummyLockSection@@VJDummyLock@@@@QAEXPAVSPMenuItem@@@Z 004cb8e0 f i sp_menu.obj
 0001:000caa00       ?DeleteArray@?$SPCacheObj@VSPMenuItem@@VJDummyLockSection@@VJDummyLock@@@@QAEXAAV?$JPtrArray@PAVSPMenuItem@@@@@Z 004cba00 f i sp_menu.obj
 0001:000cab10       ??0SPMenuHack@@QAE@XZ      004cbb10 f   sp_menuhack.obj
 0001:000cab90       ??1SPMenuHack@@QAE@XZ      004cbb90 f   sp_menuhack.obj
 0001:000cabd0       ?EnterMenuLoop@SPMenuHack@@QAEXXZ 004cbbd0 f   sp_menuhack.obj
 0001:000cabf0       ?ExitMenuLoop@SPMenuHack@@QAEXXZ 004cbbf0 f   sp_menuhack.obj
 0001:000cac30       ?GetMenuData@SPMenuHack@@QAEPAUtagSPMenuHackData@@PAUHWND__@@@Z 004cbc30 f   sp_menuhack.obj
 0001:000cac80       ?AddMenuData@SPMenuHack@@QAEPAUtagSPMenuHackData@@PAUHWND__@@@Z 004cbc80 f   sp_menuhack.obj
 0001:000cae00       ?RestoreMenu@SPMenuHack@@QAEXPAUtagSPMenuHackData@@@Z 004cbe00 f   sp_menuhack.obj
 0001:000cae40       ?DeleteMenuData@SPMenuHack@@QAEXPAUtagSPMenuHackData@@@Z 004cbe40 f   sp_menuhack.obj
 0001:000caed0       ?CallWndProc@SPMenuHack@@CGJHIJ@Z 004cbed0 f   sp_menuhack.obj
 0001:000cafd0       ?WindowProc@SPMenuHack@@CGJPAUHWND__@@IIJ@Z 004cbfd0 f   sp_menuhack.obj
 0001:000cb2c0       ??0SPModule@@QAE@XZ        004cc2c0 f   sp_module.obj
 0001:000cb530       ??1JMutex@@UAE@XZ          004cc530 f i sp_module.obj
 0001:000cb580       ??_GJMutex@@UAEPAXI@Z      004cc580 f i sp_module.obj
 0001:000cb580       ??_EJMutex@@UAEPAXI@Z      004cc580 f i sp_module.obj
 0001:000cb5b0       ??_ESPModule@@UAEPAXI@Z    004cc5b0 f i sp_module.obj
 0001:000cb5b0       ??_GSPModule@@UAEPAXI@Z    004cc5b0 f i sp_module.obj
 0001:000cb5e0       ??1SPModule@@UAE@XZ        004cc5e0 f   sp_module.obj
 0001:000cb7d0       ?Release@SPModule@@UAEXXZ  004cc7d0 f   sp_module.obj
 0001:000cb7d0       ?Unload@SPScheduleSensor@@QAEXXZ 004cc7d0 f   sp_module.obj
 0001:000cb810       ?LoadLib@SPModule@@QAE_NPBD@Z 004cc810 f   sp_module.obj
 0001:000cb900       ?ExecLoadSEH@SPModule@@QAEHP6AHPAXJ@Z0J@Z 004cc900 f   sp_module.obj
 0001:000cba70       ?ExecUnloadSEH@SPModule@@QAEHP6AHXZ@Z 004cca70 f   sp_module.obj
 0001:000cbbc0       ?ExecRequestSEH@SPModule@@QAEPAXP6APAXPAXPAJ@Z01@Z 004ccbc0 f   sp_module.obj
 0001:000cbd20       ?ExecGetSEH@SPModule@@QAEPAGP6APAXPAJ@Z@Z 004ccd20 f   sp_module.obj
 0001:000cbe70       ?CallRequestAndLog@SPModule@@QAEPAXAAVJString@@AAJ@Z 004cce70 f   sp_module.obj
 0001:000cc000       ?SetLogEnable@SPModule@@QAEX_N@Z 004cd000 f   sp_module.obj
 0001:000cc030       ?WriteLog@SPModule@@QAEXPADPAXHK@Z 004cd030 f   sp_module.obj
 0001:000cc230       ?CallGetVersionAndLoad@SPModule@@IAE?AVSPModuleGetVersionResult@@PAG@Z 004cd230 f   sp_module.obj
 0001:000cc3f0       ?GetGenericProcAddress@SPModule@@IAEXXZ 004cd3f0 f   sp_module.obj
 0001:000cc450       ?SetPath@SPModule@@UAEXPAD@Z 004cd450 f   sp_module.obj
 0001:000cc4c0       ?ToString@SPModule@@QAEPAGPAXJ@Z 004cd4c0 f   sp_module.obj
 0001:000cc590       ?ToHandleW@SPModule@@QAEPAXPBGAAJ@Z 004cd590 f   sp_module.obj
 0001:000cc690       ?ToHandleA@SPModule@@SAPAXPBDAAJ@Z 004cd690 f   sp_module.obj
 0001:000cc6d0       ?ToHandleA@SPModule@@SAPAXAAVJString@@AAJ@Z 004cd6d0 f   sp_module.obj
 0001:000cc6f0       ?GetLoadPath@SPModule@@QAEPAXAAJ@Z 004cd6f0 f   sp_module.obj
 0001:000cc750       ?GMFree@SPModule@@SAXPAX@Z 004cd750 f   sp_module.obj
 0001:000cc7b0       ?GMSize@SPModule@@SAJPAXJ@Z 004cd7b0 f   sp_module.obj
 0001:000cc830       ?GetProcAddressModule@SPModule@@QAEPAXPAD@Z 004cd830 f   sp_module.obj
 0001:000cc870       ?ParseCharset@SPModule@@QAEXXZ 004cd870 f   sp_module.obj
 0001:000cc910       ??_ESPModule@@WBIE@AEPAXI@Z 004cd910 f i sp_module.obj
 0001:000cc920       ?SendMessageA@SPMsgSenderSSTP@@UAEHPADH@Z 004cd920 f   sp_msgsender.obj
 0001:000ccb10       ?Loop@SPMsgSenderSSTP@@UAEHXZ 004cdb10 f   sp_msgsender.obj
 0001:000ccc10       ?SendMessageA@SPMsgSenderIPMessenger@@UAEHPADH@Z 004cdc10 f   sp_msgsender.obj
 0001:000ccc60       ?Loop@SPMsgSenderIPMessenger@@UAEHXZ 004cdc60 f   sp_msgsender.obj
 0001:000ccce0       ??0SPMessengerUser@@QAE@XZ 004cdce0 f   sp_msguser.obj
 0001:000cce30       ?Clear@SPMessengerUser@@QAEXXZ 004cde30 f   sp_msguser.obj
 0001:000cd060       ??1SPMessengerUser@@QAE@XZ 004ce060 f   sp_msguser.obj
 0001:000cd150       ?GetAddress@SPMessengerUser@@QAEPADXZ 004ce150 f   sp_msguser.obj
 0001:000cd190       ?GetAddressNum@SPMessengerUser@@QAEABVJSockAddr@@XZ 004ce190 f   sp_msguser.obj
 0001:000cd1c0       ?SetAddress@SPMessengerUser@@QAEXPBD@Z 004ce1c0 f   sp_msguser.obj
 0001:000cd1e0       ?ClearAddress@SPMessengerUser@@QAEXXZ 004ce1e0 f   sp_msguser.obj
 0001:000cd2c0       ?IsSSTPAware@SPMessengerUser@@QAE_NXZ 004ce2c0 f   sp_msguser.obj
 0001:000cd2d0       ??8SPMessengerUser@@QAEHAAV0@@Z 004ce2d0 f   sp_msguser.obj
 0001:000cd3e0       ?AddLog@SPMessengerUser@@QAEXPBG0II_N@Z 004ce3e0 f   sp_msguser.obj
 0001:000cd580       ??_GSPMessengerLogData@@UAEPAXI@Z 004ce580 f i sp_msguser.obj
 0001:000cd580       ??_ESPMessengerLogData@@UAEPAXI@Z 004ce580 f i sp_msguser.obj
 0001:000cd5b0       ??1SPMessengerLogData@@UAE@XZ 004ce5b0 f i sp_msguser.obj
 0001:000cd610       ?DeleteLog@SPMessengerUser@@QAEXXZ 004ce610 f   sp_msguser.obj
 0001:000cd660       ?GetTypeText@SPMessengerLogData@@UAEXAAVJString@@@Z 004ce660 f   sp_msguser.obj
 0001:000cd690       ?GetIconID@SPMessengerLogData@@UAEHXZ 004ce690 f   sp_msguser.obj
 0001:000cd6a0       ?GetSPMessengerUserManager@@YAAAVSPMessengerUserManager@@XZ 004ce6a0 f   sp_msguser.obj
 0001:000cd6f0       ??0SPMessengerUserManager@@QAE@XZ 004ce6f0 f   sp_msguser.obj
 0001:000cd790       ??1SPMessengerUserManager@@QAE@XZ 004ce790 f   sp_msguser.obj
 0001:000cd8c0       ?ConstructUser@SPMessengerUserManager@@QAEPAVSPMessengerUser@@ABVJSockAddr@@HH@Z 004ce8c0 f   sp_msguser.obj
 0001:000cda00       ?DestructUser@SPMessengerUserManager@@QAEXPAVSPMessengerUser@@@Z 004cea00 f   sp_msguser.obj
 0001:000cdae0       ?GetUserByIPAddress@SPMessengerUserManager@@QAEPAVSPMessengerUser@@ABVJSockAddr@@@Z 004ceae0 f   sp_msguser.obj
 0001:000cdb10       ?GetRegUserByIPAddress@SPMessengerUserManager@@QAEPAVSPMessengerUser@@ABVJSockAddr@@@Z 004ceb10 f   sp_msguser.obj
 0001:000cdb50       ?GetTempUserByIPAddress@SPMessengerUserManager@@QAEPAVSPMessengerUser@@ABVJSockAddr@@@Z 004ceb50 f   sp_msguser.obj
 0001:000cdba0       ?GetTempUser@SPMessengerUserManager@@QAEPAVSPMessengerUser@@PAV2@@Z 004ceba0 f   sp_msguser.obj
 0001:000cdbe0       ?AddUser@SPMessengerUserManager@@QAEHPAVSPMessengerUser@@@Z 004cebe0 f   sp_msguser.obj
 0001:000cdcd0       ?AddTempUser@SPMessengerUserManager@@QAEHPAVSPMessengerUser@@@Z 004cecd0 f   sp_msguser.obj
 0001:000cddd0       ?DelUser@SPMessengerUserManager@@QAEHPAVSPMessengerUser@@@Z 004cedd0 f   sp_msguser.obj
 0001:000cde50       ?DelTempUser@SPMessengerUserManager@@QAEHPAVSPMessengerUser@@@Z 004cee50 f   sp_msguser.obj
 0001:000cded0       ?DelIPMessengerUsers@SPMessengerUserManager@@QAEHXZ 004ceed0 f   sp_msguser.obj
 0001:000cdf70       ?LoadUsers@SPMessengerUserManager@@QAEHPAD@Z 004cef70 f   sp_msguser.obj
 0001:000ce2b0       ?SaveUsers@SPMessengerUserManager@@QAEHPAD@Z 004cf2b0 f   sp_msguser.obj
 0001:000ce580       ?Release@SPMultiFile@@QAEXXZ 004cf580 f   sp_multifile.obj
 0001:000ce5d0       ?Add@SPMultiFile@@QAEXPBG@Z 004cf5d0 f   sp_multifile.obj
 0001:000ce6a0       ?Add@SPMultiFile@@QAEXPBD@Z 004cf6a0 f   sp_multifile.obj
 0001:000ce8a0       ?Delete@SPMultiFile@@QAEXK@Z 004cf8a0 f   sp_multifile.obj
 0001:000ce910       ?AddFromHDROP@SPMultiFile@@QAEXPAX@Z 004cf910 f   sp_multifile.obj
 0001:000ceb90       ?Get@SPMultiFile@@QAEPAVSPMultiFileEntry@@K@Z 004cfb90 f   sp_multifile.obj
 0001:000cebb0       ?GetExtension@SPMultiFile@@QAEPBDK@Z 004cfbb0 f   sp_multifile.obj
 0001:000cebf0       ?FindExtension@SPMultiFile@@QAEPAV1@PBD@Z 004cfbf0 f   sp_multifile.obj
 0001:000cede0       ??0SPNews@@QAE@AAVSPSettings@@@Z 004cfde0 f   sp_news.obj
 0001:000cef00       ?Release@SPNews@@QAEXXZ    004cff00 f   sp_news.obj
 0001:000cef10       ?GetScript@SPNews@@QAEPAGXZ 004cff10 f   sp_news.obj
 0001:000cef50       ?Load@SPNews@@QAEHPAD@Z    004cff50 f   sp_news.obj
 0001:000cf100       ??0SPNotifyIcon@@QAE@XZ    004d0100 f   sp_notifyicon.obj
 0001:000cf190       ?SetIcon@SPNotifyIcon@@QAEXPAUHICON__@@@Z 004d0190 f   sp_notifyicon.obj
 0001:000cf1b0       ?GetIcon@SPNotifyIcon@@QAEPAUHICON__@@XZ 004d01b0 f   sp_notifyicon.obj
 0001:000cf1c0       ?SetLargeIcon@SPNotifyIcon@@QAEXPAUHICON__@@@Z 004d01c0 f   sp_notifyicon.obj
 0001:000cf1f0       ?GetLargeIcon@SPNotifyIcon@@QAEPAUHICON__@@XZ 004d01f0 f   sp_notifyicon.obj
 0001:000cf210       ?Init@SPNotifyIcon@@QAEHPAXI@Z 004d0210 f   sp_notifyicon.obj
 0001:000cf310       ?InitVersion@SPNotifyIcon@@AAEXXZ 004d0310 f   sp_notifyicon.obj
 0001:000cf370       ?SetText@SPNotifyIcon@@QAEXPBG@Z 004d0370 f   sp_notifyicon.obj
 0001:000cf4d0       ?SetTrayBalloon@SPNotifyIcon@@QAEXPBG00H@Z 004d04d0 f   sp_notifyicon.obj
 0001:000cf700       ?GetTrayBalloonText@SPNotifyIcon@@QAEXAAVJWString@@@Z 004d0700 f   sp_notifyicon.obj
 0001:000cf740       ?GetTrayBalloonTitle@SPNotifyIcon@@QAEXAAVJWString@@@Z 004d0740 f   sp_notifyicon.obj
 0001:000cf780       ?Notify@SPNotifyIcon@@QAEHH@Z 004d0780 f   sp_notifyicon.obj
 0001:000cf7b0       ?Add@SPNotifyIcon@@QAEHH@Z 004d07b0 f   sp_notifyicon.obj
 0001:000cf800       ?Delete@SPNotifyIcon@@QAEHXZ 004d0800 f   sp_notifyicon.obj
 0001:000cf830       ?IsValid@SPOtherGhostProp@@QAEHXZ 004d0830 f   sp_other.obj
 0001:000cf850       ?Clear@SPOtherGhostProp@@QAEXXZ 004d0850 f   sp_other.obj
 0001:000cfa50       ?IsMatch@SPOtherGhostProp@@QAEHPBG0@Z 004d0a50 f   sp_other.obj
 0001:000cfaa0       ?AddData@SPOtherGhostProp@@QAEXPAD0@Z 004d0aa0 f   sp_other.obj
 0001:000cfce0       ?MakeShioriEntry@SPOtherGhostProp@@QAEPAGXZ 004d0ce0 f   sp_other.obj
 0001:000cfd20       ?MakeEntry@SPOtherGhostProp@@QAEXAAVJString@@@Z 004d0d20 f   sp_other.obj
 0001:000d0050       ??1SPOtherGhost@@QAE@XZ    004d1050 f   sp_other.obj
 0001:000d0150       ?Release@SPOtherGhost@@QAEXXZ 004d1150 f   sp_other.obj
 0001:000d0160       ?GetPropByMD5@SPOtherGhost@@QAEPAVSPOtherGhostProp@@PBD@Z 004d1160 f   sp_other.obj
 0001:000d0180       ?GetPropByName@SPOtherGhost@@QAEPAVSPOtherGhostProp@@PBG0@Z 004d1180 f   sp_other.obj
 0001:000d01d0       ?GetPropByGhostIndex@SPOtherGhost@@QAEPAVSPOtherGhostProp@@H@Z 004d11d0 f   sp_other.obj
 0001:000d0350       ?EliminateInvalidEntry@SPOtherGhost@@QAEXXZ 004d1350 f   sp_other.obj
 0001:000d03f0       ?Add@SPOtherGhost@@QAEPAVSPOtherGhostProp@@PAD@Z 004d13f0 f   sp_other.obj
 0001:000d0500       ?WriteFMOEntry@SPOtherGhost@@QAEIAAVJString@@@Z 004d1500 f   sp_other.obj
 0001:000d0580       ?GetHWndList@SPOtherGhost@@QAEXAAV?$JArray@PAX@@@Z 004d1580 f   sp_other.obj
 0001:000d06b0       ?AddSHIORIEntry@SPOtherGhost@@QAEIAAVJWString@@IH@Z 004d16b0 f   sp_other.obj
 0001:000d0830       ??1?$SPCacheObj@VSPOtherGhostProp@@VJDummyLockSection@@VJDummyLock@@@@QAE@XZ 004d1830 f i sp_other.obj
 0001:000d08f0       ??1SPOtherGhostProp@@QAE@XZ 004d18f0 f i sp_other.obj
 0001:000d09f0       ?New@?$SPCacheObj@VSPOtherGhostProp@@VJDummyLockSection@@VJDummyLock@@@@QAEPAVSPOtherGhostProp@@XZ 004d19f0 f i sp_other.obj
 0001:000d0b30       ??0SPOtherGhostProp@@QAE@XZ 004d1b30 f i sp_other.obj
 0001:000d0c40       ?Delete@?$SPCacheObj@VSPOtherGhostProp@@VJDummyLockSection@@VJDummyLock@@@@QAEXPAVSPOtherGhostProp@@@Z 004d1c40 f i sp_other.obj
 0001:000d0d60       ?DeleteArray@?$SPCacheObj@VSPOtherGhostProp@@VJDummyLockSection@@VJDummyLock@@@@QAEXAAV?$JPtrArray@PAVSPOtherGhostProp@@@@@Z 004d1d60 f i sp_other.obj
 0001:000d0e00       ??_ESPOtherGhostProp@@QAEPAXI@Z 004d1e00 f i sp_other.obj
 0001:000d0e60       ??1SPOtherFINEServer@@QAE@XZ 004d1e60 f   sp_otherfine.obj
 0001:000d0fb0       ??1SPOtherFINEServerProp@@AAE@XZ 004d1fb0 f i sp_otherfine.obj
 0001:000d1120       ?Clear@SPOtherFINEServerProp@@QAEXXZ 004d2120 f i sp_otherfine.obj
 0001:000d1330       ?Release@SPOtherFINEServer@@QAEXXZ 004d2330 f   sp_otherfine.obj
 0001:000d1350       ?Add@SPOtherFINEServer@@QAEPAVSPOtherFINEServerProp@@PAD@Z 004d2350 f   sp_otherfine.obj
 0001:000d1460       ?WriteFMOEntry@SPOtherFINEServer@@QAEIAAVJString@@@Z 004d2460 f   sp_otherfine.obj
 0001:000d14e0       ?EliminateInvalidEntry@SPOtherFINEServer@@QAEXXZ 004d24e0 f   sp_otherfine.obj
 0001:000d1590       ?AddData@SPOtherFINEServerProp@@QAEXPAD0@Z 004d2590 f   sp_otherfine.obj
 0001:000d16f0       ?MakeEntry@SPOtherFINEServerProp@@QAEXAAVJString@@@Z 004d26f0 f   sp_otherfine.obj
 0001:000d18b0       ??1?$SPCacheObj@VSPOtherFINEServerProp@@VJDummyLockSection@@VJDummyLock@@@@QAE@XZ 004d28b0 f i sp_otherfine.obj
 0001:000d1970       ?New@?$SPCacheObj@VSPOtherFINEServerProp@@VJDummyLockSection@@VJDummyLock@@@@QAEPAVSPOtherFINEServerProp@@XZ 004d2970 f i sp_otherfine.obj
 0001:000d1ab0       ??0SPOtherFINEServerProp@@AAE@XZ 004d2ab0 f i sp_otherfine.obj
 0001:000d1be0       ?Delete@?$SPCacheObj@VSPOtherFINEServerProp@@VJDummyLockSection@@VJDummyLock@@@@QAEXPAVSPOtherFINEServerProp@@@Z 004d2be0 f i sp_otherfine.obj
 0001:000d1d10       ?DeleteArray@?$SPCacheObj@VSPOtherFINEServerProp@@VJDummyLockSection@@VJDummyLock@@@@QAEXAAV?$JPtrArray@PAVSPOtherFINEServerProp@@@@@Z 004d2d10 f i sp_otherfine.obj
 0001:000d1e40       ??_ESPOtherFINEServerProp@@AAEPAXI@Z 004d2e40 f i sp_otherfine.obj
 0001:000d1ea0       ?Release@SPParamManager@@QAEXXZ 004d2ea0 f   sp_param.obj
 0001:000d1ed0       ?SetResponseGMEM@SPParamManager@@QAE_NPAXK@Z 004d2ed0 f   sp_param.obj
 0001:000d1f40       ?SetResponseText@SPParamManager@@QAE_NPBD@Z 004d2f40 f   sp_param.obj
 0001:000d1fc0       ?SetRequestText@SPParamManager@@QAE_NPBD@Z 004d2fc0 f   sp_param.obj
 0001:000d2040       ?SetCharset@SPParamManager@@QAEXPBD@Z 004d3040 f   sp_param.obj
 0001:000d2070       ?SetForceEncoding@SPParamManager@@QAEXPBD@Z 004d3070 f   sp_param.obj
 0001:000d20b0       ?ParseValue@SPParamManager@@AAE_NPAD_N@Z 004d30b0 f   sp_param.obj
 0001:000d2380       ?Find@SPParamManager@@QAEJPBD_N@Z 004d3380 f   sp_param.obj
 0001:000d2400       ?GetValue@SPParamManager@@QAEPAGPBD_N@Z 004d3400 f   sp_param.obj
 0001:000d2440       ?GetValueA@SPParamManager@@QAEPADPBDH_N@Z 004d3440 f   sp_param.obj
 0001:000d2540       ?GetValueAll@SPParamManager@@QAEXPBDAAV?$JPtrArray@PAG@@@Z 004d3540 f   sp_param.obj
 0001:000d2680       ?GetValueReference@SPParamManager@@QAEXPBDAAV?$JPtrArray@PAG@@@Z 004d3680 f   sp_param.obj
 0001:000d27a0       ?AddValue@SPParamManager@@QAE_NPBDPBG@Z 004d37a0 f   sp_param.obj
 0001:000d27f0       ?AddValueMultiple@SPParamManager@@QAEXPBDPBG@Z 004d37f0 f   sp_param.obj
 0001:000d2830       ??0SPPiro@@QAE@PAVSPGhost@@@Z 004d3830 f   sp_piro.obj
 0001:000d28c0       ?GetModuleDesc@SPPiro@@UAEPBGXZ 004d38c0 f i sp_piro.obj
 0001:000d28d0       ?GetLogFileName@SPPiro@@UAEPBDXZ 004d38d0 f i sp_piro.obj
 0001:000d28e0       ??_GSPPiro@@UAEPAXI@Z      004d38e0 f i sp_piro.obj
 0001:000d28e0       ??_ESPPiro@@UAEPAXI@Z      004d38e0 f i sp_piro.obj
 0001:000d2910       ??1SPPiro@@UAE@XZ          004d3910 f i sp_piro.obj
 0001:000d2930       ?Load@SPPiro@@QAEHPAD@Z    004d3930 f   sp_piro.obj
 0001:000d2be0       ?Unload@SPPiro@@QAEXXZ     004d3be0 f   sp_piro.obj
 0001:000d2c70       ?GetScript@SPPiro@@QAEPAGPAG@Z 004d3c70 f   sp_piro.obj
 0001:000d2cf0       ?GetSongResponse@SPPiro@@QAEPAGPAG@Z 004d3cf0 f   sp_piro.obj
 0001:000d2d80       ?GetNews@SPPiro@@QAEPAGXZ  004d3d80 f   sp_piro.obj
 0001:000d2d90       ?GetProfile@SPPiro@@QAEPAGXZ 004d3d90 f   sp_piro.obj
 0001:000d2da0       ?OnMinutes@SPPiro@@QAEPAGXZ 004d3da0 f   sp_piro.obj
 0001:000d2db0       ?OnSecond@SPPiro@@QAEPAGXZ 004d3db0 f   sp_piro.obj
 0001:000d2dc0       ?OnFileDrop@SPPiro@@QAEPAGPAG@Z 004d3dc0 f   sp_piro.obj
 0001:000d2e40       ?OnMouseEventPiro@SPPiro@@QAEPAGPBG0JJJ@Z 004d3e40 f   sp_piro.obj
 0001:000d2fe0       ?Notify@SPPiro@@QAEHHHPAG0@Z 004d3fe0 f   sp_piro.obj
 0001:000d3190       ??_ESPPiro@@WBIE@AEPAXI@Z  004d4190 f i sp_piro.obj
 0001:000d31a0       ??0SPPluginEvent@@QAE@PAVSPGhost@@AAVSPShioriEvent@@@Z 004d41a0 f   sp_plugin.obj
 0001:000d3200       ??0SPPlugin@@QAE@XZ        004d4200 f   sp_plugin.obj
 0001:000d33d0       ?GetModuleDesc@SPPlugin@@UAEPBGXZ 004d43d0 f i sp_plugin.obj
 0001:000d33e0       ?GetLogFileName@SPPlugin@@UAEPBDXZ 004d43e0 f i sp_plugin.obj
 0001:000d33f0       ??_ESPPlugin@@UAEPAXI@Z    004d43f0 f i sp_plugin.obj
 0001:000d33f0       ??_GSPPlugin@@UAEPAXI@Z    004d43f0 f i sp_plugin.obj
 0001:000d3420       ??1SPPlugin@@UAE@XZ        004d4420 f   sp_plugin.obj
 0001:000d3590       ?WaitForMainThread@SPPlugin@@QAEXXZ 004d4590 f   sp_plugin.obj
 0001:000d35a0       ?Signal@SPPlugin@@QAEXXZ   004d45a0 f   sp_plugin.obj
 0001:000d35b0       ?VarGet@SPPlugin@@UAE_NPAVSPGhost@@PAGAAVJWString@@PAVSPVarSystemNode@@@Z 004d45b0 f   sp_plugin.obj
 0001:000d3600       ?VarSet@SPPlugin@@UAE_NPAVSPGhost@@PAG1PAVSPVarSystemNode@@@Z 004d4600 f   sp_plugin.obj
 0001:000d3620       ?LoadFromMainThread@SPPlugin@@QAEHXZ 004d4620 f   sp_plugin.obj
 0001:000d3670       ?Load@SPPlugin@@QAEHXZ     004d4670 f   sp_plugin.obj
 0001:000d38f0       ?UnloadFromMainThread@SPPlugin@@QAEXXZ 004d48f0 f   sp_plugin.obj
 0001:000d3940       ?Unload@SPPlugin@@QAEXXZ   004d4940 f   sp_plugin.obj
 0001:000d3a00       ?SetEnable@SPPlugin@@QAEXH@Z 004d4a00 f   sp_plugin.obj
 0001:000d3a60       ?Configure@SPPlugin@@QAE_NPAVSPGhost@@@Z 004d4a60 f   sp_plugin.obj
 0001:000d3ad0       ?ConfigureOld@SPPlugin@@AAEXPAVSPGhost@@@Z 004d4ad0 f   sp_plugin.obj
 0001:000d3bb0       ?ReadDescript@SPPlugin@@UAEHXZ 004d4bb0 f   sp_plugin.obj
 0001:000d41f0       ?NotifyFolder@SPPlugin@@QAEXK@Z 004d51f0 f   sp_plugin.obj
 0001:000d42e0       ?RequestFromMainThread@SPPlugin@@QAE_NAAVSPPluginEvent@@@Z 004d52e0 f   sp_plugin.obj
 0001:000d4360       ?Request@SPPlugin@@QAE_NAAVSPPluginEvent@@@Z 004d5360 f   sp_plugin.obj
 0001:000d4430       ?GetString@SPPlugin@@QAE_NAAVJWString@@AAVSPPluginEvent@@@Z 004d5430 f   sp_plugin.obj
 0001:000d44b0       ?ParseResponse@SPPlugin@@AAE_NPAXJPAVSPGhost@@_NPAVJWString@@@Z 004d54b0 f   sp_plugin.obj
 0001:000d4b40       ?ExecRequest@SPPlugin@@AAEPAXAAJPBGPAPAGJPAVSPGhost@@H@Z 004d5b40 f   sp_plugin.obj
 0001:000d5040       ?GetVersionNew@SPPlugin@@AAEXXZ 004d6040 f   sp_plugin.obj
 0001:000d50e0       ?OnSecondChange@SPPlugin@@QAEHXZ 004d60e0 f   sp_plugin.obj
 0001:000d5190       ?OnGhostBoot@SPPlugin@@QAE_NPAVSPGhost@@@Z 004d6190 f   sp_plugin.obj
 0001:000d52a0       ?OnGhostExit@SPPlugin@@QAE_NPAVSPGhost@@@Z 004d62a0 f   sp_plugin.obj
 0001:000d52e0       ?OnGhostInfoUpdate@SPPlugin@@QAE_NPAVSPGhost@@@Z 004d62e0 f   sp_plugin.obj
 0001:000d5320       ?OnGhostStateChange@SPPlugin@@AAE_NPAGPAVSPGhost@@_NH@Z 004d6320 f   sp_plugin.obj
 0001:000d5550       ?SPCRequest@SPPlugin@@UAE_NAAVJWString@@KPAPAXK@Z 004d6550 f   sp_plugin.obj
 0001:000d55e0       ?SPCNotify@SPPlugin@@UAE_NKPAPAXK@Z 004d65e0 f   sp_plugin.obj
 0001:000d5a30       ??_ESPPlugin@@WBIE@AEPAXI@Z 004d6a30 f i sp_plugin.obj
 0001:000d5a40       ??_ESPPlugin@@WEDA@AEPAXI@Z 004d6a40 f i sp_plugin.obj
 0001:000d5a50       ?GetSPPluginManager@@YAAAVSPPluginManager@@XZ 004d6a50 f   sp_pluginmanager.obj
 0001:000d5aa0       ??0SPPluginManager@@QAE@XZ 004d6aa0 f   sp_pluginmanager.obj
 0001:000d5af0       ??_GSPPluginManager@@UAEPAXI@Z 004d6af0 f i sp_pluginmanager.obj
 0001:000d5af0       ??_ESPPluginManager@@UAEPAXI@Z 004d6af0 f i sp_pluginmanager.obj
 0001:000d5b20       ??1SPPluginManager@@UAE@XZ 004d6b20 f   sp_pluginmanager.obj
 0001:000d5bb0       ?VarGet@SPPluginManager@@UAE_NPAVSPGhost@@PAGAAVJWString@@PAVSPVarSystemNode@@@Z 004d6bb0 f   sp_pluginmanager.obj
 0001:000d5cf0       ?VarSet@SPPluginManager@@UAE_NPAVSPGhost@@PAG1PAVSPVarSystemNode@@@Z 004d6cf0 f   sp_pluginmanager.obj
 0001:000d5e30       ?Enumerate@SPPluginManager@@QAEHXZ 004d6e30 f   sp_pluginmanager.obj
 0001:000d6050       ?UpdatePluginList@SPPluginManager@@AAEXXZ 004d7050 f   sp_pluginmanager.obj
 0001:000d6170       ?SetEnable@SPPluginManager@@QAEXKH@Z 004d7170 f   sp_pluginmanager.obj
 0001:000d61a0       ?IsEnable@SPPluginManager@@QAE_NK@Z 004d71a0 f   sp_pluginmanager.obj
 0001:000d61c0       ?NotifyFolder@SPPluginManager@@QAEXK@Z 004d71c0 f   sp_pluginmanager.obj
 0001:000d61f0       ?SendInstalledPlugin@SPPluginManager@@QAEXPAVSPGhost@@@Z 004d71f0 f   sp_pluginmanager.obj
 0001:000d6220       ?Load@SPPluginManager@@AAEHPAVSPFolderListData@@@Z 004d7220 f   sp_pluginmanager.obj
 0001:000d64b0       ?Release@SPPluginManager@@QAEXXZ 004d74b0 f   sp_pluginmanager.obj
 0001:000d6500       ?RequestToAllFromMainThread@SPPluginManager@@QAEXHAAVSPPluginEvent@@@Z 004d7500 f   sp_pluginmanager.obj
 0001:000d6550       ?RequestToAll@SPPluginManager@@QAEXHAAVSPPluginEvent@@@Z 004d7550 f   sp_pluginmanager.obj
 0001:000d65a0       ?OnConfigure@SPPluginManager@@QAEHHPAVSPGhost@@@Z 004d75a0 f   sp_pluginmanager.obj
 0001:000d65d0       ?OnSecondChange@SPPluginManager@@QAEXXZ 004d75d0 f   sp_pluginmanager.obj
 0001:000d6600       ?OnGhostBoot@SPPluginManager@@QAEXPAVSPGhost@@@Z 004d7600 f   sp_pluginmanager.obj
 0001:000d6650       ?OnGhostExit@SPPluginManager@@QAEXPAVSPGhost@@@Z 004d7650 f   sp_pluginmanager.obj
 0001:000d66a0       ?OnGhostInfoUpdate@SPPluginManager@@QAEXPAVSPGhost@@@Z 004d76a0 f   sp_pluginmanager.obj
 0001:000d66f0       ?FindIDFromPath@SPPluginManager@@QAEJPBDH@Z 004d76f0 f   sp_pluginmanager.obj
 0001:000d6710       ?FindIDFromName@SPPluginManager@@QAEJPBG@Z 004d7710 f   sp_pluginmanager.obj
 0001:000d6730       ?FindIDFromIDString@SPPluginManager@@QAEJPBG@Z 004d7730 f   sp_pluginmanager.obj
 0001:000d6780       ?FindIDFromNameOrIDString@SPPluginManager@@QAEJPBG@Z 004d7780 f   sp_pluginmanager.obj
 0001:000d67b0       ?GetNum@SPPluginManager@@QAEKXZ 004d77b0 f   sp_pluginmanager.obj
 0001:000d67c0       ?GetPlugin@SPPluginManager@@QAEPAVSPPlugin@@K@Z 004d77c0 f   sp_pluginmanager.obj
 0001:000d67e0       ?_Sort_0@std@@YAXPAPAVSPPlugin@@0U?$JArray_PointerPred@PAVSPPlugin@@@@0@Z 004d77e0 f i sp_pluginmanager.obj
 0001:000d6a80       ?_Sort@std@@YAXPAPAVSPPlugin@@0U?$JArray_PointerPred@PAVSPPlugin@@@@0@Z 004d7a80 f i sp_pluginmanager.obj
 0001:000d6bb0       ?Release@SPPopAccount@@QAEXXZ 004d7bb0 f   sp_pop.obj
 0001:000d6c10       ?LoginIMAP4@SPPopAccount@@AAEHXZ 004d7c10 f   sp_pop.obj
 0001:000d7630       ?LoginIMAP4Search@SPPopAccount@@AAEHXZ 004d8630 f   sp_pop.obj
 0001:000d7850       ?LoginIMAP4Fetch@SPPopAccount@@AAEHH@Z 004d8850 f   sp_pop.obj
 0001:000d7a40       ?GetMailListUIDLIMAP4@SPPopAccount@@AAEHXZ 004d8a40 f   sp_pop.obj
 0001:000d7f10       ??4SPStaticStringArrayW@@QAEAAV0@ABV0@@Z 004d8f10 f i sp_pop.obj
 0001:000d7fe0       ?GetMailHeaderIMAP4@SPPopAccount@@AAEHXZ 004d8fe0 f   sp_pop.obj
 0001:000d80e0       ?LoginPOP@SPPopAccount@@AAEHXZ 004d90e0 f   sp_pop.obj
 0001:000d8530       ?Login@SPPopAccount@@AAEHXZ 004d9530 f   sp_pop.obj
 0001:000d85a0       ?Logout@SPPopAccount@@AAEXXZ 004d95a0 f   sp_pop.obj
 0001:000d8610       ?Terminate@SPPopAccount@@QAEXXZ 004d9610 f   sp_pop.obj
 0001:000d8640       ?GetMailListUIDL@SPPopAccount@@AAEHXZ 004d9640 f   sp_pop.obj
 0001:000d8670       ?GetMailList@SPPopAccount@@AAEHXZ 004d9670 f   sp_pop.obj
 0001:000d8710       ?GetMailUIDL@SPPopAccount@@AAEHXZ 004d9710 f   sp_pop.obj
 0001:000d89a0       ?GetMailHeaderGeneric@SPPopAccount@@AAEHPADP6AH0@ZP6APAD0@Z@Z 004d99a0 f   sp_pop.obj
 0001:000d9800       ?GetMailHeader@SPPopAccount@@AAEHXZ 004da800 f   sp_pop.obj
 0001:000d9890       ?CheckMail@SPPopAccount@@QAEHPAVSPBalloonWnd@@@Z 004da890 f   sp_pop.obj
 0001:000d98e0       ?CheckMailMain@SPPopAccount@@AAEHXZ 004da8e0 f   sp_pop.obj
 0001:000d9bc0       ?GetAccountID@SPPopAccount@@AAEPADXZ 004dabc0 f   sp_pop.obj
 0001:000d9c50       ?AddLastUIDL@SPPopAccount@@QAEXAAVJWString@@H@Z 004dac50 f   sp_pop.obj
 0001:000d9c70       ?AddLastLIST@SPPopAccount@@QAEXAAVJWString@@H@Z 004dac70 f   sp_pop.obj
 0001:000d9c90       ?AddLastHeaders@SPPopAccount@@QAEXAAVJWString@@H@Z 004dac90 f   sp_pop.obj
 0001:000d9cb0       ?AddLastSummaryText@SPPopAccount@@QAEXAAVJWString@@H@Z 004dacb0 f   sp_pop.obj
 0001:000d9cd0       ?AddLastTextGeneric@SPPopAccount@@AAEXAAVJWString@@HPBGAAVSPStaticStringArrayW@@@Z 004dacd0 f   sp_pop.obj
 0001:000d9dd0       ?SetLastUIDL@SPPopAccount@@QAEXPBG@Z 004dadd0 f   sp_pop.obj
 0001:000d9e10       ?GetSPPop@@YAAAVSPPop@@XZ  004dae10 f   sp_pop.obj
 0001:000d9e60       ??0SPPop@@QAE@XZ           004dae60 f   sp_pop.obj
 0001:000d9fa0       ??_ESPPop@@UAEPAXI@Z       004dafa0 f i sp_pop.obj
 0001:000d9fa0       ??_GSPPop@@UAEPAXI@Z       004dafa0 f i sp_pop.obj
 0001:000d9fd0       ??1SPPop@@UAE@XZ           004dafd0 f   sp_pop.obj
 0001:000da110       ?Release@SPPop@@QAEXXZ     004db110 f   sp_pop.obj
 0001:000da160       ?CheckMail@SPPop@@QAEHPAVSPGhost@@JH@Z 004db160 f   sp_pop.obj
 0001:000da1f0       ?GetAccount@SPPop@@QAEPAVSPPopAccountProfile@@K@Z 004db1f0 f   sp_pop.obj
 0001:000da220       ?AddAccount@SPPop@@QAEXPAVSPPopAccountProfile@@@Z 004db220 f   sp_pop.obj
 0001:000da460       ??_GSPPopAccount@@UAEPAXI@Z 004db460 f i sp_pop.obj
 0001:000da460       ??_ESPPopAccount@@UAEPAXI@Z 004db460 f i sp_pop.obj
 0001:000da490       ??1SPPopAccount@@UAE@XZ    004db490 f i sp_pop.obj
 0001:000da6f0       ?ModifyAccount@SPPop@@QAEXPAVSPPopAccountProfile@@K@Z 004db6f0 f   sp_pop.obj
 0001:000da7b0       ?DeleteAccount@SPPop@@QAEXK@Z 004db7b0 f   sp_pop.obj
 0001:000da830       ?SwapAccount@SPPop@@QAEXKK@Z 004db830 f   sp_pop.obj
 0001:000da880       ?NotifyPopAccountToGhosts@SPPop@@AAEXXZ 004db880 f   sp_pop.obj
 0001:000da9c0       ?ProgressCounter@SPPop@@QAEHPAVSPGhost@@@Z 004db9c0 f   sp_pop.obj
 0001:000daa50       ?Loop@SPPop@@UAEHXZ        004dba50 f   sp_pop.obj
 0001:000db6c0       ?SPCNotify@SPPop@@UAE_NKPAPAXK@Z 004dc6c0 f   sp_pop.obj
 0001:000db710       ?LoadSetting@SPPop@@QAEHXZ 004dc710 f   sp_pop.obj
 0001:000dbc80       ??0SPPopAccountProfile@@QAE@XZ 004dcc80 f i sp_pop.obj
 0001:000dbdf0       ?SaveSetting@SPPop@@QAEHXZ 004dcdf0 f   sp_pop.obj
 0001:000dc350       ??1SPPopMessage@@QAE@XZ    004dd350 f i sp_pop.obj
 0001:000dc3a0       ??_ESPPop@@W7AEPAXI@Z      004dd3a0 f i sp_pop.obj
 0001:000dc3b0       ??MSPProp@@QBE_NAAV0@@Z    004dd3b0 f   sp_prop.obj
 0001:000dc410       ?VarGet@SPProp@@UAE_NPAVSPGhost@@PAGAAVJWString@@PAVSPVarSystemNode@@@Z 004dd410 f   sp_prop.obj
 0001:000dc6e0       ?ReadDescript@SPProp@@UAEHXZ 004dd6e0 f   sp_prop.obj
 0001:000dc700       ?LoadFromDescript@SPProp@@QAEHPADHAAVJTokenStream@@@Z 004dd700 f   sp_prop.obj
 0001:000dc890       ?GetReadmePath@SPProp@@QAEHAAVJString@@@Z 004dd890 f   sp_prop.obj
 0001:000dc9c0       ?IsShortcut@SPProp@@QAEHXZ 004dd9c0 f   sp_prop.obj
 0001:000dca10       ?FindFromPath@SPProp@@SAJPAPAV1@KPBDH@Z 004dda10 f   sp_prop.obj
 0001:000dcb80       ?FindFromRelativePath@SPProp@@SAJPAPAV1@KPBD@Z 004ddb80 f   sp_prop.obj
 0001:000dcce0       ?FindFromName@SPProp@@SAJPAPAV1@KPBG@Z 004ddce0 f   sp_prop.obj
 0001:000dcd30       ?GetThumbnail@SPProp@@UAE_NAAVJString@@@Z 004ddd30 f   sp_prop.obj
 0001:000dcd70       ?GetThumbnailReal@SPProp@@IAE_NAAVJString@@0@Z 004ddd70 f   sp_prop.obj
 0001:000dd020       ?SetUpdateTime@SPProp@@QAEXK@Z 004de020 f   sp_prop.obj
 0001:000dd150       ?GetUpdateTime@SPProp@@QAEKXZ 004de150 f   sp_prop.obj
 0001:000dd350       ?GetUpdateURL@SPProp@@QAE_NAAVJWString@@@Z 004de350 f   sp_prop.obj
 0001:000dd390       ?GetUpdateURL@SPProp@@QAE_NAAVJString@@@Z 004de390 f   sp_prop.obj
 0001:000dd470       ?GetCreatorURL@SPProp@@QAE_NAAVJWString@@@Z 004de470 f   sp_prop.obj
 0001:000dd550       ?GetCreatorURL@SPProp@@QAE_NAAVJString@@@Z 004de550 f   sp_prop.obj
 0001:000dd590       ?GetUpdateResult@SPProp@@QAEPBGXZ 004de590 f   sp_prop.obj
 0001:000dd7c0       ?LoadDeferredInfo@SPProp@@UAEXXZ 004de7c0 f   sp_prop.obj
 0001:000dd7e0       ?InvalidateCacheData@SPProp@@UAEXXZ 004de7e0 f   sp_prop.obj
 0001:000dd8c0       ?VarGet@SPGhostProp@@UAE_NPAVSPGhost@@PAGAAVJWString@@PAVSPVarSystemNode@@@Z 004de8c0 f   sp_propdef.obj
 0001:000dda90       ?VarSet@SPGhostProp@@UAE_NPAVSPGhost@@PAG1PAVSPVarSystemNode@@@Z 004dea90 f   sp_propdef.obj
 0001:000ddaf0       ?IsMatch@SPGhostProp@@QAEHPBG00@Z 004deaf0 f   sp_propdef.obj
 0001:000ddb90       ?GetIconName@SPGhostProp@@QAE_NAAVJString@@@Z 004deb90 f   sp_propdef.obj
 0001:000ddd60       ?GetThumbnail@SPGhostProp@@UAE_NAAVJString@@@Z 004ded60 f   sp_propdef.obj
 0001:000dde50       ?LoadDeferredInfo@SPGhostProp@@UAEXXZ 004dee50 f   sp_propdef.obj
 0001:000dde60       ?ReadDescript@SPGhostProp@@UAEHXZ 004dee60 f   sp_propdef.obj
 0001:000dde70       ?ReadDescriptInternal@SPGhostProp@@AAEHXZ 004dee70 f   sp_propdef.obj
 0001:000de220       ?ReadDescript@SPBalloonProp@@UAEHXZ 004df220 f   sp_propdef.obj
 0001:000de490       ?Encode@SPPunycode@@SA_NPBGAAVJString@@@Z 004df490 f   sp_punycode.obj
 0001:000de8b0       ??0SPSchedule@@QAE@XZ      004df8b0 f   sp_schedule.obj
 0001:000de940       ?Release@SPSchedule@@QAEXXZ 004df940 f   sp_schedule.obj
 0001:000de990       ?LoadFromStream@SPSchedule@@QAEHAAVJTokenStream@@@Z 004df990 f   sp_schedule.obj
 0001:000dede0       ??1SPScheduleEntry@@QAE@XZ 004dfde0 f i sp_schedule.obj
 0001:000dee60       ?Load@SPSchedule@@QAEHPAD@Z 004dfe60 f   sp_schedule.obj
 0001:000def10       ?LoadFromMemory@SPSchedule@@QAEHPADJ@Z 004dff10 f   sp_schedule.obj
 0001:000def80       ?Save@SPSchedule@@QAEHXZ   004dff80 f   sp_schedule.obj
 0001:000df2f0       ?SPSchedule_SortEntries@@YAXAAV?$JPtrArray@PAVSPScheduleEntry@@@@@Z 004e02f0 f   sp_schedule.obj
 0001:000df5a0       ?Add@SPSchedule@@QAEHPAVSPScheduleEntry@@@Z 004e05a0 f   sp_schedule.obj
 0001:000df760       ?AddWithCheck@SPSchedule@@QAEHPAVSPScheduleEntry@@@Z 004e0760 f   sp_schedule.obj
 0001:000df830       ?GetSchedules@SPSchedule@@QAEHAAV?$JPtrArray@PAVSPScheduleEntry@@@@HHH@Z 004e0830 f   sp_schedule.obj
 0001:000df9a0       ?Del@SPSchedule@@QAEHPAVSPScheduleEntry@@@Z 004e09a0 f   sp_schedule.obj
 0001:000dfa10       ?_Sort@std@@YAXPAPAVSPScheduleEntry@@0U?$JArray_PredConverter@PAVSPScheduleEntry@@P6AHPAV1@0@Z@@0@Z 004e0a10 f i sp_schedule.obj
 0001:000dfb50       ?_Unguarded_partition@std@@YAPAPAVSPTimingEntry@@PAPAV2@0PAV2@U?$JArray_PredConverter@PAVSPTimingEntry@@P6AHPAV1@0@Z@@@Z 004e0b50 f i sp_schedule.obj
 0001:000dfb50       ?_Unguarded_partition@std@@YAPAPAVSPScheduleEntry@@PAPAV2@0PAV2@U?$JArray_PredConverter@PAVSPScheduleEntry@@P6AHPAV1@0@Z@@@Z 004e0b50 f i sp_schedule.obj
 0001:000dfb50       ?_Unguarded_partition@std@@YAPAPAVSPGhostTimeEntry@@PAPAV2@0PAV2@U?$JArray_PredConverter@PAVSPGhostTimeEntry@@P6AHPAV1@0@Z@@@Z 004e0b50 f i sp_schedule.obj
 0001:000dfbd0       ??0SPScheduleSensor@@QAE@XZ 004e0bd0 f   sp_schedulesensor.obj
 0001:000dfe60       ?GetModuleDesc@SPScheduleSensor@@UAEPBGXZ 004e0e60 f i sp_schedulesensor.obj
 0001:000dfe70       ?GetLogFileName@SPScheduleSensor@@UAEPBDXZ 004e0e70 f i sp_schedulesensor.obj
 0001:000dfe80       ??_ESPScheduleSensor@@UAEPAXI@Z 004e0e80 f i sp_schedulesensor.obj
 0001:000dfe80       ??_GSPScheduleSensor@@UAEPAXI@Z 004e0e80 f i sp_schedulesensor.obj
 0001:000dfeb0       ??1SPScheduleSensor@@UAE@XZ 004e0eb0 f   sp_schedulesensor.obj
 0001:000e00e0       ?Load@SPScheduleSensor@@QAEHPAD0@Z 004e10e0 f   sp_schedulesensor.obj
 0001:000e0230       ?GetVersionNew@SPScheduleSensor@@AAEXXZ 004e1230 f   sp_schedulesensor.obj
 0001:000e0280       ?ExecRequest@SPScheduleSensor@@AAEPAXAAJPAGPAPAGH@Z 004e1280 f   sp_schedulesensor.obj
 0001:000e05d0       ?GetSchedule@SPScheduleSensor@@QAEHPAVSPCalendar@@PAVSPScheduleSensorProp@@JJJ@Z 004e15d0 f   sp_schedulesensor.obj
 0001:000e0840       ?PostSchedule@SPScheduleSensor@@QAEHPAVSPCalendar@@PAVSPScheduleSensorProp@@PAVSPScheduleEntry@@@Z 004e1840 f   sp_schedulesensor.obj
 0001:000e0a70       ?SetupURLData@SPScheduleSensor@@AAEHXZ 004e1a70 f   sp_schedulesensor.obj
 0001:000e0bc0       ?SetupPostDataNew@SPScheduleSensor@@AAEHAAVJWString@@@Z 004e1bc0 f   sp_schedulesensor.obj
 0001:000e0c30       ?SetupPostDataOld@SPScheduleSensor@@AAEHAAVJWString@@@Z 004e1c30 f   sp_schedulesensor.obj
 0001:000e0d30       ?ProcessParam@SPScheduleSensor@@AAEXAAVJWString@@PBD@Z 004e1d30 f   sp_schedulesensor.obj
 0001:000e0d70       ?Loop@SPScheduleSensor@@UAEHXZ 004e1d70 f   sp_schedulesensor.obj
 0001:000e0da0       ?GetProc@SPScheduleSensor@@AAEXXZ 004e1da0 f   sp_schedulesensor.obj
 0001:000e1420       ?PostProc@SPScheduleSensor@@AAEXXZ 004e2420 f   sp_schedulesensor.obj
 0001:000e16b0       ?ReadURL@SPScheduleSensor@@AAEHPAD@Z 004e26b0 f   sp_schedulesensor.obj
 0001:000e1760       ?OnFailure@SPScheduleSensor@@AAEHPAG0@Z 004e2760 f   sp_schedulesensor.obj
 0001:000e17c0       ??_ESPScheduleSensor@@WBIE@AEPAXI@Z 004e27c0 f i sp_schedulesensor.obj
 0001:000e17d0       ??_ESPScheduleSensor@@WEDA@AEPAXI@Z 004e27d0 f i sp_schedulesensor.obj
 0001:000e17e0       ?GetEntry@SPScriptCategory@@QAEPAVSPScriptEntry@@PAD@Z 004e27e0 f   sp_script.obj
 0001:000e1860       ??0SPScript@@QAE@XZ        004e2860 f   sp_script.obj
 0001:000e1940       ??_F?$JPtrArray@PAVSPDataPathListData@@@@QAEXXZ 004e2940 f i sp_script.obj
 0001:000e1940       ??_F?$JPtrArray@PAVSPScriptEntry@@@@QAEXXZ 004e2940 f i sp_script.obj
 0001:000e1940       ??_F?$JPtrArray@PAG@@QAEXXZ 004e2940 f i sp_script.obj
 0001:000e1940       ??_F?$JPtrArray@PAVJString@@@@QAEXXZ 004e2940 f i sp_script.obj
 0001:000e1950       ?Release@SPScript@@QAEXXZ  004e2950 f   sp_script.obj
 0001:000e19f0       ??1SPScriptEntry@@QAE@XZ   004e29f0 f i sp_script.obj
 0001:000e1a60       ??1SPScriptCategory@@QAE@XZ 004e2a60 f i sp_script.obj
 0001:000e1b40       ?LoadScript@SPScript@@QAEHPAD@Z 004e2b40 f   sp_script.obj
 0001:000e1d60       ?LoadFromMemory@SPScript@@QAEHPADK@Z 004e2d60 f   sp_script.obj
 0001:000e1e20       ?LoadScriptFromStream@SPScript@@IAEHAAVJStream@@@Z 004e2e20 f   sp_script.obj
 0001:000e26d0       ?GetCategory@SPScript@@IAEPAVSPScriptCategory@@PAD@Z 004e36d0 f   sp_script.obj
 0001:000e2750       ?GetEntryNoCategory@SPScript@@IAEPAVSPScriptEntry@@PAD@Z 004e3750 f   sp_script.obj
 0001:000e27e0       ?GetEntry@SPScript@@IAEPAVSPScriptEntry@@PAD0@Z 004e37e0 f   sp_script.obj
 0001:000e2860       ?GetScript@SPScript@@QAEPAGPAG@Z 004e3860 f   sp_script.obj
 0001:000e2970       ?GetScriptWithCategory@SPScript@@QAEPAGPAD0@Z 004e3970 f   sp_script.obj
 0001:000e2990       ?Copy@?$JArray@D@@QAE_NPBDK@Z 004e3990 f i sp_script.obj
 0001:000e2ab0       ?SPLoadSerikoDLLs@@YIXXZ   004e3ab0 f   sp_seriko.obj
 0001:000e2ae0       ?SPIsLayeredWindowSupported@@YIHXZ 004e3ae0 f   sp_seriko.obj
 0001:000e2af0       ??0SPSeriko@@QAE@XZ        004e3af0 f   sp_seriko.obj
 0001:000e2e40       ??1SPSeriko@@QAE@XZ        004e3e40 f   sp_seriko.obj
 0001:000e30f0       ?AllocAnimeBase@SPSeriko@@IAEPAVSPAnimeBase@@J@Z 004e40f0 f   sp_seriko.obj
 0001:000e32b0       ?LoadSurfaceOld@SPSeriko@@IAEHPBDPADJ@Z 004e42b0 f   sp_seriko.obj
 0001:000e3510       ?GetSurfaceNum@SPSeriko@@IAEHPAD@Z 004e4510 f   sp_seriko.obj
 0001:000e3550       ?LoadSurfacePicts@SPSeriko@@QAEHPBDPAD@Z 004e4550 f   sp_seriko.obj
 0001:000e3890       ?ProcessSurfaceDef@SPSeriko@@IAEKXZ 004e4890 f   sp_seriko.obj
 0001:000e3f60       ?LoadSurfaceAlias@SPSeriko@@QAEHPBDPADPAE@Z 004e4f60 f   sp_seriko.obj
 0001:000e4490       ?Release@SPSeriko@@QAEXH@Z 004e5490 f   sp_seriko.obj
 0001:000e4700       ??1SPSurfaceTable@@QAE@XZ  004e5700 f i sp_seriko.obj
 0001:000e4780       ?ReleaseSurface@SPSeriko@@QAEXXZ 004e5780 f   sp_seriko.obj
 0001:000e4820       ?ReleaseBind@SPSeriko@@QAEXXZ 004e5820 f   sp_seriko.obj
 0001:000e4890       ??1SPBindProp@@QAE@XZ      004e5890 f i sp_seriko.obj
 0001:000e4940       ?BalloonDirection@SPSeriko@@SIHH@Z 004e5940 f   sp_seriko.obj
 0001:000e4990       ?SetDefaultProp@SPSeriko@@QAEXPAVSPGhostProp@@@Z 004e5990 f   sp_seriko.obj
 0001:000e4bf0       ?LoadCursorA@SPSeriko@@QAEPAXPBD@Z 004e5bf0 f   sp_seriko.obj
 0001:000e4c10       ?LoadDescript@SPSeriko@@QAEHPADH@Z 004e5c10 f   sp_seriko.obj
 0001:000e55d0       ?StartAnimation@SPSeriko@@QAEXXZ 004e65d0 f   sp_seriko.obj
 0001:000e5600       ?StopAnimation@SPSeriko@@QAEXH@Z 004e6600 f   sp_seriko.obj
 0001:000e5630       ?SuspendAnimation@SPSeriko@@QAEXXZ 004e6630 f   sp_seriko.obj
 0001:000e5660       ?ResumeAnimation@SPSeriko@@QAEXXZ 004e6660 f   sp_seriko.obj
 0001:000e56b0       ?IsSurfaceDefinedChar@SPSeriko@@QAE_NJ@Z 004e66b0 f   sp_seriko.obj
 0001:000e56f0       ?IsEnterSelectModeChar@SPSeriko@@QAE_NJ@Z 004e66f0 f   sp_seriko.obj
 0001:000e5730       ?DrawSelectModeChar@SPSeriko@@QAE_NJABVJRect@@@Z 004e6730 f   sp_seriko.obj
 0001:000e5770       ?GetSelectModeRectRawChar@SPSeriko@@QAEABVJRect@@J@Z 004e6770 f   sp_seriko.obj
 0001:000e5800       ?ShowCharWindow@SPSeriko@@QAEXHH@Z 004e6800 f   sp_seriko.obj
 0001:000e5890       ?ShowChars@SPSeriko@@QAEX_NPAX@Z 004e6890 f   sp_seriko.obj
 0001:000e5900       ?LoadSettings@SPSeriko@@QAEXAAVSPSettings@@0@Z 004e6900 f   sp_seriko.obj
 0001:000e5a10       ?SetScalingPercent@SPSeriko@@QAEXJJ@Z 004e6a10 f   sp_seriko.obj
 0001:000e5ad0       ?SetSurfaceChar@SPSeriko@@QAEHJPAGHH_N@Z 004e6ad0 f   sp_seriko.obj
 0001:000e5b30       ?SetSurfaceChar@SPSeriko@@QAEHJJH_N@Z 004e6b30 f   sp_seriko.obj
 0001:000e5c90       ?GetBalloonOffsetChar@SPSeriko@@QAEXHAAUtagPOINT@@@Z 004e6c90 f   sp_seriko.obj
 0001:000e5cd0       ?SetBalloonOffsetChar@SPSeriko@@QAEXHHHH@Z 004e6cd0 f   sp_seriko.obj
 0001:000e5d50       ?ResetBalloonOffset@SPSeriko@@QAEXXZ 004e6d50 f   sp_seriko.obj
 0001:000e5e00       ?SetPatternChar@SPSeriko@@QAEXJJH@Z 004e6e00 f   sp_seriko.obj
 0001:000e5e30       ?SetPatternCharArray@SPSeriko@@QAEXJAAV?$JArray@J@@H@Z 004e6e30 f   sp_seriko.obj
 0001:000e5e60       ?TalkChar@SPSeriko@@QAEXH@Z 004e6e60 f   sp_seriko.obj
 0001:000e5e80       ?YenE@SPSeriko@@QAEXXZ     004e6e80 f   sp_seriko.obj
 0001:000e5eb0       ?WaitAnimeChar@SPSeriko@@QAEXHH@Z 004e6eb0 f   sp_seriko.obj
 0001:000e5ee0       ?ControlAnimeChar@SPSeriko@@QAEXJJJPAG@Z 004e6ee0 f   sp_seriko.obj
 0001:000e5f90       ?GetBaseRectChar@SPSeriko@@QAEXHAAVJRect@@@Z 004e6f90 f   sp_seriko.obj
 0001:000e5fd0       ?ScaleMousePtChar@SPSeriko@@QAEXHAAVJPoint@@@Z 004e6fd0 f   sp_seriko.obj
 0001:000e5ff0       ?GetCollisionDataCharCompat@SPSeriko@@QAEXHAAVJRect@@PBG@Z 004e6ff0 f   sp_seriko.obj
 0001:000e6030       ?GetCollisionNameChar@SPSeriko@@QAEPAGHHHPAJ@Z 004e7030 f   sp_seriko.obj
 0001:000e6060       ?GetCollisionExecuteDataChar@SPSeriko@@QAEXHAAVJWString@@@Z 004e7060 f   sp_seriko.obj
 0001:000e6080       ?CharKinokoPos@SPSeriko@@QAEXHPAUtagPOINT@@@Z 004e7080 f   sp_seriko.obj
 0001:000e60a0       ?CharCenterPos@SPSeriko@@QAEXHPAUtagPOINT@@@Z 004e70a0 f   sp_seriko.obj
 0001:000e60c0       ?AddCharacter@SPSeriko@@QAEPAVSPSerikoAnimation@@H@Z 004e70c0 f   sp_seriko.obj
 0001:000e61c0       ?PresentChar@SPSeriko@@QAEXH@Z 004e71c0 f   sp_seriko.obj
 0001:000e61e0       ?LockRedrawChar@SPSeriko@@QAEXH_N@Z 004e71e0 f   sp_seriko.obj
 0001:000e6200       ?UnlockRedrawAll@SPSeriko@@QAEXXZ 004e7200 f   sp_seriko.obj
 0001:000e6230       ?BaseRedrawAll@SPSeriko@@QAEXXZ 004e7230 f   sp_seriko.obj
 0001:000e6280       ?EnterSelectMode@SPSeriko@@QAEXH_NPBG@Z 004e7280 f   sp_seriko.obj
 0001:000e62c0       ?GetBindPropChar@SPSeriko@@QAEPAVSPBindProp@@H@Z 004e72c0 f   sp_seriko.obj
 0001:000e62f0       ?GetBindPropCharNum@SPSeriko@@QAEKH@Z 004e72f0 f   sp_seriko.obj
 0001:000e6320       ?AddBindPropChar@SPSeriko@@IAEPAVSPBindProp@@H@Z 004e7320 f   sp_seriko.obj
 0001:000e6430       ?GetBindEntryFromNameChar@SPSeriko@@QAEPAVSPBindEntry@@HPBG0@Z 004e7430 f   sp_seriko.obj
 0001:000e6460       ?SPUpdateLayeredWindowAlpha@@YIHPAXHH0E@Z 004e7460 f   sp_seriko.obj
 0001:000e64c0       ?SPSetWindowRgn@@YIXPAX0_N@Z 004e74c0 f   sp_seriko.obj
 0001:000e6520       ?SetCharAlpha@SPSeriko@@QAEXJH@Z 004e7520 f   sp_seriko.obj
 0001:000e6560       ?SetCharTempAlpha@SPSeriko@@QAEXJH@Z 004e7560 f   sp_seriko.obj
 0001:000e65a0       ?GetCharAlphaCalc@SPSeriko@@QAEHJ@Z 004e75a0 f   sp_seriko.obj
 0001:000e6620       ?GetNumCharacter@SPSeriko@@QAEKXZ 004e7620 f   sp_seriko.obj
 0001:000e6630       ?GetIndexArray@SPSeriko@@QAEXAAV?$JArray@K@@@Z 004e7630 f   sp_seriko.obj
 0001:000e6790       ?GetCharNumFromHwnd@SPSeriko@@QAEJPAX@Z 004e7790 f   sp_seriko.obj
 0001:000e67f0       ?GetCharHwnd@SPSeriko@@QAEPAUHWND__@@J@Z 004e77f0 f   sp_seriko.obj
 0001:000e6830       ?GetCharHwndText@SPSeriko@@QAEPBDXZ 004e7830 f   sp_seriko.obj
 0001:000e6910       ?SetCharHwnd@SPSeriko@@QAEXJPAUHWND__@@PAUHDC__@@@Z 004e7910 f   sp_seriko.obj
 0001:000e6960       ?GetCursorChar@SPSeriko@@QAEPAXJW4SPSerikoCursorType@@PBG@Z 004e7960 f   sp_seriko.obj
 0001:000e6980       ?GetToolTipsChar@SPSeriko@@QAEPBGJPBG@Z 004e7980 f   sp_seriko.obj
 0001:000e69a0       ?MakeBoundingBox@SPSeriko@@IAEXXZ 004e79a0 f   sp_seriko.obj
 0001:000e6b50       ?LoadSurfaceTable@SPSeriko@@QAEHPBD@Z 004e7b50 f   sp_seriko.obj
 0001:000e6ef0       ?GetSurfaceTableChar@SPSeriko@@QAEPAVSPSurfaceTable@@H@Z 004e7ef0 f   sp_seriko.obj
 0001:000e6f20       ?AddSurfaceTableChar@SPSeriko@@IAEPAVSPSurfaceTable@@H@Z 004e7f20 f   sp_seriko.obj
 0001:000e7030       ?GetSerikoAnimation@SPSeriko@@QAEPAVSPSerikoAnimation@@H@Z 004e8030 f   sp_seriko.obj
 0001:000e7060       ?GetSurfaceIndexChar@SPSeriko@@QAEJJPAGHPAH@Z 004e8060 f   sp_seriko.obj
 0001:000e7370       ?GetCurrentSurfaceIndexChar@SPSeriko@@QAEJJ@Z 004e8370 f   sp_seriko.obj
 0001:000e73c0       ?DumpBuffer@SPSeriko@@QAEXJAAVJString@@@Z 004e83c0 f   sp_seriko.obj
 0001:000e73e0       ?SetScalingChar@SPSeriko@@QAEXJJJ@Z 004e83e0 f   sp_seriko.obj
 0001:000e7410       ?ExecuteMoveTagChar@SPSeriko@@QAEXJAAVSPGhostMoveInfo@@_N@Z 004e8410 f   sp_seriko.obj
 0001:000e7440       ?BindChangeNotify@SPSeriko@@QAEXH@Z 004e8440 f   sp_seriko.obj
 0001:000e7460       ?GetAlignChar@SPSeriko@@QAEHH@Z 004e8460 f   sp_seriko.obj
 0001:000e7490       ?SetAlignChar@SPSeriko@@QAEXHH@Z 004e8490 f   sp_seriko.obj
 0001:000e74b0       ?GetCurrentBasePosChar@SPSeriko@@QAEHHAAUtagPOINT@@@Z 004e84b0 f   sp_seriko.obj
 0001:000e74e0       ?GetExtentChar@SPSeriko@@QAEXHPAUtagRECT@@PAUtagPOINT@@11@Z 004e84e0 f   sp_seriko.obj
 0001:000e7510       ?SetWindowPosChar@SPSeriko@@QAEHHJJJJK@Z 004e8510 f   sp_seriko.obj
 0001:000e7550       ?ProcessMultipleSurfaceDef@SPSeriko@@IAEXPAVSPAnimeBase@@AAVJString@@_NI@Z 004e8550 f   sp_seriko.obj
 0001:000e79e0       ?ProcessMultipleSurfaceDefOne@SPSeriko@@IAEXPAVSPAnimeBase@@JI@Z 004e89e0 f   sp_seriko.obj
 0001:000e7a60       ?LoadSurfaceProperties@SPSeriko@@QAEHPBD@Z 004e8a60 f   sp_seriko.obj
 0001:000e7e40       ?LoadSurfacePropertiesImpl@SPSeriko@@IAEHAAVJTokenStream@@PBD@Z 004e8e40 f   sp_seriko.obj
 0001:000e9ab0       ?BreakAllPatternWait@SPSeriko@@QAEXXZ 004eaab0 f   sp_seriko.obj
 0001:000e9ae0       ?SetPriorityAnimeThread@SPSeriko@@QAEXXZ 004eaae0 f   sp_seriko.obj
 0001:000e9b10       ?LoadSurfaceIndex@SPSeriko@@IAEPAVSPSurface@@PBDH@Z 004eab10 f   sp_seriko.obj
 0001:000e9bd0       ?LoadSurface@SPSeriko@@IAEPAVSPSurface@@PBDPAD@Z 004eabd0 f   sp_seriko.obj
 0001:000e9bf0       ?SetForceAlign@SPSeriko@@QAEXPAG@Z 004eabf0 f   sp_seriko.obj
 0001:000e9c60       ?GetForceAlign@SPSeriko@@QAEPAGXZ 004eac60 f   sp_seriko.obj
 0001:000e9c90       ?GetDefaultBalloonOffset@SPSeriko@@QAEAAUtagPOINT@@J@Z 004eac90 f   sp_seriko.obj
 0001:000e9cf0       ?AddDefaultBalloonOffset@SPSeriko@@IAEAAUtagPOINT@@J@Z 004eacf0 f   sp_seriko.obj
 0001:000e9db0       ?GetDefaultSurfaceIndexSetting@SPSeriko@@QAEJJ@Z 004eadb0 f   sp_seriko.obj
 0001:000e9de0       ?AddDefaultSurfaceIndexSetting@SPSeriko@@QAEAAJJ@Z 004eade0 f   sp_seriko.obj
 0001:000ea010       ?GetDefaultLeftSetting@SPSeriko@@QAEJJ@Z 004eb010 f   sp_seriko.obj
 0001:000ea040       ?AddDefaultLeftSetting@SPSeriko@@QAEAAJJ@Z 004eb040 f   sp_seriko.obj
 0001:000ea060       ?AddDefaultTopSetting@SPSeriko@@QAEAAJJ@Z 004eb060 f   sp_seriko.obj
 0001:000ea080       ?GetDefaultBalloonIndexSetting@SPSeriko@@QAEJJ@Z 004eb080 f   sp_seriko.obj
 0001:000ea0b0       ?AddDefaultBalloonIndexSetting@SPSeriko@@QAEAAJJ@Z 004eb0b0 f   sp_seriko.obj
 0001:000ea1c0       ?GetBalloonAlign@SPSeriko@@QAEJJ@Z 004eb1c0 f   sp_seriko.obj
 0001:000ea1f0       ?AddBalloonAlign@SPSeriko@@QAEAAJJ@Z 004eb1f0 f   sp_seriko.obj
 0001:000ea210       ?GetDefaultAlign@SPSeriko@@QAEJJ@Z 004eb210 f   sp_seriko.obj
 0001:000ea240       ?AddDefaultAlign@SPSeriko@@QAEAAJJ@Z 004eb240 f   sp_seriko.obj
 0001:000ea260       ?GetSakuraName@SPSeriko@@QAEAAVJWString@@XZ 004eb260 f   sp_seriko.obj
 0001:000ea290       ?GetKeroName@SPSeriko@@QAEAAVJWString@@XZ 004eb290 f   sp_seriko.obj
 0001:000ea2c0       ?SetSakuraNameShell@SPSeriko@@QAE_NPBG@Z 004eb2c0 f   sp_seriko.obj
 0001:000ea320       ?SetSakuraNameGhost@SPSeriko@@QAE_NPBG@Z 004eb320 f   sp_seriko.obj
 0001:000ea360       ?SetKeroNameShell@SPSeriko@@QAE_NPBG@Z 004eb360 f   sp_seriko.obj
 0001:000ea3c0       ?SetKeroNameGhost@SPSeriko@@QAE_NPBG@Z 004eb3c0 f   sp_seriko.obj
 0001:000ea400       ??1?$SPSparsePtrArray@PAVSPAnimeBase@@@@QAE@XZ 004eb400 f i sp_seriko.obj
 0001:000ea430       ?AddToArray@?$SPSparsePtrArray@PAVSPAnimeBase@@@@QAEXAAV?$JArray@V?$SPSparsePtrArrayDefPair@PAVSPAnimeBase@@@@@@@Z 004eb430 f i sp_seriko.obj
 0001:000ea590       ??_E?$SPSparsePtrArrayDef@PAVSPAnimeBase@@@@QAEPAXI@Z 004eb590 f i sp_seriko.obj
 0001:000ea5f0       ??0SPSimpleEncode@@QAE@XZ  004eb5f0 f i sp_seriko.obj
 0001:000ea5f0       ??0?$SPSparsePtrArrayDef@PAVSPAnimeBase@@@@QAE@XZ 004eb5f0 f i sp_seriko.obj
 0001:000ea600       ??1?$SPSparsePtrArrayDef@PAVSPAnimeBase@@@@QAE@XZ 004eb600 f i sp_seriko.obj
 0001:000ea6a0       ?DeleteObject@?$SPSparsePtrArrayDef@PAVSPAnimeBase@@@@QAEXK@Z 004eb6a0 f i sp_seriko.obj
 0001:000ea720       ?Add@?$JArray@V?$SPSparsePtrArrayDefPair@PAVSPAnimeBase@@@@@@QAEAAV?$SPSparsePtrArrayDefPair@PAVSPAnimeBase@@@@XZ 004eb720 f i sp_seriko.obj
 0001:000ea800       ?Size@?$JArray@VSPSerikoRange@@@@QBEKXZ 004eb800 f i sp_seriko.obj
 0001:000ea820       ?_Sort_0@std@@YAXPAVSPSerikoRange@@00@Z 004eb820 f i sp_seriko.obj
 0001:000eab60       ??MSPSerikoRange@@QBE_NABV0@@Z 004ebb60 f i sp_seriko.obj
 0001:000eab90       ?_Sort_0@std@@YAXPAPAVSPLSPString@@0U?$JArray_PointerPred@PAVSPLSPString@@@@0@Z 004ebb90 f i sp_seriko.obj
 0001:000eae30       ??MSPLSPString@@QAE_NABV0@@Z 004ebe30 f i sp_seriko.obj
 0001:000eae50       ?_Sort_0@std@@YAXPAV?$SPSparsePtrArrayDefPair@PAVSPAnimeBase@@@@00@Z 004ebe50 f i sp_seriko.obj
 0001:000eb0d0       ?_Sort@std@@YAXPAVSPSerikoRange@@00@Z 004ec0d0 f i sp_seriko.obj
 0001:000eb280       ?_Unguarded_insert@std@@YAXPAVSPSerikoRange@@V2@@Z 004ec280 f i sp_seriko.obj
 0001:000eb2e0       ?_Sort@std@@YAXPAPAVSPLSPString@@0U?$JArray_PointerPred@PAVSPLSPString@@@@0@Z 004ec2e0 f i sp_seriko.obj
 0001:000eb420       ?Clear@SPSerikoTask@@QAEXXZ 004ec420 f   sp_serikoanime.obj
 0001:000eb450       ?IsEnd@SPSerikoTask@@QAE_NXZ 004ec450 f   sp_serikoanime.obj
 0001:000eb490       ?IsRunnable@SPSerikoTask@@QAE_NXZ 004ec490 f   sp_serikoanime.obj
 0001:000eb4c0       ?IsFirstEntryWait@SPSerikoTask@@QAE_NXZ 004ec4c0 f   sp_serikoanime.obj
 0001:000eb4e0       ?SetWait@SPSerikoTask@@QAEXPAVSPSeriko@@H@Z 004ec4e0 f   sp_serikoanime.obj
 0001:000eb580       ?Run@SPSerikoTask@@QAE_NPAVSPSeriko@@K@Z 004ec580 f   sp_serikoanime.obj
 0001:000eb5e0       ??0SPSerikoAnimation@@QAE@PAVSPSeriko@@J@Z 004ec5e0 f   sp_serikoanime.obj
 0001:000eb8b0       ??0JDummyLockSection@@QAE@XZ 004ec8b0 f i sp_serikoanime.obj
 0001:000eb8c0       ??_GSPSerikoAnimation@@UAEPAXI@Z 004ec8c0 f i sp_serikoanime.obj
 0001:000eb8c0       ??_ESPSerikoAnimation@@UAEPAXI@Z 004ec8c0 f i sp_serikoanime.obj
 0001:000eb8f0       ??1SPSerikoAnimation@@UAE@XZ 004ec8f0 f   sp_serikoanime.obj
 0001:000ebb30       ?Reset@SPSerikoAnimation@@QAEXXZ 004ecb30 f   sp_serikoanime.obj
 0001:000ebbc0       ?Exit@SPSerikoAnimation@@UAEHXZ 004ecbc0 f   sp_serikoanime.obj
 0001:000ebc70       ?InitInstance@SPSerikoAnimation@@MAEHXZ 004ecc70 f   sp_serikoanime.obj
 0001:000ebda0       ?ExitInstance@SPSerikoAnimation@@MAEXH@Z 004ecda0 f   sp_serikoanime.obj
 0001:000ebe00       ?ReleaseBuffer@SPSerikoAnimation@@AAEXXZ 004ece00 f   sp_serikoanime.obj
 0001:000ebea0       ?Release@SPSerikoAnimation@@QAEXXZ 004ecea0 f   sp_serikoanime.obj
 0001:000ebef0       ?CreateFadeSurface@SPSerikoAnimation@@QAEHXZ 004ecef0 f   sp_serikoanime.obj
 0001:000ebf70       ?ReleaseFadeSurface@SPSerikoAnimation@@QAEXXZ 004ecf70 f   sp_serikoanime.obj
 0001:000ebfd0       ?SetSerikoAlign@SPSerikoAnimation@@QAEXH@Z 004ecfd0 f   sp_serikoanime.obj
 0001:000ebff0       ?GetSerikoAlign@SPSerikoAnimation@@QAEHXZ 004ecff0 f   sp_serikoanime.obj
 0001:000ec020       ?InitSerikoAnime@SPSerikoAnimation@@QAEHXZ 004ed020 f   sp_serikoanime.obj
 0001:000ec0b0       ?LockRedraw@SPSerikoAnimation@@QAEX_N@Z 004ed0b0 f   sp_serikoanime.obj
 0001:000ec0d0       ?LockRedrawReal@SPSerikoAnimation@@AAEX_N0@Z 004ed0d0 f   sp_serikoanime.obj
 0001:000ec180       ?EnterSelectMode@SPSerikoAnimation@@QAEX_NPBG@Z 004ed180 f   sp_serikoanime.obj
 0001:000ec1a0       ?SetSelectMode@SPSerikoAnimation@@QAEXPBG@Z 004ed1a0 f   sp_serikoanime.obj
 0001:000ec260       ?EnterSelectModeReal@SPSerikoAnimation@@AAEX_N@Z 004ed260 f   sp_serikoanime.obj
 0001:000ec530       ?DrawSelectMode@SPSerikoAnimation@@QAEXPBVJRect@@@Z 004ed530 f   sp_serikoanime.obj
 0001:000ec800       ?GetSelectModeRect@SPSerikoAnimation@@QAE?AVJRect@@XZ 004ed800 f   sp_serikoanime.obj
 0001:000ec880       ?HideWindow@SPSerikoAnimation@@QAE_N_N@Z 004ed880 f   sp_serikoanime.obj
 0001:000ec8e0       ?PlayBase@SPSerikoAnimation@@QAEHPAVSPAnimeBase@@H_N@Z 004ed8e0 f   sp_serikoanime.obj
 0001:000ec980       ?AnimeThreadFire@SPSerikoAnimation@@AAEXXZ 004ed980 f   sp_serikoanime.obj
 0001:000ec9c0       ?InternalTalkParamUpdate@SPSerikoAnimation@@AAEXXZ 004ed9c0 f   sp_serikoanime.obj
 0001:000ecb50       ?InternalProcessBase@SPSerikoAnimation@@AAEXXZ 004edb50 f   sp_serikoanime.obj
 0001:000ece50       ??0SPSerikoTask@@QAE@XZ    004ede50 f i sp_serikoanime.obj
 0001:000ece70       ?InternalProcessTask@SPSerikoAnimation@@AAEH_N0@Z 004ede70 f   sp_serikoanime.obj
 0001:000ed550       ?WaitActivate@SPSerikoAnimation@@QAEXXZ 004ee550 f   sp_serikoanime.obj
 0001:000ed560       ?PlayPattern@SPSerikoAnimation@@QAEHJHIJJ@Z 004ee560 f   sp_serikoanime.obj
 0001:000ed750       ?PlayPatternArray@SPSerikoAnimation@@QAEHAAV?$JArray@J@@HI@Z 004ee750 f   sp_serikoanime.obj
 0001:000ed960       ?Talk@SPSerikoAnimation@@QAEHXZ 004ee960 f   sp_serikoanime.obj
 0001:000ed9a0       ?YenE@SPSerikoAnimation@@QAEHXZ 004ee9a0 f   sp_serikoanime.obj
 0001:000ed9c0       ?WaitAnimation@SPSerikoAnimation@@QAEHJ@Z 004ee9c0 f   sp_serikoanime.obj
 0001:000ed9e0       ?Offset@SPSerikoAnimation@@QAEHJJJ@Z 004ee9e0 f   sp_serikoanime.obj
 0001:000eda00       ?PlayTask@SPSerikoAnimation@@AAEHJK_NJ@Z 004eea00 f   sp_serikoanime.obj
 0001:000edb60       ?StopTask@SPSerikoAnimation@@AAEHJ@Z 004eeb60 f   sp_serikoanime.obj
 0001:000edbc0       ?StopTaskInternal@SPSerikoAnimation@@AAE_NPAVSPSerikoTask@@@Z 004eebc0 f   sp_serikoanime.obj
 0001:000edc20       ?BlendCopySurface@SPSerikoAnimation@@AAEHPAVJSurface@@0H@Z 004eec20 f   sp_serikoanime.obj
 0001:000edd60       ?GetBaseRect@SPSerikoAnimation@@QAEXAAVJRect@@PAVSPAnimeBase@@@Z 004eed60 f   sp_serikoanime.obj
 0001:000ede10       ?GetBalloonOffset@SPSerikoAnimation@@QAEXAAUtagPOINT@@@Z 004eee10 f   sp_serikoanime.obj
 0001:000ede30       ?GetCurrentBasePos@SPSerikoAnimation@@QAEXAAUtagPOINT@@@Z 004eee30 f   sp_serikoanime.obj
 0001:000edeb0       ?GetExtent@SPSerikoAnimation@@QAEXPAUtagRECT@@PAUtagPOINT@@11@Z 004eeeb0 f   sp_serikoanime.obj
 0001:000ee140       ?SetPriorityAnimation@SPSerikoAnimation@@QAEXXZ 004ef140 f   sp_serikoanime.obj
 0001:000ee140       ?SetPriorityScript@SPGhost@@QAEXXZ 004ef140 f   sp_serikoanime.obj
 0001:000ee160       ?WaitForNextPlayBase@SPSerikoAnimation@@AAEHXZ 004ef160 f   sp_serikoanime.obj
 0001:000ee1b0       ?Loop@SPSerikoAnimation@@UAEHXZ 004ef1b0 f   sp_serikoanime.obj
 0001:000ee900       ?SetInitialTask@SPSerikoAnimation@@AAEXXZ 004ef900 f   sp_serikoanime.obj
 0001:000ee920       ?SetAlwaysTask@SPSerikoAnimation@@AAEXXZ 004ef920 f   sp_serikoanime.obj
 0001:000ee930       ?SetAllOptionTask@SPSerikoAnimation@@AAEKK@Z 004ef930 f   sp_serikoanime.obj
 0001:000ee9a0       ?IsNewBase@SPSerikoAnimation@@AAE_NXZ 004ef9a0 f   sp_serikoanime.obj
 0001:000ee9c0       ?ProcTask@SPSerikoAnimation@@AAEIPAVJSurface@@H_N1@Z 004ef9c0 f   sp_serikoanime.obj
 0001:000eea20       ?ProcTaskReal@SPSerikoAnimation@@AAEIPAVJSurface@@H_N1@Z 004efa20 f   sp_serikoanime.obj
 0001:000ef6b0       ?DrawTask@SPSerikoAnimation@@AAEIPAVJSurface@@HHH@Z 004f06b0 f   sp_serikoanime.obj
 0001:000ef970       ?DrawTaskSub@SPSerikoAnimation@@AAEXPAVJSurface@@PAX_NAAV?$JArray@VSPSerikoAnimationPlayPat@@@@@Z 004f0970 f   sp_serikoanime.obj
 0001:000efc10       ?DrawWindowProc@SPSerikoAnimation@@AAEXPAVJSurface@@PAX@Z 004f0c10 f   sp_serikoanime.obj
 0001:000efcd0       ?DumpBuffer@SPSerikoAnimation@@QAEXAAVJString@@@Z 004f0cd0 f   sp_serikoanime.obj
 0001:000efd60       ?DrawTaskMoveProc@SPSerikoAnimation@@AAEHXZ 004f0d60 f   sp_serikoanime.obj
 0001:000efe20       ?DrawCollisionRect@SPSerikoAnimation@@AAEXPAVJSurface@@@Z 004f0e20 f   sp_serikoanime.obj
 0001:000f0120       ?Wait@SPSerikoAnimation@@AAEJJ@Z 004f1120 f   sp_serikoanime.obj
 0001:000f01b0       ?WaitReset@SPSerikoAnimation@@AAEXXZ 004f11b0 f   sp_serikoanime.obj
 0001:000f01d0       ?WaitRaw@SPSerikoAnimation@@AAE_NJ@Z 004f11d0 f   sp_serikoanime.obj
 0001:000f01f0       ?StopAllTask@SPSerikoAnimation@@AAEHK@Z 004f11f0 f   sp_serikoanime.obj
 0001:000f02a0       ?GetTask@SPSerikoAnimation@@AAEPAVSPSerikoTask@@J@Z 004f12a0 f   sp_serikoanime.obj
 0001:000f0350       ?GetActiveAnimeCollision@SPSerikoAnimation@@QAEXAAV?$JPtrArray@PAVSPCollisionProp@@@@@Z 004f1350 f   sp_serikoanime.obj
 0001:000f04e0       ?StopPattern@SPSerikoAnimation@@QAEHJ@Z 004f14e0 f   sp_serikoanime.obj
 0001:000f0520       ?PausePattern@SPSerikoAnimation@@QAEHJ@Z 004f1520 f   sp_serikoanime.obj
 0001:000f0550       ?ResumePattern@SPSerikoAnimation@@QAEHJ@Z 004f1550 f   sp_serikoanime.obj
 0001:000f0590       ?DeleteAllTask@SPSerikoAnimation@@AAEXXZ 004f1590 f   sp_serikoanime.obj
 0001:000f0670       ?ScaleMousePt@SPSerikoAnimation@@QAEXAAVJPoint@@@Z 004f1670 f   sp_serikoanime.obj
 0001:000f06c0       ?GetCollisionName@SPSerikoAnimation@@QAEPAGHHPAJ@Z 004f16c0 f   sp_serikoanime.obj
 0001:000f0740       ?GetCollisionDataCompat@SPSerikoAnimation@@QAEHAAVJRect@@PBG@Z 004f1740 f   sp_serikoanime.obj
 0001:000f07c0       ?GetCollisionExecuteData@SPSerikoAnimation@@QAEXAAVJWString@@@Z 004f17c0 f   sp_serikoanime.obj
 0001:000f0a70       ?SetScale@SPSerikoAnimation@@QAEXJJ@Z 004f1a70 f   sp_serikoanime.obj
 0001:000f0a90       ?ExecuteMoveTag@SPSerikoAnimation@@QAEXAAVSPGhostMoveInfo@@_N@Z 004f1a90 f   sp_serikoanime.obj
 0001:000f0c20       ?SetAlpha@SPSerikoAnimation@@QAEXH@Z 004f1c20 f   sp_serikoanime.obj
 0001:000f0c60       ?SetTempAlpha@SPSerikoAnimation@@QAEXH@Z 004f1c60 f   sp_serikoanime.obj
 0001:000f0c80       ?SAGetWindowPos@SPSerikoAnimation@@AAEXAAUtagPOINT@@@Z 004f1c80 f   sp_serikoanime.obj
 0001:000f0ca0       ?SASetWindowPosInternal@SPSerikoAnimation@@AAEXJJJJK@Z 004f1ca0 f   sp_serikoanime.obj
 0001:000f0d00       ?SASetWindowPos@SPSerikoAnimation@@QAEXJJJJK@Z 004f1d00 f   sp_serikoanime.obj
 0001:000f0d20       ?SASetWindowPosOnly@SPSerikoAnimation@@QAEXJJ@Z 004f1d20 f   sp_serikoanime.obj
 0001:000f0d40       ?SAUpdateLayeredWindow@SPSerikoAnimation@@AAEHPAVJSurface@@@Z 004f1d40 f   sp_serikoanime.obj
 0001:000f0e00       ?SAUpdateLayeredWindowAlpha@SPSerikoAnimation@@AAEHPAVJSurface@@H@Z 004f1e00 f   sp_serikoanime.obj
 0001:000f0ec0       ?SAUpdateLayeredWindowWithPos@SPSerikoAnimation@@AAEHAAUtagPOINT@@PAVJSurface@@@Z 004f1ec0 f   sp_serikoanime.obj
 0001:000f0fa0       ?InternalCalculateScalingFloat@SPSerikoAnimation@@AAEXXZ 004f1fa0 f   sp_serikoanime.obj
 0001:000f1040       ?InternalRedraw@SPSerikoAnimation@@AAEXPAX@Z 004f2040 f   sp_serikoanime.obj
 0001:000f1080       ?Redraw@SPSerikoAnimation@@QAEXH@Z 004f2080 f   sp_serikoanime.obj
 0001:000f10a0       ?InternalBind@SPSerikoAnimation@@AAEXXZ 004f20a0 f   sp_serikoanime.obj
 0001:000f1400       ?Bind@SPSerikoAnimation@@QAEXH@Z 004f2400 f   sp_serikoanime.obj
 0001:000f1420       ?SASetRgn@SPSerikoAnimation@@AAEXPAX@Z 004f2420 f   sp_serikoanime.obj
 0001:000f16a0       ?Present@SPSerikoAnimation@@QAEHPAVJSurface@@@Z 004f26a0 f   sp_serikoanime.obj
 0001:000f1740       ?ScaleSurface@SPSerikoAnimation@@AAEPAVJSurface@@PAV2@@Z 004f2740 f   sp_serikoanime.obj
 0001:000f1840       ?ScalePt@SPSerikoAnimation@@QAEXAAUtagPOINT@@H@Z 004f2840 f   sp_serikoanime.obj
 0001:000f18f0       ?ScalePtNoMirror@SPSerikoAnimation@@AAEXAAUtagPOINT@@@Z 004f28f0 f   sp_serikoanime.obj
 0001:000f1950       ?ScaleRect@SPSerikoAnimation@@QAEXAAUtagRECT@@H@Z 004f2950 f   sp_serikoanime.obj
 0001:000f1a60       ?ScaleRectNoMirror@SPSerikoAnimation@@AAEXAAUtagRECT@@@Z 004f2a60 f   sp_serikoanime.obj
 0001:000f1b10       ??1?$SPCacheObj@VSPSerikoTask@@VJDummyLockSection@@VJDummyLock@@@@QAE@XZ 004f2b10 f i sp_serikoanime.obj
 0001:000f1b90       ?Release@?$SPCacheObj@VSPSerikoTask@@VJDummyLockSection@@VJDummyLock@@@@QAEXXZ 004f2b90 f i sp_serikoanime.obj
 0001:000f1bd0       ??4?$JArray@VJPoint@@@@QAEAAV0@ABV0@@Z 004f2bd0 f i sp_serikoanime.obj
 0001:000f1ce0       ?Size@?$JArray@USPSerikoAnimationQueue@@@@QBEKXZ 004f2ce0 f i sp_serikoanime.obj
 0001:000f1d00       ?Get@SPSerikoCursorEntry@@QAEPAXPBG@Z 004f2d00 f   sp_serikocursor.obj
 0001:000f1d30       ?Set@SPSerikoCursorEntry@@QAEXPBGPAX@Z 004f2d30 f   sp_serikocursor.obj
 0001:000f1e50       ??0SPSerikoCursor@@QAE@PAVSPSeriko@@@Z 004f2e50 f   sp_serikocursor.obj
 0001:000f1ea0       ??1SPSerikoCursor@@QAE@XZ  004f2ea0 f   sp_serikocursor.obj
 0001:000f1f00       ?Release@SPSerikoCursor@@QAEXXZ 004f2f00 f   sp_serikocursor.obj
 0001:000f1f50       ??1SPSerikoCursorEntry@@QAE@XZ 004f2f50 f i sp_serikocursor.obj
 0001:000f2000       ?Add@SPSerikoCursor@@QAEPAXJW4SPSerikoCursorType@@PBG1@Z 004f3000 f   sp_serikocursor.obj
 0001:000f2160       ??0SPSerikoCursorEntry@@QAE@XZ 004f3160 f i sp_serikocursor.obj
 0001:000f21c0       ?Get@SPSerikoCursor@@QAEPAXJW4SPSerikoCursorType@@PBG@Z 004f31c0 f   sp_serikocursor.obj
 0001:000f2280       ?Load@SPSerikoCursor@@QAEPAXPBG@Z 004f3280 f   sp_serikocursor.obj
 0001:000f22e0       ?Load@SPSerikoCursor@@QAEPAXPBD@Z 004f32e0 f   sp_serikocursor.obj
 0001:000f24c0       ?SetIntervalDefinition@SPSerikoImpl@@SIXPAVSPAnimeScript@@PAVSPAnimeBase@@PAD2@Z 004f34c0 f   sp_serikoimpl.obj
 0001:000f2780       ?SetAnimeDefinition@SPSerikoImpl@@SIXPAVSPAnimeScript@@PAVSPAnimeBase@@HHPAD2J@Z 004f3780 f   sp_serikoimpl.obj
 0001:000f3160       ?SetOptionDefinition@SPSerikoImpl@@SIXPAVSPAnimeScript@@PAVSPAnimeBase@@PAD2@Z 004f4160 f   sp_serikoimpl.obj
 0001:000f31e0       ?SetCollisionDefinition@SPSerikoImpl@@SIXPAVSPAnimeScript@@PAVSPAnimeBase@@J_N2KPAG@Z 004f41e0 f   sp_serikoimpl.obj
 0001:000f34b0       ?Get@SPSerikoToolTipsEntry@@QAEPBGPBG@Z 004f44b0 f   sp_serikotooltips.obj
 0001:000f34e0       ?Set@SPSerikoToolTipsEntry@@QAEXPBG0@Z 004f44e0 f   sp_serikotooltips.obj
 0001:000f3680       ??1SPSerikoToolTipsEntry@@QAE@XZ 004f4680 f   sp_serikotooltips.obj
 0001:000f3780       ??1SPSerikoToolTips@@QAE@XZ 004f4780 f   sp_serikotooltips.obj
 0001:000f37e0       ?Release@SPSerikoToolTips@@QAEXXZ 004f47e0 f   sp_serikotooltips.obj
 0001:000f3820       ?Add@SPSerikoToolTips@@QAE_NJPBG0@Z 004f4820 f   sp_serikotooltips.obj
 0001:000f3970       ?Get@SPSerikoToolTips@@QAEPBGJPBG@Z 004f4970 f   sp_serikotooltips.obj
 0001:000f39b0       ??0SPSetCurrentDir@@QAE@PBD@Z 004f49b0 f   sp_setcurrentdir.obj
 0001:000f39e0       ??1SPSetCurrentDir@@QAE@XZ 004f49e0 f   sp_setcurrentdir.obj
 0001:000f39f0       ?Release@SPSettings@@QAEXXZ 004f49f0 f   sp_setting.obj
 0001:000f3a30       ?Load@SPSettings@@QAE_NPBDKH@Z 004f4a30 f   sp_setting.obj
 0001:000f3a70       ?LoadOverride@SPSettings@@QAE_NPBD@Z 004f4a70 f   sp_setting.obj
 0001:000f3ca0       ?Save@SPSettings@@QAE_NXZ  004f4ca0 f   sp_setting.obj
 0001:000f3f30       ?GetValue@SPSettings@@QBEPADPBDPAD@Z 004f4f30 f   sp_setting.obj
 0001:000f3f60       ?GetValueArrayW@SPSettings@@QBEHPBDAAV?$JPtrArray@PAG@@@Z 004f4f60 f   sp_setting.obj
 0001:000f4170       ?GetValueArrayA@SPSettings@@QBEHPBDAAVSPStaticStringArrayA@@@Z 004f5170 f   sp_setting.obj
 0001:000f4200       ?GetValueEncode@SPSettings@@QBEPADPBD0PAD@Z 004f5200 f   sp_setting.obj
 0001:000f4240       ?GetValueNum@SPSettings@@QBEJPBDJ@Z 004f5240 f   sp_setting.obj
 0001:000f4290       ?GetValueNumU@SPSettings@@QBEKPBDK@Z 004f5290 f   sp_setting.obj
 0001:000f42e0       ?GetValueRect@SPSettings@@QBEHPBDAAUtagRECT@@@Z 004f52e0 f   sp_setting.obj
 0001:000f4330       ?GetValueNumArray@SPSettings@@QBEHPBDPAHKH@Z 004f5330 f   sp_setting.obj
 0001:000f43d0       ?GetValuePoint@SPSettings@@QBEHPBDAAUtagPOINT@@@Z 004f53d0 f   sp_setting.obj
 0001:000f4410       ?GetValueBool@SPSettings@@QBE_NPBDH@Z 004f5410 f   sp_setting.obj
 0001:000f4460       ?GetValueW@SPSettings@@QBEPAGPBDPAG@Z 004f5460 f   sp_setting.obj
 0001:000f4490       ?GetAllValue@SPSettings@@QAEKAAV?$JPtrArray@PAD@@AAV?$JPtrArray@PAG@@@Z 004f5490 f   sp_setting.obj
 0001:000f4600       ?AddValueW@SPSettings@@QAE_NPBDPBG@Z 004f5600 f   sp_setting.obj
 0001:000f4710       ?AddValueEncode@SPSettings@@QAE_NPBD00@Z 004f5710 f   sp_setting.obj
 0001:000f4740       ?AddValueNum@SPSettings@@QAE_NPBDJ@Z 004f5740 f   sp_setting.obj
 0001:000f4780       ?AddValueNumU@SPSettings@@QAE_NPBDK@Z 004f5780 f   sp_setting.obj
 0001:000f47c0       ?AddValueNumArray@SPSettings@@QAE_NPBDPAHK@Z 004f57c0 f   sp_setting.obj
 0001:000f48b0       ?AddValueRect@SPSettings@@QAE_NPBDABUtagRECT@@@Z 004f58b0 f   sp_setting.obj
 0001:000f4900       ?AddValuePoint@SPSettings@@QAE_NPBDABUtagPOINT@@@Z 004f5900 f   sp_setting.obj
 0001:000f4950       ?AddValueBool@SPSettings@@QAE_NPBDH@Z 004f5950 f   sp_setting.obj
 0001:000f4980       ?AddValue@SPSettings@@QAE_NPBD0@Z 004f5980 f   sp_setting.obj
 0001:000f4a30       ?AddValueArray@SPSettings@@QAE_NPBDPAPBDK@Z 004f5a30 f   sp_setting.obj
 0001:000f4b40       ?AddValueArraySub@SPSettings@@AAE_NPBDK@Z 004f5b40 f   sp_setting.obj
 0001:000f4ce0       ?DeleteValue@SPSettings@@QAE_NPBD@Z 004f5ce0 f   sp_setting.obj
 0001:000f4d30       ??0SPShiori@@QAE@XZ        004f5d30 f   sp_shiori.obj
 0001:000f4ee0       ?GetModuleDesc@SPShiori@@UAEPBGXZ 004f5ee0 f i sp_shiori.obj
 0001:000f4ef0       ?GetLogFileName@SPShiori@@UAEPBDXZ 004f5ef0 f i sp_shiori.obj
 0001:000f4f00       ??_GSPShiori@@UAEPAXI@Z    004f5f00 f i sp_shiori.obj
 0001:000f4f00       ??_ESPShiori@@UAEPAXI@Z    004f5f00 f i sp_shiori.obj
 0001:000f4f30       ??1SPShiori@@UAE@XZ        004f5f30 f   sp_shiori.obj
 0001:000f5040       ?MakeShiori30Request@SPShiori@@AAEXAAVJString@@AAVSPShioriEvent@@PBG@Z 004f6040 f   sp_shiori.obj
 0001:000f5380       ?MakeShioriLastReference@SPShiori@@AAEXAAV?$JPtrArray@PAVJWString@@@@@Z 004f6380 f   sp_shiori.obj
 0001:000f54b0       ?MakeShioriLastReference@SPShiori@@AAEXPAPAGK0K@Z 004f64b0 f   sp_shiori.obj
 0001:000f5670       ?GetLastReference@SPShiori@@QAEPAGXZ 004f6670 f   sp_shiori.obj
 0001:000f5690       ?Load@SPShiori@@QAEHPAD@Z  004f6690 f   sp_shiori.obj
 0001:000f6160       ?Unload@SPShiori@@QAEXXZ   004f7160 f   sp_shiori.obj
 0001:000f62c0       ?CommunicateSSTP@SPShiori@@QAE?AVSPShioriEventResult@@PAG0PAVSPSSTPData@@@Z 004f72c0 f   sp_shiori.obj
 0001:000f6ad0       ?GetWord@SPShiori@@QAEPBGPBG@Z 004f7ad0 f   sp_shiori.obj
 0001:000f6f10       ?GetSentence@SPShiori@@QAE?AVSPShioriEventResult@@PAG@Z 004f7f10 f   sp_shiori.obj
 0001:000f7200       ?ProcessOldResponse@SPShiori@@AAEPAGPAG@Z 004f8200 f   sp_shiori.obj
 0001:000f75d0       ?GetAIString@SPShiori@@QAE?AVSPShioriEventResult@@XZ 004f85d0 f   sp_shiori.obj
 0001:000f7830       ?GetShioriInfo@SPShiori@@QAEXXZ 004f8830 f   sp_shiori.obj
 0001:000f78c0       ?SendNotifyImpl@SPShiori@@AAEHAAVJString@@@Z 004f88c0 f   sp_shiori.obj
 0001:000f7920       ?NotifyEnvironment@SPShiori@@QAEHXZ 004f8920 f   sp_shiori.obj
 0001:000f7fe0       ?NotifyBindInfo@SPShiori@@QAEH_N@Z 004f8fe0 f   sp_shiori.obj
 0001:000f81e0       ?SPShiori_JoinIndexText@@YAXAAVJWString@@ABV?$JArray@K@@@Z 004f91e0 f   sp_shiori.obj
 0001:000f8370       ?NotifySelfInfo@SPShiori@@QAEHK@Z 004f9370 f   sp_shiori.obj
 0001:000f88d0       ?NotifyFontInfo@SPShiori@@QAEHXZ 004f98d0 f   sp_shiori.obj
 0001:000f8bf0       ?NotifyUserInfo@SPShiori@@QAEHXZ 004f9bf0 f   sp_shiori.obj
 0001:000f8cf0       ?NotifyInstalledGhost@SPShiori@@QAEHXZ 004f9cf0 f   sp_shiori.obj
 0001:000f8e90       ?NotifyInstalledShell@SPShiori@@QAEHXZ 004f9e90 f   sp_shiori.obj
 0001:000f9040       ?NotifyInstalledBalloon@SPShiori@@QAEHXZ 004fa040 f   sp_shiori.obj
 0001:000f91e0       ?NotifyInstalledHeadline@SPShiori@@QAEHXZ 004fa1e0 f   sp_shiori.obj
 0001:000f9380       ?NotifyOtherGhost@SPShiori@@QAEHXZ 004fa380 f   sp_shiori.obj
 0001:000f97b0       ?OnGhostClose@SPShiori@@QAE?AVSPShioriEventResult@@PBG_N@Z 004fa7b0 f   sp_shiori.obj
 0001:000f98e0       ?SendEvent@SPShiori@@QAE?AVSPShioriEventResult@@AAVSPShioriEvent@@@Z 004fa8e0 f   sp_shiori.obj
 0001:000f9da0       ??0SPModuleEvent@@QAE@ABV0@@Z 004fada0 f i sp_shiori.obj
 0001:000f9de0       ?Teach@SPShiori@@QAE?AVSPShioriEventResult@@PAG@Z 004fade0 f   sp_shiori.obj
 0001:000fa320       ?SendCommunicate@SPShiori@@QAEHXZ 004fb320 f   sp_shiori.obj
 0001:000fab50       ?GetLastCommunicateData@SPShiori@@QAEPAVSPCommunicateData@@XZ 004fbb50 f   sp_shiori.obj
 0001:000fab70       ?Request@SPShiori@@AAEPAGAAVJString@@@Z 004fbb70 f   sp_shiori.obj
 0001:000fad90       ?GetStringShiori@SPShiori@@QAEPAGPAG@Z 004fbd90 f   sp_shiori.obj
 0001:000fb030       ?GetVersion@SPShiori@@QAEHXZ 004fc030 f   sp_shiori.obj
 0001:000fb240       ?SetBaseWareID@SPShiori@@QAEXPAG@Z 004fc240 f   sp_shiori.obj
 0001:000fb260       ?Translate@SPShiori@@QAEPBGPBG0000@Z 004fc260 f   sp_shiori.obj
 0001:000fb5f0       ?ResetDataCache@SPShiori@@QAEXXZ 004fc5f0 f   sp_shiori.obj
 0001:000fb600       ?GetMenuAvailableTableChar@SPShiori@@QAEPAEII@Z 004fc600 f   sp_shiori.obj
 0001:000fb6c0       ?ResetMenuAvailableTableChar@SPShiori@@AAEXXZ 004fc6c0 f   sp_shiori.obj
 0001:000fb710       ?ParseGenericHeaders@SPShiori@@AAEXXZ 004fc710 f   sp_shiori.obj
 0001:000fb9b0       ?ClearTeachArray@SPShiori@@QAEXXZ 004fc9b0 f   sp_shiori.obj
 0001:000fba20       ?GetVersionNumber@SPShiori@@QAEXAAH0@Z 004fca20 f   sp_shiori.obj
 0001:000fba60       ?SetVersionNumber@SPShiori@@QAEXPBD@Z 004fca60 f   sp_shiori.obj
 0001:000fbb20       ?LoadModuleAndModifySpecificDLL@SPShiori@@AAEPADAAVJString@@@Z 004fcb20 f   sp_shiori.obj
 0001:000fc140       ?RevertSpecificDLL@SPShiori@@AAEXPAD@Z 004fd140 f   sp_shiori.obj
 0001:000fc1b0       ?_Sort_0@std@@YAXPAK00@Z   004fd1b0 f i sp_shiori.obj
 0001:000fc380       ?_Sort@std@@YAXPAK00@Z     004fd380 f i sp_shiori.obj
 0001:000fc450       ??_ESPShiori@@WBIE@AEPAXI@Z 004fd450 f i sp_shiori.obj
 0001:000fc460       ?Decode@SPSimpleEncode@@QAEPADPBD0@Z 004fd460 f   sp_simpleencode.obj
 0001:000fc5f0       ?Encode@SPSimpleEncode@@QAEPADPBD0@Z 004fd5f0 f   sp_simpleencode.obj
 0001:000fc7d0       ?Get@SPSimpleThreadManager@@SAAAV1@XZ 004fd7d0 f   sp_simplethread.obj
 0001:000fc820       ??0SPSimpleThreadManager@@AAE@XZ 004fd820 f   sp_simplethread.obj
 0001:000fc840       ??1SPSimpleThreadManager@@QAE@XZ 004fd840 f   sp_simplethread.obj
 0001:000fc8c0       ?BeginThread@SPSimpleThreadManager@@QAEPAXP6AXPAXPCH@Z0_N@Z 004fd8c0 f   sp_simplethread.obj
 0001:000fca80       ?BeginThreadOLE@SPSimpleThreadManager@@QAEPAXP6AXPAXPCH@Z0_N@Z 004fda80 f   sp_simplethread.obj
 0001:000fcb70       ?GetThreadNum@SPSimpleThreadManager@@QAEK_N@Z 004fdb70 f   sp_simplethread.obj
 0001:000fcbf0       ?TerminateAllThread@SPSimpleThreadManager@@QAEXXZ 004fdbf0 f   sp_simplethread.obj
 0001:000fccb0       ?FindThreadFromProc@SPSimpleThreadManager@@QAEPAXP6AXPAXPCH@Z@Z 004fdcb0 f   sp_simplethread.obj
 0001:000fcd50       ?GetSPMCIPlayer@@YAAAVSPMCIPlayer@@XZ 004fdd50 f   sp_snd.obj
 0001:000fcda0       ??0SPMCIPlayer@@AAE@XZ     004fdda0 f   sp_snd.obj
 0001:000fce00       ??1SPMCIPlayer@@QAE@XZ     004fde00 f   sp_snd.obj
 0001:000fcf10       ?New@SPMCIPlayer@@QAEPAVSPMCIPlayerDesc@@XZ 004fdf10 f   sp_snd.obj
 0001:000fcf20       ?Delete@SPMCIPlayer@@QAEXPAVSPMCIPlayerDesc@@@Z 004fdf20 f   sp_snd.obj
 0001:000fd030       ?DeleteArray@SPMCIPlayer@@QAEXAAV?$JPtrArray@PAVSPMCIPlayerDesc@@@@@Z 004fe030 f   sp_snd.obj
 0001:000fd050       ??0SPMCIPlayerDesc@@AAE@XZ 004fe050 f   sp_snd.obj
 0001:000fd150       ??1SPMCIPlayerDesc@@AAE@XZ 004fe150 f   sp_snd.obj
 0001:000fd1b0       ?Clear@SPMCIPlayerDesc@@QAEXXZ 004fe1b0 f   sp_snd.obj
 0001:000fd1f0       ?SendCommand@SPMCIPlayerDesc@@QAEKIKPAX@Z 004fe1f0 f   sp_snd.obj
 0001:000fd2a0       ??1?$SPCacheObj@VSPMCIPlayerDesc@@VJDummyLockSection@@VJDummyLock@@@@QAE@XZ 004fe2a0 f i sp_snd.obj
 0001:000fd360       ?New@?$SPCacheObj@VSPMCIPlayerDesc@@VJDummyLockSection@@VJDummyLock@@@@QAEPAVSPMCIPlayerDesc@@XZ 004fe360 f i sp_snd.obj
 0001:000fd4a0       ?Delete@?$SPCacheObj@VSPMCIPlayerDesc@@VJDummyLockSection@@VJDummyLock@@@@QAEXPAVSPMCIPlayerDesc@@@Z 004fe4a0 f i sp_snd.obj
 0001:000fd5c0       ?DeleteArray@?$SPCacheObj@VSPMCIPlayerDesc@@VJDummyLockSection@@VJDummyLock@@@@QAEXAAV?$JPtrArray@PAVSPMCIPlayerDesc@@@@@Z 004fe5c0 f i sp_snd.obj
 0001:000fd660       ??_ESPMCIPlayerDesc@@AAEPAXI@Z 004fe660 f i sp_snd.obj
 0001:000fd6c0       ?Release@SPSong@@QAEXXZ    004fe6c0 f   sp_song.obj
 0001:000fd710       ?LoadSong@SPSong@@QAEHPAD@Z 004fe710 f   sp_song.obj
 0001:000fd8d0       ?LoadSongFromStream@SPSong@@IAEHAAVJStream@@@Z 004fe8d0 f   sp_song.obj
 0001:000fdb70       ?GetScript@SPSong@@QAEPAGPAG@Z 004feb70 f   sp_song.obj
 0001:000fdbd0       ??1SPSongEntry@@QAE@XZ     004febd0 f i sp_song.obj
 0001:000fdca0       ??0SPScriptPlayer@@QAE@XZ  004feca0 f   sp_splayer.obj
 0001:000fe850       ?Alloc@JString@@QAEXK@Z    004ff850 f i sp_splayer.obj
 0001:000fe9a0       ??0SPLogManagerCore@@QAE@XZ 004ff9a0 f i sp_splayer.obj
 0001:000fea10       ??_ESPLogManagerCore@@UAEPAXI@Z 004ffa10 f i sp_splayer.obj
 0001:000fea10       ??_GSPLogManagerCore@@UAEPAXI@Z 004ffa10 f i sp_splayer.obj
 0001:000fea40       ??1SPLogManagerCore@@UAE@XZ 004ffa40 f i sp_splayer.obj
 0001:000feac0       ?SettingName@SPLogManagerScript@@UAEPBDXZ 004ffac0 f i sp_splayer.obj
 0001:000fead0       ?SettingName@SPLogManagerError@@UAEPBDXZ 004ffad0 f i sp_splayer.obj
 0001:000feae0       ??0SPVanish@@QAE@XZ        004ffae0 f i sp_splayer.obj
 0001:000feb80       ??1SPLogManagerScript@@UAE@XZ 004ffb80 f i sp_splayer.obj
 0001:000fec00       ??1SPLogManagerError@@UAE@XZ 004ffc00 f i sp_splayer.obj
 0001:000fec80       ??_GSPLogManagerScript@@UAEPAXI@Z 004ffc80 f i sp_splayer.obj
 0001:000fec80       ??_ESPLogManagerScript@@UAEPAXI@Z 004ffc80 f i sp_splayer.obj
 0001:000fecb0       ??_ESPLogManagerError@@UAEPAXI@Z 004ffcb0 f i sp_splayer.obj
 0001:000fecb0       ??_GSPLogManagerError@@UAEPAXI@Z 004ffcb0 f i sp_splayer.obj
 0001:000fece0       ??1SPScriptPlayer@@QAE@XZ  004ffce0 f   sp_splayer.obj
 0001:000ff410       ?UseExceptionHandler@SPScriptPlayer@@QAEXH@Z 00500410 f   sp_splayer.obj
 0001:000ff4a0       ?CreateFINEFMO@SPScriptPlayer@@QAEXXZ 005004a0 f   sp_splayer.obj
 0001:000ff540       ?CreateFMO@SPScriptPlayer@@QAEXPAD@Z 00500540 f   sp_splayer.obj
 0001:000ff680       ?Init@SPScriptPlayer@@QAEXXZ 00500680 f   sp_splayer.obj
 0001:00100240       ?Release@SPScriptPlayer@@QAEXXZ 00501240 f   sp_splayer.obj
 0001:001004f0       ??1SPVanish@@QAE@XZ        005014f0 f i sp_splayer.obj
 0001:00100560       ?PreInit@SPScriptPlayer@@QAEXXZ 00501560 f   sp_splayer.obj
 0001:001011b0       ?MultiLanguageSetup@SPScriptPlayer@@AAEHXZ 005021b0 f   sp_splayer.obj
 0001:00101480       ?EnumMultiLanguageSettings@SPScriptPlayer@@AAEXXZ 00502480 f   sp_splayer.obj
 0001:001017d0       ?LoadLanguageInfo@SPScriptPlayer@@AAEXPAD@Z 005027d0 f   sp_splayer.obj
 0001:00101cc0       ?GetResHandle@SPScriptPlayer@@QAEPAXIPADPAK@Z 00502cc0 f   sp_splayer.obj
 0001:00101d80       ?GetResHandleMalloc@SPScriptPlayer@@QAEPAXIPADPAKK@Z 00502d80 f   sp_splayer.obj
 0001:00101df0       ?StopInfoCacheThread@SPScriptPlayer@@QAEXXZ 00502df0 f   sp_splayer.obj
 0001:00101e30       ?EnumGhosts@SPScriptPlayer@@QAEK_NP6AJPAXKK@Z1@Z 00502e30 f   sp_splayer.obj
 0001:00102190       ?LoadGhostInfo@SPScriptPlayer@@AAEHPAVSPFolderListData@@AAV?$JPtrArray@PAVSPGhostProp@@@@@Z 00503190 f   sp_splayer.obj
 0001:001023d0       ??_GSPGhostProp@@UAEPAXI@Z 005033d0 f i sp_splayer.obj
 0001:001023d0       ??_ESPGhostProp@@UAEPAXI@Z 005033d0 f i sp_splayer.obj
 0001:00102400       ??1SPGhostProp@@UAE@XZ     00503400 f i sp_splayer.obj
 0001:001024f0       ?LoadGhostInfoNH@SPScriptPlayer@@AAEXAAV?$JPtrArray@PAVSPGhostProp@@@@@Z 005034f0 f   sp_splayer.obj
 0001:00102980       ?ReloadAllBalloons@SPScriptPlayer@@QAEHPAD@Z 00503980 f   sp_splayer.obj
 0001:001029f0       ?EnumBalloons@SPScriptPlayer@@QAEKP6AJPAXKK@Z0@Z 005039f0 f   sp_splayer.obj
 0001:00102bd0       ?LoadBalloonInfo@SPScriptPlayer@@AAEHPAVSPFolderListData@@AAV?$JPtrArray@PAVSPBalloonProp@@@@@Z 00503bd0 f   sp_splayer.obj
 0001:00102e00       ??_GSPBalloonProp@@UAEPAXI@Z 00503e00 f i sp_splayer.obj
 0001:00102e00       ??_ESPBalloonProp@@UAEPAXI@Z 00503e00 f i sp_splayer.obj
 0001:00102e30       ??1SPBalloonProp@@UAE@XZ   00503e30 f i sp_splayer.obj
 0001:00102ef0       ?EnumHeadlines@SPScriptPlayer@@QAEKP6AJPAXKK@Z0@Z 00503ef0 f   sp_splayer.obj
 0001:00103100       ?LoadHeadlineInfo@SPScriptPlayer@@AAEHPAVSPFolderListData@@AAV?$JPtrArray@PAVSPHeadline@@@@@Z 00504100 f   sp_splayer.obj
 0001:00103270       ?MakeRSSDirectory@SPScriptPlayer@@QAEHAAVJString@@@Z 00504270 f   sp_splayer.obj
 0001:00103340       ?GetProxyType@SPScriptPlayer@@SI?AW4SPSPlayer_Proxy_Type@@PAD@Z 00504340 f   sp_splayer.obj
 0001:001033a0       ?SaveProxyType@SPScriptPlayer@@QAEXXZ 005043a0 f   sp_splayer.obj
 0001:00103400       ?InitNetworkSetting@SPScriptPlayer@@QAEXXZ 00504400 f   sp_splayer.obj
 0001:00103590       ?LoadSystemProxySetting@SPScriptPlayer@@QAEHXZ 00504590 f   sp_splayer.obj
 0001:00103770       ?FindCacheFromID@SPScriptPlayer@@QAEPAVSPGhost@@HH@Z 00504770 f   sp_splayer.obj
 0001:00103910       ?LoadGhost@SPScriptPlayer@@QAEPAVSPGhost@@HH@Z 00504910 f   sp_splayer.obj
 0001:00103b50       ?FindGhostIDFromPath@SPScriptPlayer@@QAEJPBDH@Z 00504b50 f   sp_splayer.obj
 0001:00103c50       ?FindGhostIDFromName@SPScriptPlayer@@QAEJPBG00@Z 00504c50 f   sp_splayer.obj
 0001:00103e20       ?FindHeadlineIDFromPath@SPScriptPlayer@@QAEJPADHH@Z 00504e20 f   sp_splayer.obj
 0001:00103e80       ?FindHeadlineIDFromReadURL@SPScriptPlayer@@QAEJPBGH@Z 00504e80 f   sp_splayer.obj
 0001:00103ef0       ?FindBalloonIDFromPath@SPScriptPlayer@@QAEJPADH@Z 00504ef0 f   sp_splayer.obj
 0001:00103f20       ?FindBalloonIDFromRelativePath@SPScriptPlayer@@QAEJPAD@Z 00504f20 f   sp_splayer.obj
 0001:00103f50       ?FindBalloonIDFromName@SPScriptPlayer@@QAEJPAG@Z 00504f50 f   sp_splayer.obj
 0001:00103f80       ?SetPreferredGhostPath@SPScriptPlayer@@QAEXPAD@Z 00504f80 f   sp_splayer.obj
 0001:00103fc0       ?UpdatePreferredGhostIDCache@SPScriptPlayer@@AAEXXZ 00504fc0 f   sp_splayer.obj
 0001:00103fe0       ?GetPreferredGhostID@SPScriptPlayer@@QAEJXZ 00504fe0 f   sp_splayer.obj
 0001:00103ff0       ?SetDefaultGhostPath@SPScriptPlayer@@QAEXPAD@Z 00504ff0 f   sp_splayer.obj
 0001:00104020       ?SetDefaultBalloonPath@SPScriptPlayer@@QAEXPAD@Z 00505020 f   sp_splayer.obj
 0001:00104050       ?GetPreferredActiveGhost@SPScriptPlayer@@QAEPAVSPGhost@@XZ 00505050 f   sp_splayer.obj
 0001:00104110       ?GetActiveFullBootGhostCount@SPScriptPlayer@@QAEIPAVSPGhost@@@Z 00505110 f   sp_splayer.obj
 0001:00104170       ?UtilBrowseURL@SPScriptPlayer@@QAE_NPBG@Z 00505170 f   sp_splayer.obj
 0001:00104250       ?UtilBrowseURL@SPScriptPlayer@@QAE_NPBD@Z 00505250 f   sp_splayer.obj
 0001:001046c0       ?UtilExploreFile@SPScriptPlayer@@QAE_NPBD@Z 005056c0 f   sp_splayer.obj
 0001:00104700       ?UtilShellOpenFile@SPScriptPlayer@@QAE_NPBD0@Z 00505700 f   sp_splayer.obj
 0001:001047c0       ?UtilSendMail@SPScriptPlayer@@QAE_NPBG@Z 005057c0 f   sp_splayer.obj
 0001:001048a0       ?UtilSendMail@SPScriptPlayer@@QAE_NPBD@Z 005058a0 f   sp_splayer.obj
 0001:001049b0       ?ExecuteNetApps@SPScriptPlayer@@QAEHPAD@Z 005059b0 f   sp_splayer.obj
 0001:00104d30       ?IsSpeedup@SPScriptPlayer@@QAEHXZ 00505d30 f   sp_splayer.obj
 0001:00104d60       ?GetVisibleGhost@SPScriptPlayer@@QAEPAVSPGhost@@H@Z 00505d60 f   sp_splayer.obj
 0001:00104e60       ?StartSSTPServers@SPScriptPlayer@@QAEHXZ 00505e60 f   sp_splayer.obj
 0001:00104ee0       ?EndSSTPServers@SPScriptPlayer@@QAEHXZ 00505ee0 f   sp_splayer.obj
 0001:00104f10       ?SaveSSTPSetting@SPScriptPlayer@@QAEHXZ 00505f10 f   sp_splayer.obj
 0001:00104f30       ?FindActiveGhostArrayFromName@SPScriptPlayer@@QAEXPAGAAV?$JPtrArray@PAVSPGhost@@@@@Z 00505f30 f   sp_splayer.obj
 0001:001050e0       ?FindActiveGhostFromName@SPScriptPlayer@@QAEPAVSPGhost@@PBG00_N@Z 005060e0 f   sp_splayer.obj
 0001:001052d0       ?FindActiveGhostFromPath@SPScriptPlayer@@QAEPAVSPGhost@@PBDH@Z 005062d0 f   sp_splayer.obj
 0001:00105440       ?FindActiveGhostFromRelativePath@SPScriptPlayer@@QAEPAVSPGhost@@PBD@Z 00506440 f   sp_splayer.obj
 0001:00105560       ?FindActiveGhostFromHWND@SPScriptPlayer@@QAEPAVSPGhost@@PAX@Z 00506560 f   sp_splayer.obj
 0001:001055b0       ?FindActiveGhostFromID@SPScriptPlayer@@QAEPAVSPGhost@@H@Z 005065b0 f   sp_splayer.obj
 0001:00105600       ?FindActiveGhostFromGhostProp@SPScriptPlayer@@QAEPAVSPGhost@@PAVSPGhostProp@@@Z 00506600 f   sp_splayer.obj
 0001:00105660       ?CallGhost@SPScriptPlayer@@QAE_NPBGJJ@Z 00506660 f   sp_splayer.obj
 0001:001056c0       ?CallGhost@SPScriptPlayer@@QAE_NPAVSPGhostLoaderInfo@@@Z 005066c0 f   sp_splayer.obj
 0001:001056e0       ?NewGhostLoadInfo@SPScriptPlayer@@QAEPAVSPGhostLoaderInfo@@XZ 005066e0 f   sp_splayer.obj
 0001:001056f0       ?DeleteGhost@SPScriptPlayer@@QAEHPAVSPGhost@@H@Z 005066f0 f   sp_splayer.obj
 0001:00105840       ?UpdateCache@SPScriptPlayer@@QAEHPAVSPGhost@@@Z 00506840 f   sp_splayer.obj
 0001:00105a60       ?PurgeAllCache@SPScriptPlayer@@QAEXXZ 00506a60 f   sp_splayer.obj
 0001:00105af0       ?PurgeCacheIfExist@SPScriptPlayer@@QAEHPAD@Z 00506af0 f   sp_splayer.obj
 0001:00105cb0       ?CheckPathIsOK@SPScriptPlayer@@QAE_NPBD@Z 00506cb0 f   sp_splayer.obj
 0001:00105cf0       ?UpdateFINEFileMapping@SPScriptPlayer@@QAE_NI@Z 00506cf0 f   sp_splayer.obj
 0001:001062e0       ?UpdateFileMapping@SPScriptPlayer@@QAE_NI@Z 005072e0 f   sp_splayer.obj
 0001:00106310       ?UpdateSakuraFileMapping@SPScriptPlayer@@QAE_NI@Z 00507310 f   sp_splayer.obj
 0001:00106fb0       ?LoadWindowProc@SPScriptPlayer@@AAEHAAVJRect@@PADPAH@Z 00507fb0 f   sp_splayer.obj
 0001:00107110       ?LoadWindowRect@SPScriptPlayer@@QAEXPAUHWND__@@PADAAUtagPOINT@@PAH@Z 00508110 f   sp_splayer.obj
 0001:00107210       ?LoadWindowPos@SPScriptPlayer@@QAEXPAUHWND__@@PADPAH@Z 00508210 f   sp_splayer.obj
 0001:001072f0       ?SaveWindowRect@SPScriptPlayer@@QAEXPAUHWND__@@PADH@Z 005082f0 f   sp_splayer.obj
 0001:001073b0       ?FindOtherGhostHWnd@SPScriptPlayer@@QAEPAXPAVSPGhost@@PBG1AAPAV2@@Z 005083b0 f   sp_splayer.obj
 0001:00107470       ?GetOtherGhostHWndList@SPScriptPlayer@@QAEXPAVSPGhost@@HAAV?$JArray@PAX@@AAV?$JPtrArray@PAVSPGhost@@@@@Z 00508470 f   sp_splayer.obj
 0001:00107680       ?AddScriptLog@SPScriptPlayer@@QAEKPBGPAVSPGhost@@KK@Z 00508680 f   sp_splayer.obj
 0001:001076c0       ?AddErrorLog@SPScriptPlayer@@QAEKPBGIPAVSPGhost@@@Z 005086c0 f   sp_splayer.obj
 0001:001076f0       ?AddErrorLog@SPScriptPlayer@@QAEKPBGIPAG@Z 005086f0 f   sp_splayer.obj
 0001:00107710       ?SetAutoChangeType@SPScriptPlayer@@QAEXPAD@Z 00508710 f   sp_splayer.obj
 0001:00107760       ?IsNetOnline@SPScriptPlayer@@QAE_NXZ 00508760 f   sp_splayer.obj
 0001:00107850       ?AskNetConnectionAllow@SPScriptPlayer@@QAE_NXZ 00508850 f   sp_splayer.obj
 0001:00107880       ?IsNetConnectionAllowed@SPScriptPlayer@@QAE_NXZ 00508880 f   sp_splayer.obj
 0001:00107920       ?IsGhostIDBooted@SPScriptPlayer@@QAE_NJ@Z 00508920 f   sp_splayer.obj
 0001:001079a0       ?GetSystemUserName@SPScriptPlayer@@QAEPBGXZ 005089a0 f   sp_splayer.obj
 0001:00107a90       ?GetSSPTempName@SPScriptPlayer@@QAEXAAVJString@@PBD@Z 00508a90 f   sp_splayer.obj
 0001:00107b90       ?GetMD5TempName@SPScriptPlayer@@QAEXAAVJString@@PBGPBD@Z 00508b90 f   sp_splayer.obj
 0001:00107c70       ?GetMD5TempName@SPScriptPlayer@@QAEXAAVJString@@PBD1@Z 00508c70 f   sp_splayer.obj
 0001:00107ef0       ?MessageBoxTable@SPScriptPlayer@@QAEHPADIH@Z 00508ef0 f   sp_splayer.obj
 0001:00108010       ?OnNotifyEventAll@SPScriptPlayer@@QAE_NAAVSPShioriEvent@@KKKPAVSPGhost@@@Z 00509010 f   sp_splayer.obj
 0001:001080f0       ?OnNotifyEventAllThread@SPScriptPlayer@@QAE_NAAVSPShioriEvent@@KKKPAVSPGhost@@@Z 005090f0 f   sp_splayer.obj
 0001:001081d0       ?OtherSurfaceChangeBroadcast@SPScriptPlayer@@QAEXPAVSPGhost@@AAVSPShioriEvent@@@Z 005091d0 f   sp_splayer.obj
 0001:00108210       ?OtherSurfaceChangeAdd@SPScriptPlayer@@QAEXPAVSPCmdListener@@@Z 00509210 f   sp_splayer.obj
 0001:00108230       ?OtherSurfaceChangeDelete@SPScriptPlayer@@QAEXPAVSPCmdListener@@@Z 00509230 f   sp_splayer.obj
 0001:00108250       ?OtherGhostTalkBeforeBroadcast@SPScriptPlayer@@QAEXPAVSPGhost@@AAVSPShioriEvent@@@Z 00509250 f   sp_splayer.obj
 0001:00108290       ?OtherGhostTalkBeforeAdd@SPScriptPlayer@@QAEXPAVSPCmdListener@@@Z 00509290 f   sp_splayer.obj
 0001:001082c0       ?OtherGhostTalkBeforeDelete@SPScriptPlayer@@QAEXPAVSPCmdListener@@@Z 005092c0 f   sp_splayer.obj
 0001:001082f0       ?OtherGhostTalkAfterBroadcast@SPScriptPlayer@@QAEXPAVSPGhost@@AAVSPShioriEvent@@@Z 005092f0 f   sp_splayer.obj
 0001:00108330       ?OtherGhostTalkAfterAdd@SPScriptPlayer@@QAEXPAVSPCmdListener@@@Z 00509330 f   sp_splayer.obj
 0001:00108360       ?OtherGhostTalkAfterDelete@SPScriptPlayer@@QAEXPAVSPCmdListener@@@Z 00509360 f   sp_splayer.obj
 0001:00108390       ?NotifyFolder@SPScriptPlayer@@QAEXK@Z 00509390 f   sp_splayer.obj
 0001:00108410       ?CreateShellLink@SPScriptPlayer@@QAEPAUIShellLinkA@@AAV?$JArray@K@@@Z 00509410 f   sp_splayer.obj
 0001:00108690       ?OnSystemSettingChange@SPScriptPlayer@@QAEXI@Z 00509690 f   sp_splayer.obj
 0001:001086c0       ?SPScriptPlayer_UAWS_TimerProc_False@@YGXPAUHWND__@@IIK@Z 005096c0 f   sp_splayer.obj
 0001:001086f0       ?SPScriptPlayer_UAWS_TimerProc_True@@YGXPAUHWND__@@IIK@Z 005096f0 f   sp_splayer.obj
 0001:00108720       ?UpdateAllWindowPos@SPScriptPlayer@@QAEX_N@Z 00509720 f   sp_splayer.obj
 0001:00108750       ?UpdateAllWindowPosReal@SPScriptPlayer@@QAEX_N@Z 00509750 f   sp_splayer.obj
 0001:001087b0       ?GetNarDir@SPScriptPlayer@@QAEXAAVJString@@@Z 005097b0 f   sp_splayer.obj
 0001:00108840       ?ShowProgressWindow@SPScriptPlayer@@QAEXPBG@Z 00509840 f   sp_splayer.obj
 0001:00108890       ?GetTextFromTableW@SPScriptPlayer@@QAEPAGPAD@Z 00509890 f   sp_splayer.obj
 0001:001088c0       ?FindSystemFileFromPartialDir@SPScriptPlayer@@QAEXPADAAVJString@@@Z 005098c0 f   sp_splayer.obj
 0001:00108b60       ??0?$JPtrArray@PAVSPOtherGhostProp@@@@QAE@J@Z 00509b60 f i sp_splayer.obj
 0001:00108bd0       ??0?$SPCacheObj@VSPOtherGhostProp@@VJDummyLockSection@@VJDummyLock@@@@QAE@K@Z 00509bd0 f i sp_splayer.obj
 0001:00108c20       ??0?$SPCacheObj@VSPOtherFINEServerProp@@VJDummyLockSection@@VJDummyLock@@@@QAE@K@Z 00509c20 f i sp_splayer.obj
 0001:00108c70       ?New@?$SPCacheObj@VSPGhostLoaderInfo@@VJCriticalSection@@VJLock@@@@QAEPAVSPGhostLoaderInfo@@XZ 00509c70 f i sp_splayer.obj
 0001:00108dd0       ??0SPGhostLoaderInfo@@AAE@XZ 00509dd0 f i sp_splayer.obj
 0001:00108e90       ??1SPLanguageProp@@QAE@XZ  00509e90 f i sp_splayer.obj
 0001:00108f50       ?Copy@?$JArray@PAX@@QAE_NPBQAXK@Z 00509f50 f i sp_splayer.obj
 0001:00108f50       ?Copy@?$JArray@K@@QAE_NPBKK@Z 00509f50 f i sp_splayer.obj
 0001:00109050       ?_Sort_0@std@@YAXPAPAVSPGhostProp@@0U?$JArray_PointerPred@PAVSPGhostProp@@@@0@Z 0050a050 f i sp_splayer.obj
 0001:001092f0       ?_Sort_0@std@@YAXPAPAVSPBalloonProp@@0U?$JArray_PointerPred@PAVSPBalloonProp@@@@0@Z 0050a2f0 f i sp_splayer.obj
 0001:00109590       ?_Sort_0@std@@YAXPAPAVSPHeadline@@0U?$JArray_PointerPred@PAVSPHeadline@@@@0@Z 0050a590 f i sp_splayer.obj
 0001:00109830       ?_Sort_0@std@@YAXPAPAVSPGhost@@0U?$JArray_PredConverter@PAVSPGhost@@P6AHPAV1@0@Z@@0@Z 0050a830 f i sp_splayer.obj
 0001:00109b00       ?_Sort@std@@YAXPAPAVSPGhostProp@@0U?$JArray_PointerPred@PAVSPGhostProp@@@@0@Z 0050ab00 f i sp_splayer.obj
 0001:00109c30       ?_Sort@std@@YAXPAPAVSPBalloonProp@@0U?$JArray_PointerPred@PAVSPBalloonProp@@@@0@Z 0050ac30 f i sp_splayer.obj
 0001:00109d60       ?_Sort@std@@YAXPAPAVSPHeadline@@0U?$JArray_PointerPred@PAVSPHeadline@@@@0@Z 0050ad60 f i sp_splayer.obj
 0001:00109e90       ?_Sort@std@@YAXPAPAVSPGhost@@0U?$JArray_PredConverter@PAVSPGhost@@P6AHPAV1@0@Z@@0@Z 0050ae90 f i sp_splayer.obj
 0001:00109fd0       ??0SPSSTPData@@AAE@XZ      0050afd0 f   sp_sstpdata.obj
 0001:0010a160       ??1SPSSTPData@@AAE@XZ      0050b160 f   sp_sstpdata.obj
 0001:0010a310       ?Clear@SPSSTPData@@QAEXXZ  0050b310 f   sp_sstpdata.obj
 0001:0010a3e0       ?SetData@SPSSTPData@@QAEXPAG00@Z 0050b3e0 f   sp_sstpdata.obj
 0001:0010a420       ?ProcessData@SPSSTPData@@QAEXPADPAXPAVJSocket@@@Z 0050b420 f   sp_sstpdata.obj
 0001:0010a530       ?AddValueW@SPSSTPData@@QAEXPADPAG@Z 0050b530 f   sp_sstpdata.obj
 0001:0010a560       ?ReturnData@SPSSTPData@@AAEHAAVJString@@@Z 0050b560 f   sp_sstpdata.obj
 0001:0010a640       ?ReturnStatus@SPSSTPData@@QAEHHPAG0@Z 0050b640 f   sp_sstpdata.obj
 0001:0010ab70       ?StringSelected@SPSSTPData@@QAEXPAG@Z 0050bb70 f   sp_sstpdata.obj
 0001:0010ab90       ?GetValueW@SPSSTPData@@QAEPAGPBD@Z 0050bb90 f   sp_sstpdata.obj
 0001:0010abb0       ?GetValueReferenceW@SPSSTPData@@QAEXPBDAAV?$JPtrArray@PAG@@@Z 0050bbb0 f   sp_sstpdata.obj
 0001:0010abd0       ?GetOptionW@SPSSTPData@@QAEPAGXZ 0050bbd0 f   sp_sstpdata.obj
 0001:0010ac10       ?isFromLocal@SPSSTPData@@QAE_NXZ 0050bc10 f   sp_sstpdata.obj
 0001:0010ac20       ?isFINE@SPSSTPData@@QAE_NXZ 0050bc20 f   sp_sstpdata.obj
 0001:0010ac50       ?MakeIfGhost@SPSSTPData@@AAEKXZ 0050bc50 f   sp_sstpdata.obj
 0001:0010ae30       ?GetScriptW@SPSSTPData@@QAEPAGPAVSPGhost@@@Z 0050be30 f   sp_sstpdata.obj
 0001:0010b000       ?GetBootGhostIDAndScriptW@SPSSTPData@@QAEJAAVJWString@@AAPAVSPGhost@@@Z 0050c000 f   sp_sstpdata.obj
 0001:0010b1c0       ?GetGhostAndScriptW@SPSSTPData@@QAEPAVSPGhost@@AAVJWString@@@Z 0050c1c0 f   sp_sstpdata.obj
 0001:0010b4d0       ?GetEntryW@SPSSTPData@@QAEXAAVJWString@@@Z 0050c4d0 f   sp_sstpdata.obj
 0001:0010b760       ?isSecure@SPSSTPData@@QAE_NXZ 0050c760 f   sp_sstpdata.obj
 0001:0010b7a0       ??0SPSSTPServerSocket@@QAE@XZ 0050c7a0 f   sp_sstpserver.obj
 0001:0010b7e0       ??1SPSSTPServerSocket@@QAE@XZ 0050c7e0 f   sp_sstpserver.obj
 0001:0010b840       ?Close@SPSSTPServerSocket@@QAEXW4JSocketCloseOption@@@Z 0050c840 f   sp_sstpserver.obj
 0001:0010b880       ?Handle@SPSSTPServerSocket@@QAEPAVJSocket@@K@Z 0050c880 f   sp_sstpserver.obj
 0001:0010b8c0       ?Listen@SPSSTPServerSocket@@QAEHPAUHWND__@@@Z 0050c8c0 f   sp_sstpserver.obj
 0001:0010b9a0       ??0SPSSTPServer@@QAE@PAUHWND__@@@Z 0050c9a0 f   sp_sstpserver.obj
 0001:0010bae0       ?ReleaseAllSocket@SPSSTPServer@@QAEXXZ 0050cae0 f   sp_sstpserver.obj
 0001:0010bb40       ??1SPSSTPServer@@QAE@XZ    0050cb40 f   sp_sstpserver.obj
 0001:0010bd00       ??0JLock@@QAE@AAVJLockable@@@Z 0050cd00 f i sp_sstpserver.obj
 0001:0010bd20       ?NewSSTPData@SPSSTPServer@@QAEPAVSPSSTPData@@XZ 0050cd20 f   sp_sstpserver.obj
 0001:0010bd30       ?DeleteSSTPData@SPSSTPServer@@QAEXPAVSPSSTPData@@HPBG@Z 0050cd30 f   sp_sstpserver.obj
 0001:0010bef0       ?Save@SPSSTPServer@@QAEXXZ 0050cef0 f   sp_sstpserver.obj
 0001:0010c060       ?Start@SPSSTPServer@@QAEXXZ 0050d060 f   sp_sstpserver.obj
 0001:0010c1b0       ?InitListenPort@SPSSTPServer@@QAEXXZ 0050d1b0 f   sp_sstpserver.obj
 0001:0010c1f0       ?AddListenPort@SPSSTPServer@@QAEHHH@Z 0050d1f0 f   sp_sstpserver.obj
 0001:0010c390       ?DelListenPort@SPSSTPServer@@QAEXJ@Z 0050d390 f   sp_sstpserver.obj
 0001:0010c410       ?SwitchListenPort@SPSSTPServer@@QAEHJH@Z 0050d410 f   sp_sstpserver.obj
 0001:0010c480       ?GetSocketNumFromPort@SPSSTPServer@@AAEJH@Z 0050d480 f   sp_sstpserver.obj
 0001:0010c4c0       ?GetAvailablePort@SPSSTPServer@@QAEHXZ 0050d4c0 f   sp_sstpserver.obj
 0001:0010c500       ?Accept@SPSSTPServer@@QAEXIJ@Z 0050d500 f   sp_sstpserver.obj
 0001:0010c790       ?PlaySSTP@SPSSTPServer@@QAEHAAVSPSSTPServerPlaySSTPDesc@@@Z 0050d790 f   sp_sstpserver.obj
 0001:0010c910       ?ConvertStandScript@SPSSTPServer@@AAEHPAVSPSSTPData@@@Z 0050d910 f   sp_sstpserver.obj
 0001:0010cdf0       ?ProcNotify@SPSSTPServer@@AAEHPAVSPSSTPData@@AAVSPSSTPServerPlaySSTPDesc@@@Z 0050ddf0 f   sp_sstpserver.obj
 0001:0010d2a0       ?ProcNotifyEvent@SPSSTPServer@@AAEHPAG0PAVSPSSTPData@@AAVSPSSTPServerPlaySSTPDesc@@@Z 0050e2a0 f   sp_sstpserver.obj
 0001:0010d540       ?ProcNotifyFINE@SPSSTPServer@@AAEHPAGPAVSPSSTPData@@AAVSPSSTPServerPlaySSTPDesc@@@Z 0050e540 f   sp_sstpserver.obj
 0001:0010d6d0       ?ProcCommunicate@SPSSTPServer@@AAEHPAVSPSSTPData@@AAVSPSSTPServerPlaySSTPDesc@@@Z 0050e6d0 f   sp_sstpserver.obj
 0001:0010d740       ?ProcExecute@SPSSTPServer@@AAEHPAVSPSSTPData@@AAVSPSSTPServerPlaySSTPDesc@@@Z 0050e740 f   sp_sstpserver.obj
 0001:0010ea80       ?ProcGive@SPSSTPServer@@AAEHPAVSPSSTPData@@AAVSPSSTPServerPlaySSTPDesc@@@Z 0050fa80 f   sp_sstpserver.obj
 0001:0010ed30       ?ProcInstall@SPSSTPServer@@AAEHPAVSPSSTPData@@AAVSPSSTPServerPlaySSTPDesc@@@Z 0050fd30 f   sp_sstpserver.obj
 0001:0010f160       ?WriteLog@SPSSTPServer@@AAEXPAVSPSSTPData@@PADPAG@Z 00510160 f   sp_sstpserver.obj
 0001:0010f4f0       ??1?$SPCacheObj@VSPSSTPData@@VJCriticalSection@@VJLock@@@@QAE@XZ 005104f0 f i sp_sstpserver.obj
 0001:0010f5e0       ?New@?$SPCacheObj@VSPSSTPData@@VJCriticalSection@@VJLock@@@@QAEPAVSPSSTPData@@XZ 005105e0 f i sp_sstpserver.obj
 0001:0010f750       ??_ESPSSTPData@@AAEPAXI@Z  00510750 f i sp_sstpserver.obj
 0001:0010f7b0       ?AddW@SPStaticStringArrayW@@QAEJPBGJ@Z 005107b0 f   sp_staticstringarray.obj
 0001:0010f900       ?AddUnique@SPStaticStringArrayW@@QAEJPBG_N@Z 00510900 f   sp_staticstringarray.obj
 0001:0010f940       ?AddA@SPStaticStringArrayW@@QAEJPBD0@Z 00510940 f   sp_staticstringarray.obj
 0001:0010f9f0       ?AddA@SPStaticStringArrayW@@QAEJPBDH@Z 005109f0 f   sp_staticstringarray.obj
 0001:0010faa0       ?FindA@SPStaticStringArrayW@@QBEJPBDHH@Z 00510aa0 f   sp_staticstringarray.obj
 0001:0010fb90       ?Find@SPStaticStringArrayW@@QBEJPBGH@Z 00510b90 f   sp_staticstringarray.obj
 0001:0010fc10       ?GetTable@SPStaticStringArrayW@@QAEPAPAGXZ 00510c10 f   sp_staticstringarray.obj
 0001:0010fc20       ?Get@SPStaticStringArrayW@@QAEPAGK@Z 00510c20 f   sp_staticstringarray.obj
 0001:0010fc20       ?Get@SPStaticStringArrayW@@QBEPBGK@Z 00510c20 f   sp_staticstringarray.obj
 0001:0010fc50       ??8SPStaticStringArrayW@@QBE_NABV0@@Z 00510c50 f   sp_staticstringarray.obj
 0001:0010fcc0       ?Swap@SPStaticStringArrayW@@QAEHKK@Z 00510cc0 f   sp_staticstringarray.obj
 0001:0010fd20       ?GetNum@SPStaticStringArrayW@@QBEKXZ 00510d20 f   sp_staticstringarray.obj
 0001:0010fd30       ?MakeTable@SPStaticStringArrayW@@ABEXXZ 00510d30 f   sp_staticstringarray.obj
 0001:0010fe60       ?Join@SPStaticStringArrayW@@QBEXAAVJWString@@PBG@Z 00510e60 f   sp_staticstringarray.obj
 0001:0010ff40       ?Release@SPStaticStringArrayA@@QAEXXZ 00510f40 f   sp_staticstringarray.obj
 0001:0010ff40       ?Release@SPStaticStringArrayW@@QAEXXZ 00510f40 f   sp_staticstringarray.obj
 0001:0010ff50       ?AddA@SPStaticStringArrayA@@QAEJPBDJ@Z 00510f50 f   sp_staticstringarray.obj
 0001:001100a0       ?WriteToFile@SPStaticStringArrayA@@QAE_NPBDK@Z 005110a0 f   sp_staticstringarray.obj
 0001:001101b0       ?AddFromFile@SPStaticStringArrayA@@QAE_NPBD@Z 005111b0 f   sp_staticstringarray.obj
 0001:00110280       ?AddUnique@SPStaticStringArrayA@@QAEJPBD_N@Z 00511280 f   sp_staticstringarray.obj
 0001:001102c0       ?AddW@SPStaticStringArrayA@@QAEJPBGH@Z 005112c0 f   sp_staticstringarray.obj
 0001:00110370       ?Find@SPStaticStringArrayA@@QBEJPBDH@Z 00511370 f   sp_staticstringarray.obj
 0001:00110420       ?GetTable@SPStaticStringArrayA@@QAEPAPADXZ 00511420 f   sp_staticstringarray.obj
 0001:00110430       ?Get@SPStaticStringArrayA@@QAEPADK@Z 00511430 f   sp_staticstringarray.obj
 0001:00110460       ?GetNum@SPStaticStringArrayA@@QBEKXZ 00511460 f   sp_staticstringarray.obj
 0001:00110470       ?MakeTable@SPStaticStringArrayA@@ABEXXZ 00511470 f   sp_staticstringarray.obj
 0001:001105a0       ?GetSPStockCursor@@YAAAVSPStockCursor@@XZ 005115a0 f   sp_stockcursor.obj
 0001:001105f0       ??0SPStockCursor@@AAE@XZ   005115f0 f   sp_stockcursor.obj
 0001:001106c0       ?CreateSPStreamFilter@@YAPAVSPStreamFilter@@W4SPStreamFilter_Type@@HPAX@Z 005116c0 f   sp_streamfilter.obj
 0001:001107a0       ?ReadImpl@SPStreamFilterSocket@@UAEHPADH@Z 005117a0 f i sp_streamfilter.obj
 0001:001107d0       ?ReadLineImpl@SPStreamFilterSocket@@UAEPADAAJ@Z 005117d0 f i sp_streamfilter.obj
 0001:001107f0       ??_GSPStreamFilterSocket@@UAEPAXI@Z 005117f0 f i sp_streamfilter.obj
 0001:001107f0       ??_ESPStreamFilterSocket@@UAEPAXI@Z 005117f0 f i sp_streamfilter.obj
 0001:00110820       ??1SPStreamFilterSocket@@UAE@XZ 00511820 f i sp_streamfilter.obj
 0001:00110830       ?SetSourceFilter@SPStreamFilterGZip@@UAEHPAVSPStreamFilter@@@Z 00511830 f i sp_streamfilter.obj
 0001:00110830       ?SetSourceFilter@SPStreamFilterHttpChunk@@UAEHPAVSPStreamFilter@@@Z 00511830 f i sp_streamfilter.obj
 0001:00110870       ?ReadSize@SPStreamFilterHttpChunk@@UAEIXZ 00511870 f i sp_streamfilter.obj
 0001:001108a0       ?ReadImpl@SPStreamFilterHttpChunk@@UAEHPADH@Z 005118a0 f i sp_streamfilter.obj
 0001:00110a00       ??_GSPStreamFilterHttpChunk@@UAEPAXI@Z 00511a00 f i sp_streamfilter.obj
 0001:00110a00       ??_ESPStreamFilterHttpChunk@@UAEPAXI@Z 00511a00 f i sp_streamfilter.obj
 0001:00110a30       ??1SPStreamFilterHttpChunk@@UAE@XZ 00511a30 f i sp_streamfilter.obj
 0001:00110a90       ?ReadSize@SPStreamFilterGZip@@UAEIXZ 00511a90 f i sp_streamfilter.obj
 0001:00110ac0       ?ReadImpl@SPStreamFilterGZip@@UAEHPADH@Z 00511ac0 f i sp_streamfilter.obj
 0001:00110c60       ??_ESPStreamFilterGZip@@UAEPAXI@Z 00511c60 f i sp_streamfilter.obj
 0001:00110c60       ??_GSPStreamFilterGZip@@UAEPAXI@Z 00511c60 f i sp_streamfilter.obj
 0001:00110c90       ??1SPStreamFilterGZip@@UAE@XZ 00511c90 f i sp_streamfilter.obj
 0001:00110d00       ??1SPStreamFilter@@UAE@XZ  00511d00 f   sp_streamfilter.obj
 0001:00110d10       ?ReadSize@SPStreamFilter@@UAEIXZ 00511d10 f   sp_streamfilter.obj
 0001:00110d30       ?Read@SPStreamFilter@@QAEHPADH@Z 00511d30 f   sp_streamfilter.obj
 0001:00110d80       ?ReadLine@SPStreamFilter@@QAEPADAAJ@Z 00511d80 f   sp_streamfilter.obj
 0001:00110db0       ?Setup@SPSurfaceManager@@QAEXI@Z 00511db0 f   sp_surfacemanager.obj
 0001:00110de0       ?Release@SPSurfaceManager@@QAEXXZ 00511de0 f   sp_surfacemanager.obj
 0001:00110e30       ??1SPSurfaceManageInfo@@QAE@XZ 00511e30 f i sp_surfacemanager.obj
 0001:00110e30       ??1SPSurface@@QAE@XZ       00511e30 f i sp_surfacemanager.obj
 0001:00110e40       ?Load@SPSurfaceManager@@QAEPAVSPSurface@@PBDPAD@Z 00511e40 f   sp_surfacemanager.obj
 0001:00111390       ?Release@SPSurfaceTable@@QAEXXZ 00512390 f   sp_surfacetable.obj
 0001:001113e0       ?GetName@SPSurfaceTable@@QAEXAAVJWString@@@Z 005123e0 f   sp_surfacetable.obj
 0001:00111570       ?GetList@SPSurfaceTable@@QAEXAAV?$JPtrArray@PAVSPSurfaceTable@@@@@Z 00512570 f   sp_surfacetable.obj
 0001:00111690       ?AddIndice@SPSurfaceTable@@QAEXH@Z 00512690 f   sp_surfacetable.obj
 0001:001117a0       ?GetIndex@SPSurfaceTable@@QAEHPAG@Z 005127a0 f   sp_surfacetable.obj
 0001:001117f0       ?GetEntry@SPSurfaceTable@@QAEPAV1@PAG@Z 005127f0 f   sp_surfacetable.obj
 0001:001118d0       ?CreateEntry@SPSurfaceTable@@QAEPAV1@PAGH@Z 005128d0 f   sp_surfacetable.obj
 0001:00111b30       ?GetTextA@SPSurfaceTestData@@QAEXAAVJString@@@Z 00512b30 f   sp_surfacetest.obj
 0001:00111c30       ?Release@SPSurfaceTestManager@@QAEXXZ 00512c30 f   sp_surfacetest.obj
 0001:00111c90       ?Get@SPSurfaceTestManager@@QAEPAVSPSurfaceTestData@@J@Z 00512c90 f   sp_surfacetest.obj
 0001:00111cd0       ?Load@SPSurfaceTestManager@@QAEHPAD@Z 00512cd0 f   sp_surfacetest.obj
 0001:00112180       ?ProcessOption@SPSurfaceTestManager@@AAEXPAD@Z 00513180 f   sp_surfacetest.obj
 0001:001121b0       ??1SPSurfaceTestData@@QAE@XZ 005131b0 f i sp_surfacetest.obj
 0001:00112200       ?Release@SPSurface@@QAEXXZ 00513200 f   sp_surfc.obj
 0001:00112240       ?ReleaseSurfaceData@SPSurface@@AAEXXZ 00513240 f   sp_surfc.obj
 0001:001122a0       ?AdjustParameters@SPSurface@@QAEHPAVJSurface@@AAJ11111@Z 005132a0 f   sp_surfc.obj
 0001:001123c0       ?ConvertToGray@SPSurface@@AAEPAVJSurface@@PAV2@@Z 005133c0 f   sp_surfc.obj
 0001:00112510       ?IsLoadableFileHeader@SPSurface@@SIHPBD@Z 00513510 f   sp_surfc.obj
 0001:00112560       ?IsLoadableBuffer@SPSurface@@SIHPBX@Z 00513560 f   sp_surfc.obj
 0001:00112610       ?IsLoadableMIME@SPSurface@@SIHPBD@Z 00513610 f   sp_surfc.obj
 0001:00112690       ?IsLoadableExtension@SPSurface@@SIHPBD@Z 00513690 f   sp_surfc.obj
 0001:00112960       ?FindLoadableExtension@SPSurface@@SIHPBDAAVJString@@@Z 00513960 f   sp_surfc.obj
 0001:00112b10       ?CreateDummy@SPSurface@@QAEXKK_N@Z 00513b10 f   sp_surfc.obj
 0001:00112bb0       ?CreateSurfaceBuffer@SPSurface@@SI?AVSPCreateSurfaceStruct@@HPBXKH@Z 00513bb0 f   sp_surfc.obj
 0001:00112c40       ?CreateSurfaceBufferReal@SPSurface@@CI?AVSPCreateSurfaceStruct@@HPBXKH@Z 00513c40 f   sp_surfc.obj
 0001:00112e10       ??1JMemStream@@UAE@XZ      00513e10 f i sp_surfc.obj
 0001:00112e50       ?OpenW@JMemStream@@UAEHPBGH@Z 00513e50 f i sp_surfc.obj
 0001:00112e50       ?Open@JMemStream@@UAEHPBDH@Z 00513e50 f i sp_surfc.obj
 0001:00112e70       ?Close@JMemStream@@UAEXXZ  00513e70 f i sp_surfc.obj
 0001:00112ea0       ?Read@JMemStream@@UAEEXZ   00513ea0 f i sp_surfc.obj
 0001:00112ec0       ?Write@JMemStream@@UAEKE@Z 00513ec0 f i sp_surfc.obj
 0001:00112ef0       ??_EJMemStream@@UAEPAXI@Z  00513ef0 f i sp_surfc.obj
 0001:00112ef0       ??_GJMemStream@@UAEPAXI@Z  00513ef0 f i sp_surfc.obj
 0001:00112f20       ??1JGIF@@QAE@XZ            00513f20 f i sp_surfc.obj
 0001:00112f80       ?CreateSurface@SPSurface@@SI?AVSPCreateSurfaceStruct@@PBDAAVJString@@H@Z 00513f80 f   sp_surfc.obj
 0001:00113070       ?CreateSurfaceReal@SPSurface@@CI?AVSPCreateSurfaceStruct@@HPBDAAVJString@@H@Z 00514070 f   sp_surfc.obj
 0001:00113900       ?Create@SPSurface@@QAEHPBD_N11@Z 00514900 f   sp_surfc.obj
 0001:00113d00       ?CreateRegion@SPSurface@@AAEHXZ 00514d00 f   sp_surfc.obj
 0001:00113d40       ?CreateRegion8@SPSurface@@AAEHXZ 00514d40 f   sp_surfc.obj
 0001:00114380       ?CreateRegion32@SPSurface@@AAEHXZ 00515380 f   sp_surfc.obj
 0001:001149c0       ?GetRegionDirect@SPSurface@@AAEPAXJJ@Z 005159c0 f   sp_surfc.obj
 0001:00114a20       ?GetRegion@SPSurface@@QAEPAXHH@Z 00515a20 f   sp_surfc.obj
 0001:00114a70       ?CombineRegionOffset@SPSurface@@QAEXPAXHHH@Z 00515a70 f   sp_surfc.obj
 0001:00114b40       ?MakePointerTable@SPSurface@@AAEXXZ 00515b40 f   sp_surfc.obj
 0001:00114c00       ?CompressSurface32@SPSurface@@AAEHPAVJSurface@@@Z 00515c00 f   sp_surfc.obj
 0001:00114df0       ?CompressSurface32withAlpha@SPSurface@@AAEHPAVJSurface@@0@Z 00515df0 f   sp_surfc.obj
 0001:001150a0       ?CompressSurface8@SPSurface@@AAEHPAVJSurface@@@Z 005160a0 f   sp_surfc.obj
 0001:00115290       ?CompressSurface8withAlpha@SPSurface@@AAEHPAVJSurface@@0@Z 00516290 f   sp_surfc.obj
 0001:00115560       ?Copy32@SPSurface@@AAEHPAVJSurface@@JJJJJJ@Z 00516560 f   sp_surfc.obj
 0001:00115730       ?CopyKey32@SPSurface@@AAEHPAVJSurface@@JJJJJJ@Z 00516730 f   sp_surfc.obj
 0001:00115730       ?CopyKeyDestKeyMask32@SPSurface@@AAEHPAVJSurface@@JJJJJJ@Z 00516730 f   sp_surfc.obj
 0001:001158c0       ?CopyOpaque32@SPSurface@@AAEHPAVJSurface@@JJJJJJ@Z 005168c0 f   sp_surfc.obj
 0001:00115a90       ?Blend32@SPSurface@@AAEHPAVJSurface@@JJJJJJ@Z 00516a90 f   sp_surfc.obj
 0001:00115cd0       ?BlendAlphaChannel32@SPSurface@@AAEHPAVJSurface@@JJJJJJ@Z 00516cd0 f   sp_surfc.obj
 0001:00116000       ?BlendOverlay32@SPSurface@@AAEHPAVJSurface@@JJJJJJ@Z 00517000 f   sp_surfc.obj
 0001:00116370       ?BlendOverlayKeepDestAlpha32@SPSurface@@AAEHPAVJSurface@@JJJJJJ@Z 00517370 f   sp_surfc.obj
 0001:001166c0       ?Copy8@SPSurface@@AAEHPAVJSurface@@JJJJJJ@Z 005176c0 f   sp_surfc.obj
 0001:001168c0       ?CopyKey8@SPSurface@@AAEHPAVJSurface@@JJJJJJ@Z 005178c0 f   sp_surfc.obj
 0001:00116a90       ?CopyOpaque8@SPSurface@@AAEHPAVJSurface@@JJJJJJ@Z 00517a90 f   sp_surfc.obj
 0001:00116c70       ?Blend8@SPSurface@@AAEHPAVJSurface@@JJJJJJ@Z 00517c70 f   sp_surfc.obj
 0001:00116ef0       ?BlendAlphaChannel8@SPSurface@@AAEHPAVJSurface@@JJJJJJ@Z 00517ef0 f   sp_surfc.obj
 0001:00117230       ?BlendOverlay8@SPSurface@@AAEHPAVJSurface@@JJJJJJ@Z 00518230 f   sp_surfc.obj
 0001:001175b0       ?BlendOverlayKeepDestAlpha8@SPSurface@@AAEHPAVJSurface@@JJJJJJ@Z 005185b0 f   sp_surfc.obj
 0001:00117920       ?CopyKeyDestKeyMask8@SPSurface@@AAEHPAVJSurface@@JJJJJJ@Z 00518920 f   sp_surfc.obj
 0001:00117b20       ?GetSPSysFunc@@YIAAVSPSysFunc@@XZ 00518b20 f   sp_sysfunc.obj
 0001:00117b70       ??0SPSysFunc@@QAE@XZ       00518b70 f   sp_sysfunc.obj
 0001:00117d20       ??1SPSysFunc@@QAE@XZ       00518d20 f   sp_sysfunc.obj
 0001:00117e30       ?TrackMouseEvent@SPSysFunc@@QAEHKPAUHWND__@@@Z 00518e30 f   sp_sysfunc.obj
 0001:00117e70       ?GetSystemPowerStatus@SPSysFunc@@QAEHPAU_SYSTEM_POWER_STATUS@@@Z 00518e70 f   sp_sysfunc.obj
 0001:00117e90       ?IsScreenSaverRunning@SPSysFunc@@QAE_NXZ 00518e90 f   sp_sysfunc.obj
 0001:00117ff0       ?GetWorkRect@SPSysFunc@@QAEXPAUHWND__@@AAUtagRECT@@@Z 00518ff0 f   sp_sysfunc.obj
 0001:00118060       ?GetWorkRectPrimary@SPSysFunc@@QAEXAAUtagRECT@@@Z 00519060 f   sp_sysfunc.obj
 0001:001180b0       ?GetWorkRectFromPt@SPSysFunc@@QAEXAAUtagPOINT@@AAUtagRECT@@@Z 005190b0 f   sp_sysfunc.obj
 0001:00118210       ?UpdateMonitorsWorkRect@SPSysFunc@@QAE_NXZ 00519210 f   sp_sysfunc.obj
 0001:00118690       ?IsNot_IntersectWorkRect@SPSysFunc@@QAE?AW4SPSysFuncWorkRectResult@@ABUtagRECT@@@Z 00519690 f   sp_sysfunc.obj
 0001:00118810       ?IsNot_AllInWorkRect@SPSysFunc@@QAE?AW4SPSysFuncWorkRectResult@@ABUtagRECT@@@Z 00519810 f   sp_sysfunc.obj
 0001:00118940       ?Size@?$JArray@VJRect@@@@QBEKXZ 00519940 f i sp_sysfunc.obj
 0001:00118960       ??4?$JArray@VJRect@@@@QAEAAV0@ABV0@@Z 00519960 f i sp_sysfunc.obj
 0001:00118a70       ?Copy@?$JArray@VJRect@@@@QAE_NPBVJRect@@K@Z 00519a70 f i sp_sysfunc.obj
 0001:00118b70       ?GetSPSystemInfo@@YAAAVSPSystemInfo@@XZ 00519b70 f   sp_sysinfo.obj
 0001:00118bc0       ?GetSpecialVersionString@SPSystemInfo@@QAEPBDXZ 00519bc0 f   sp_sysinfo.obj
 0001:00118bd0       ??0SPSystemInfo@@QAE@XZ    00519bd0 f   sp_sysinfo.obj
 0001:00119710       ?GetBootMinutes@SPSystemInfo@@QAEKXZ 0051a710 f   sp_sysinfo.obj
 0001:00119750       ?GetCPUClock@SPSystemInfo@@QAEKXZ 0051a750 f   sp_sysinfo.obj
 0001:001198c0       ?OnSystemSettingChange@SPSystemInfo@@QAEXI@Z 0051a8c0 f   sp_sysinfo.obj
 0001:001198e0       ?IsHT@SPSystemInfo@@QAEHXZ 0051a8e0 f   sp_sysinfo.obj
 0001:00119900       ?GetMemoryStatus@SPSystemInfo@@QAEXAAUSPMemoryStatus@@@Z 0051a900 f   sp_sysinfo.obj
 0001:00119a00       ?CreateVersionString@SPSystemInfo@@AAEXAAU_OSVERSIONINFOEXA@@@Z 0051aa00 f   sp_sysinfo.obj
 0001:0011a060       ?SPTaskDialogSupported@@YA_NXZ 0051b060 f   sp_taskdialog.obj
 0001:0011a0c0       ?SPTaskDialogIndirectX@@YAJPBU_TASKDIALOGCONFIG@@PAH11@Z 0051b0c0 f   sp_taskdialog.obj
 0001:0011a100       ?GetSPTimeClient@@YAAAVSPTimeClient@@XZ 0051b100 f   sp_time.obj
 0001:0011a150       ??0SPTimeClient@@QAE@XZ    0051b150 f   sp_time.obj
 0001:0011a390       ??_ESPTimeClient@@UAEPAXI@Z 0051b390 f i sp_time.obj
 0001:0011a390       ??_GSPTimeClient@@UAEPAXI@Z 0051b390 f i sp_time.obj
 0001:0011a3c0       ??1SPTimeClient@@UAE@XZ    0051b3c0 f   sp_time.obj
 0001:0011a610       ?LoadSetting@SPTimeClient@@QAEHPAD@Z 0051b610 f   sp_time.obj
 0001:0011a960       ?Release@SPTimeClient@@QAEXXZ 0051b960 f   sp_time.obj
 0001:0011aa00       ?SPCNotify@SPTimeClient@@UAE_NKPAPAXK@Z 0051ba00 f   sp_time.obj
 0001:0011aa30       ?GetServerNum@SPTimeClient@@QAEKH@Z 0051ba30 f   sp_time.obj
 0001:0011aa50       ?GetServer@SPTimeClient@@QAEPAVSPTimeClientData@@HK@Z 0051ba50 f   sp_time.obj
 0001:0011aa80       ?GetServerRandom@SPTimeClient@@QAEPADH@Z 0051ba80 f   sp_time.obj
 0001:0011ac20       ?Connect@SPTimeClient@@QAEHPAVSPGhost@@H@Z 0051bc20 f   sp_time.obj
 0001:0011ac90       ?ThreadProc@SPTimeClient@@AAEHXZ 0051bc90 f   sp_time.obj
 0001:0011ace0       ?ThreadProcHTTP@SPTimeClient@@AAEHXZ 0051bce0 f   sp_time.obj
 0001:0011b290       ?ExecuteSNTPProc@SPTimeClient@@AAEHPADHAA_JAA_K_N@Z 0051c290 f   sp_time.obj
 0001:0011b5a0       ?ThreadProcSNTP@SPTimeClient@@AAEHXZ 0051c5a0 f   sp_time.obj
 0001:0011b820       ?RecvProc@SPTimeClient@@AAEHXZ 0051c820 f   sp_time.obj
 0001:0011ba80       ?GetDiffSecond@SPTimeClient@@QAEHXZ 0051ca80 f   sp_time.obj
 0001:0011baa0       ?ExecuteCorrect@SPTimeClient@@QAEHPAVSPGhost@@@Z 0051caa0 f   sp_time.obj
 0001:0011bc60       ?ExecuteCorrectEvent@SPTimeClient@@QAEXPAVSPGhost@@ABU_SYSTEMTIME@@@Z 0051cc60 f   sp_time.obj
 0001:0011bdb0       ?Close@SPTimeClient@@QAEXXZ 0051cdb0 f   sp_time.obj
 0001:0011bdd0       ?OnFailed@SPTimeClient@@AAEXXZ 0051cdd0 f   sp_time.obj
 0001:0011be50       ?OnBegin@SPTimeClient@@AAEXXZ 0051ce50 f   sp_time.obj
 0001:0011bfb0       ??1SPTimeClientData@@QAE@XZ 0051cfb0 f i sp_time.obj
 0001:0011c000       ?Release@SPTiming@@QAEXXZ  0051d000 f   sp_timing.obj
 0001:0011c060       ?LoadTiming@SPTiming@@QAEHPADJJJJJ@Z 0051d060 f   sp_timing.obj
 0001:0011c4a0       ??1SPTimingEntry@@QAE@XZ   0051d4a0 f i sp_timing.obj
 0001:0011c4b0       ?HasTimeCome@SPTiming@@QAEPBGJJJJJ@Z 0051d4b0 f   sp_timing.obj
 0001:0011c540       ?_Sort@std@@YAXPAPAVSPTimingEntry@@0U?$JArray_PredConverter@PAVSPTimingEntry@@P6AHPAV1@0@Z@@0@Z 0051d540 f i sp_timing.obj
 0001:0011c680       ?_Median@std@@YAPAVSPTimingEntry@@PAV2@00U?$JArray_PredConverter@PAVSPTimingEntry@@P6AHPAV1@0@Z@@@Z 0051d680 f i sp_timing.obj
 0001:0011c6f0       ?MakeFilePath@SPUpdateEntry@@AAEHPADAAVJString@@H@Z 0051d6f0 f   sp_update.obj
 0001:0011c8a0       ?CreateNotifyName@SPUpdateEntry@@QAEXAAVJWString@@@Z 0051d8a0 f   sp_update.obj
 0001:0011c8e0       ?Compare@SPUpdateEntry@@QAEHAAV1@@Z 0051d8e0 f   sp_update.obj
 0001:0011c9a0       ?IsFileExist@SPUpdateEntry@@QAEHPADH@Z 0051d9a0 f   sp_update.obj
 0001:0011cab0       ?IsUpdate@SPUpdateEntry@@QAEHPADHH@Z 0051dab0 f   sp_update.obj
 0001:0011ccc0       ?IsFileValid@SPUpdateEntry@@QAEHAAVJWString@@0@Z 0051dcc0 f   sp_update.obj
 0001:0011ce90       ?CreateCRLFConvertFile@SPUpdateEntry@@AAE_NAAVJWString@@@Z 0051de90 f   sp_update.obj
 0001:0011d220       ??1SPUpdate@@UAE@XZ        0051e220 f   sp_update.obj
 0001:0011d4b0       ?DeleteEntryAll@SPUpdate@@AAEXXZ 0051e4b0 f   sp_update.obj
 0001:0011d4d0       ?Release@SPUpdate@@QAEXXZ  0051e4d0 f   sp_update.obj
 0001:0011d6e0       ?LoadUpdateData@SPUpdate@@AAEHAAV?$JPtrArray@PAVSPUpdateEntry@@@@PADH@Z 0051e6e0 f   sp_update.obj
 0001:0011d720       ?LoadUpdateDataOld@SPUpdate@@AAEHAAV?$JPtrArray@PAVSPUpdateEntry@@@@PAD@Z 0051e720 f   sp_update.obj
 0001:0011dac0       ??0SPUpdateEntry@@QAE@XZ   0051eac0 f i sp_update.obj
 0001:0011dc60       ?Clear@SPUpdateEntry@@QAEXXZ 0051ec60 f i sp_update.obj
 0001:0011de60       ?LoadUpdateDataNew@SPUpdate@@AAEHAAV?$JPtrArray@PAVSPUpdateEntry@@@@PADH@Z 0051ee60 f   sp_update.obj
 0001:0011e300       ?CheckUpdate@SPUpdate@@AAEXAAV?$JPtrArray@PAVSPUpdateEntry@@@@0_N@Z 0051f300 f   sp_update.obj
 0001:0011e640       ?UpdateUrl@SPUpdate@@QAEHPAVSPCmdListener@@PAD11HHH@Z 0051f640 f   sp_update.obj
 0001:0011e7c0       ?UpdateGhost@SPUpdate@@QAEHPADPAVSPGhost@@HHH@Z 0051f7c0 f   sp_update.obj
 0001:0011ea20       ??_GSPUpdateListenerCheckOnly@@UAEPAXI@Z 0051fa20 f i sp_update.obj
 0001:0011ea20       ??_ESPUpdateListenerCheckOnly@@UAEPAXI@Z 0051fa20 f i sp_update.obj
 0001:0011ea50       ??1SPUpdateListenerCheckOnly@@UAE@XZ 0051fa50 f i sp_update.obj
 0001:0011eae0       ?UpdateExec@SPUpdate@@AAEHH@Z 0051fae0 f   sp_update.obj
 0001:0011ece0       ?SPCNotify@SPUpdate@@UAE_NKPAPAXK@Z 0051fce0 f   sp_update.obj
 0001:0011ed10       ?Connect@SPUpdate@@AAEHXZ  0051fd10 f   sp_update.obj
 0001:0011ed60       ?NotConnectError@SPUpdate@@AAEXXZ 0051fd60 f   sp_update.obj
 0001:0011eda0       ?ErrorEvent@SPUpdate@@AAEXPAG0H0@Z 0051fda0 f   sp_update.obj
 0001:0011ee50       ?MakeFileAndUrl@SPUpdate@@AAEPADHAAVJString@@0@Z 0051fe50 f   sp_update.obj
 0001:0011eef0       ?UpdateProc@SPUpdate@@QAEHXZ 0051fef0 f   sp_update.obj
 0001:0011f420       ?UpdateProcTSVN@SPUpdate@@AAEHXZ 00520420 f   sp_update.obj
 0001:0011f560       ?UpdateProcReal@SPUpdate@@AAEHXZ 00520560 f   sp_update.obj
 0001:001210f0       ?ReloadGhostData@SPUpdate@@AAEXXZ 005220f0 f   sp_update.obj
 0001:001211b0       ?DeleteTempFiles@SPUpdate@@AAEXXZ 005221b0 f   sp_update.obj
 0001:001211f0       ?ReplaceFiles@SPUpdate@@AAEHXZ 005221f0 f   sp_update.obj
 0001:00121350       ?ExtractArchiveAndReplace@SPUpdate@@AAEHAAVJString@@0H@Z 00522350 f   sp_update.obj
 0001:001213c0       ?SPUpdate_CreateUpdateProfile@@YIXPAVSPMultiFile@@PAVSPGhost@@@Z 005223c0 f   sp_update.obj
 0001:00122170       ?SPUpdate_CreateNar@@YIXPAVSPMultiFile@@PAVSPGhost@@@Z 00523170 f   sp_update.obj
 0001:00123480       ?SPUpdate_ExecBothTool@@YIXPAVSPMultiFile@@PAVSPGhost@@@Z 00524480 f   sp_update.obj
 0001:00123560       ??0?$SPCacheObj@VSPUpdateEntry@@VJCriticalSection@@VJLock@@@@QAE@K@Z 00524560 f i sp_update.obj
 0001:001235c0       ??1?$SPCacheObj@VSPUpdateEntry@@VJCriticalSection@@VJLock@@@@QAE@XZ 005245c0 f i sp_update.obj
 0001:001236b0       ?Delete@?$SPCacheObj@VSPUpdateEntry@@VJCriticalSection@@VJLock@@@@QAEXPAVSPUpdateEntry@@@Z 005246b0 f i sp_update.obj
 0001:00123840       ?DeleteArray@?$SPCacheObj@VSPUpdateEntry@@VJCriticalSection@@VJLock@@@@QAEXAAV?$JPtrArray@PAVSPUpdateEntry@@@@@Z 00524840 f i sp_update.obj
 0001:001239a0       ??1SPUpdateEntry@@QAE@XZ   005249a0 f i sp_update.obj
 0001:00123a20       ?DeleteArray@?$SPCacheObj@VSPUpdateEntry@@VJCriticalSection@@VJLock@@@@QAEXPAPAVSPUpdateEntry@@K@Z 00524a20 f i sp_update.obj
 0001:00123c80       ?SPUpdateCheck@@YAXPAVSPGhost@@_N@Z 00524c80 f   sp_updatecheck.obj
 0001:00124c40       ??YJString@@QAEAAV0@ABV0@@Z 00525c40 f i sp_updatecheck.obj
 0001:00124c60       ?ToText@TiXmlHandle@@QBEPAVTiXmlText@@XZ 00525c60 f i sp_updatecheck.obj
 0001:00124d20       ?SPCNotify@SPUpdateListener@@UAE_NKPAPAXK@Z 00525d20 f   sp_updatelistener.obj
 0001:001251b0       ?SPCNotify_UpdateDL@SPUpdateListener@@AAEXPAPAXH@Z 005261b0 f   sp_updatelistener.obj
 0001:001253a0       ?SPCNotify_UpdateMD5@SPUpdateListener@@AAEXPAPAXH@Z 005263a0 f   sp_updatelistener.obj
 0001:00125620       ?SPCNotify@SPUpdateListenerCheckOnly@@UAE_NKPAPAXK@Z 00526620 f   sp_updatelistener.obj
 0001:001257b0       ?GetSPURLTranslate@@YAAAVSPURLTranslate@@XZ 005267b0 f   sp_urltranslate.obj
 0001:00125800       ??0SPURLTranslate@@AAE@XZ  00526800 f   sp_urltranslate.obj
 0001:00125800       ??0SPCompatibleWord@@QAE@XZ 00526800 f   sp_urltranslate.obj
 0001:00125800       ??0SPSerikoToolTips@@QAE@XZ 00526800 f   sp_urltranslate.obj
 0001:00125810       ??1SPURLTranslate@@QAE@XZ  00526810 f   sp_urltranslate.obj
 0001:001258c0       ?Init@SPURLTranslate@@QAE_NPBD@Z 005268c0 f   sp_urltranslate.obj
 0001:00125b30       ??1SPURLTranslateData@@QAE@XZ 00526b30 f i sp_urltranslate.obj
 0001:00125b80       ?Translate@SPURLTranslate@@QAE_NAAVJWString@@@Z 00526b80 f   sp_urltranslate.obj
 0001:00125c90       ?Translate@SPURLTranslate@@QAE_NAAVJString@@@Z 00526c90 f   sp_urltranslate.obj
 0001:00125ce0       ?_Sort@std@@YAXPAPAVSPURLTranslateData@@0U?$JArray_PointerPred@PAVSPURLTranslateData@@@@0@Z 00526ce0 f i sp_urltranslate.obj
 0001:00125e00       ?_Unguarded_insert@std@@YAXPAPAVSPURLTranslateData@@PAV2@U?$JArray_PointerPred@PAVSPURLTranslateData@@@@@Z 00526e00 f i sp_urltranslate.obj
 0001:00125e40       ?_Insertion_sort_1@std@@YAXPAPAVSPURLTranslateData@@0U?$JArray_PointerPred@PAVSPURLTranslateData@@@@0@Z 00526e40 f i sp_urltranslate.obj
 0001:00125ee0       ?CompareDevice@SPDeviceInfo@@QAE_NABV1@@Z 00526ee0 f   sp_utils.obj
 0001:00125fc0       ?StealthWindowShow@SPUtils@@SIXPAUHWND__@@H@Z 00526fc0 f   sp_utils.obj
 0001:00126010       ?GetLocalObjectName@SPUtils@@SIPBDPBD@Z 00527010 f   sp_utils.obj
 0001:00126060       ?GetRelativePath@SPUtils@@SIPBDPBDJ@Z 00527060 f   sp_utils.obj
 0001:00126100       ?GetRelativePath@SPUtils@@SIPBDABVJString@@@Z 00527100 f   sp_utils.obj
 0001:00126110       ?IsRelativePath@SPUtils@@SI_NPBD@Z 00527110 f   sp_utils.obj
 0001:00126180       ?MakeAbsolutePath@SPUtils@@SI_NAAVJString@@ABV2@_N@Z 00527180 f   sp_utils.obj
 0001:001265f0       ?GetSpecialFolderPathFromText@SPUtils@@SI_NPBGAAVJWString@@@Z 005275f0 f   sp_utils.obj
 0001:001266b0       ?GetSpecialFolderPath@SPUtils@@SI_NHAAVJWString@@@Z 005276b0 f   sp_utils.obj
 0001:00126c20       ??0SPDynLoad@@QAE@PBD@Z    00527c20 f i sp_utils.obj
 0001:00126cf0       ?ShellExecuteCheck@SPUtils@@SI_NPBD00H_N@Z 00527cf0 f   sp_utils.obj
 0001:00126e00       ?SplitTokenA@SPUtils@@SIKPADAAV?$JPtrArray@PAD@@PBD_N@Z 00527e00 f   sp_utils.obj
 0001:00126fd0       ?SplitTokenA@SPUtils@@SIKPADPAPADKPBD_N@Z 00527fd0 f   sp_utils.obj
 0001:00127080       ?SplitTokenW@SPUtils@@SIKPAGAAV?$JPtrArray@PAG@@PBG_N@Z 00528080 f   sp_utils.obj
 0001:001271b0       ?SplitTokenW@SPUtils@@SIKPAGPAPAGKPBG_N@Z 005281b0 f   sp_utils.obj
 0001:00127250       ?IsOnlineURL@SPUtils@@SIIPBG@Z 00528250 f   sp_utils.obj
 0001:00127260       ?IsAcceptableURL@SPUtils@@SIIPBGI@Z 00528260 f   sp_utils.obj
 0001:00127340       ?IsAcceptableURL@SPUtils@@SIIPBDI@Z 00528340 f   sp_utils.obj
 0001:001273f0       ?JoinURL@SPUtils@@SI_NAAVJString@@W4SPHttp_Type@@PBD22@Z 005283f0 f   sp_utils.obj
 0001:00127550       ?JoinURL@SPUtils@@SI_NAAVJWString@@W4SPHttp_Type@@PBG22@Z 00528550 f   sp_utils.obj
 0001:001276b0       ?CrackURL@SPUtils@@SI?AW4SPHttp_Type@@PBDPAVJString@@111@Z 005286b0 f   sp_utils.obj
 0001:00127850       ?CrackURL@SPUtils@@SI?AW4SPHttp_Type@@PBGPAVJString@@111@Z 00528850 f   sp_utils.obj
 0001:00127f90       ?GetFriendlyDeviceInfo@SPUtils@@SI_NABU_GUID@@PBDAAVSPDeviceInfo@@@Z 00528f90 f   sp_utils.obj
 0001:00128380       ?GetTortoiseProcPath@SPUtils@@SIHPAVJString@@@Z 00529380 f   sp_utils.obj
 0001:00128420       ?IsSVNEnabledDirectory@SPUtils@@SIHPBD@Z 00529420 f   sp_utils.obj
 0001:00128570       ?ExecuteSVNCommand@SPUtils@@SIHPBD0H@Z 00529570 f   sp_utils.obj
 0001:00128850       ?CreateProcessWrapper@SPUtils@@SIHPBD0K_N@Z 00529850 f   sp_utils.obj
 0001:00128a50       ?PumpMessageWaitObject@SPUtils@@SIHPAXI@Z 00529a50 f   sp_utils.obj
 0001:00128b90       ?IsNumberW@SPUtils@@SIHPBG0@Z 00529b90 f   sp_utils.obj
 0001:00128be0       ?IsNumberA@SPUtils@@SIHPBD0@Z 00529be0 f   sp_utils.obj
 0001:00128c80       ?x509GTToFileTime@SPUtils@@SIHPBDAAU_FILETIME@@@Z 00529c80 f   sp_utils.obj
 0001:00128ca0       ?ISO8601ToFileTime@SPUtils@@SIHPBDAAU_FILETIME@@@Z 00529ca0 f   sp_utils.obj
 0001:00128f90       ?GetSystemSeconds@SPUtils@@SIKXZ 00529f90 f   sp_utils.obj
 0001:00128fe0       ?ConvertLocalSystemTimeToSystemSeconds@SPUtils@@SIKAAU_SYSTEMTIME@@@Z 00529fe0 f   sp_utils.obj
 0001:00129010       ?ConvertSystemSecondsToLocalSystemTime@SPUtils@@SIXKAAU_SYSTEMTIME@@@Z 0052a010 f   sp_utils.obj
 0001:00129060       ?ConvertFileTimeToSystemSeconds@SPUtils@@SIKAAU_FILETIME@@@Z 0052a060 f   sp_utils.obj
 0001:001290a0       ?ConvertSystemSecondsToFileTime@SPUtils@@SIXKAAU_FILETIME@@@Z 0052a0a0 f   sp_utils.obj
 0001:001290d0       ?ConvertURLToFile@SPUtils@@SI_NPBDAAVJString@@@Z 0052a0d0 f   sp_utils.obj
 0001:00129230       ?IsNeedlessFileName@SPUtils@@SIHPBD@Z 0052a230 f   sp_utils.obj
 0001:00129370       ?IsNeedlessDirName@SPUtils@@SIHPBD@Z 0052a370 f   sp_utils.obj
 0001:00129390       ?DecodeBase64@SPUtils@@SIXPBDAAVJString@@@Z 0052a390 f   sp_utils.obj
 0001:00129460       ?DecodeBase64@SPUtils@@SIXPBDAAV?$JArray@D@@@Z 0052a460 f   sp_utils.obj
 0001:00129680       ?EncodeBase64@SPUtils@@SIXPBDAAVJString@@@Z 0052a680 f   sp_utils.obj
 0001:001296a0       ?EncodeBase64@SPUtils@@SIXPBDKAAVJString@@@Z 0052a6a0 f   sp_utils.obj
 0001:00129820       ?DecodePercent@SPUtils@@SIXPBDAAVJString@@@Z 0052a820 f   sp_utils.obj
 0001:001298f0       ?DecodePercent@SPUtils@@SIXPBDAAV?$JArray@D@@@Z 0052a8f0 f   sp_utils.obj
 0001:00129b50       ?EncodePercent@SPUtils@@SIXPBDAAVJString@@0_N@Z 0052ab50 f   sp_utils.obj
 0001:00129b80       ?EncodePercent@SPUtils@@SIXPBDKAAVJString@@0_N@Z 0052ab80 f   sp_utils.obj
 0001:00129dd0       ?IsPercentEncoded@SPUtils@@SI_NPBD0_N@Z 0052add0 f   sp_utils.obj
 0001:00129e40       ?EscapeScriptW@SPUtils@@SIXAAVJWString@@@Z 0052ae40 f   sp_utils.obj
 0001:00129e60       ?EscapeTagOnlyW@SPUtils@@SIXAAVJWString@@@Z 0052ae60 f   sp_utils.obj
 0001:00129e90       ?CleanupFilenameA@SPUtils@@SIXAAVJString@@@Z 0052ae90 f   sp_utils.obj
 0001:00129f10       ?CleanupFilenameW@SPUtils@@SIXAAVJWString@@@Z 0052af10 f   sp_utils.obj
 0001:00129f70       ?HTTPToFileTime@SPUtils@@SIHPBDAAU_FILETIME@@@Z 0052af70 f   sp_utils.obj
 0001:00129fa0       ?HTTPToSystemTime@SPUtils@@SIHPBDAAU_SYSTEMTIME@@@Z 0052afa0 f   sp_utils.obj
 0001:0012a440       ?FileTimeToHTTP@SPUtils@@SIPBDABU_FILETIME@@@Z 0052b440 f   sp_utils.obj
 0001:0012a470       ?SystemTimeToHTTP@SPUtils@@SIPBDABU_SYSTEMTIME@@@Z 0052b470 f   sp_utils.obj
 0001:0012a4d0       ?SystemTimeToCommaSeparatedTime@SPUtils@@SIPBDABU_SYSTEMTIME@@@Z 0052b4d0 f   sp_utils.obj
 0001:0012a520       ?SystemTimeToShortDateTime@SPUtils@@SIPBDABU_SYSTEMTIME@@@Z 0052b520 f   sp_utils.obj
 0001:0012a580       ?GUIDToStringW@SPUtils@@SIPBGAAU_GUID@@@Z 0052b580 f   sp_utils.obj
 0001:0012a5f0       ?DeleteExtension@SPUtils@@SIXAAVJString@@@Z 0052b5f0 f   sp_utils.obj
 0001:0012a630       ?IsExtensionExist@SPUtils@@SI_NPBD@Z 0052b630 f   sp_utils.obj
 0001:0012a660       ?IsValidFolderExist@SPUtils@@SI_NPBD@Z 0052b660 f   sp_utils.obj
 0001:0012a820       ?MoveFileA@SPUtils@@SI_NPBD0H@Z 0052b820 f   sp_utils.obj
 0001:0012a8f0       ?DigFolder@SPUtils@@SI_NPBD@Z 0052b8f0 f   sp_utils.obj
 0001:0012aa80       ?DelRegTree@SPUtils@@SA_NPAUHKEY__@@PBD@Z 0052ba80 f   sp_utils.obj
 0001:0012ab80       ?DelDirTree@SPUtils@@SA_NPADPAV?$JPtrArray@PAG@@HK@Z 0052bb80 f   sp_utils.obj
 0001:0012ae60       ?IsKeyDown@SPUtils@@SI_NH@Z 0052be60 f   sp_utils.obj
 0001:0012ae90       ?GetTextExt@SPUtils@@SI?AUtagSIZE@@PAUHDC__@@PBGK@Z 0052be90 f   sp_utils.obj
 0001:0012aef0       ?GetTextExt@SPUtils@@SI?AUtagSIZE@@PAUHDC__@@PBDK@Z 0052bef0 f   sp_utils.obj
 0001:0012af50       ?GetTextExtFont@SPUtils@@SI?AUtagSIZE@@PAUHFONT__@@PBGK@Z 0052bf50 f   sp_utils.obj
 0001:0012afb0       ?TextOutA@SPUtils@@SI_NPAUHDC__@@JJPBGK@Z 0052bfb0 f   sp_utils.obj
 0001:0012b020       ?TextOutA@SPUtils@@SI_NPAUHDC__@@JJPBDK@Z 0052c020 f   sp_utils.obj
 0001:0012b090       ?ExtTextOutA@SPUtils@@SI_NPAUHDC__@@JJIPBUtagRECT@@PBGKPBH@Z 0052c090 f   sp_utils.obj
 0001:0012b130       ?ExtTextOutA@SPUtils@@SI_NPAUHDC__@@JJIPBUtagRECT@@PBDKPBH@Z 0052c130 f   sp_utils.obj
 0001:0012b1d0       ?ExpandEnvStr@SPUtils@@SI_NAAVJString@@@Z 0052c1d0 f   sp_utils.obj
 0001:0012b2f0       ?Release@SPVanish@@QAEXXZ  0052c2f0 f   sp_vanish.obj
 0001:0012b340       ?Load@SPVanish@@QAEHPAD@Z  0052c340 f   sp_vanish.obj
 0001:0012b380       ?LoadOverride@SPVanish@@QAEHPAD@Z 0052c380 f   sp_vanish.obj
 0001:0012b660       ?Save@SPVanish@@QAEHXZ     0052c660 f   sp_vanish.obj
 0001:0012b8b0       ?Add@SPVanish@@QAEXPAVSPGhost@@@Z 0052c8b0 f   sp_vanish.obj
 0001:0012bb50       ?Get@SPVanish@@QAEJPAVSPGhost@@@Z 0052cb50 f   sp_vanish.obj
 0001:0012bc50       ?GetCount@SPVanish@@QAEIPAVSPGhost@@@Z 0052cc50 f   sp_vanish.obj
 0001:0012bc80       ??1SPVanishData@@QAE@XZ    0052cc80 f i sp_vanish.obj
 0001:0012bcf0       ?GetSPVarSystemDispatcher@@YAAAVSPVarSystemDispatcher@@XZ 0052ccf0 f   sp_varsystemdispatcher.obj
 0001:0012bd00       ?FindFromName@SPVarSystemDispatcher@@AAE?AVSPVarSystemDispatcherFindResult@@PAVSPGhost@@PAG@Z 0052cd00 f   sp_varsystemdispatcher.obj
 0001:0012c320       ?wcsihead_equal_move_opt_impl2@@YA_NAAPBGPBGI@Z 0052d320 f i sp_varsystemdispatcher.obj
 0001:0012c320       ?wcsihead_equal_move_opt_impl@@YA_NAAPAGPBGI@Z 0052d320 f i sp_varsystemdispatcher.obj
 0001:0012c350       ??_GSPSystemNode@@UAEPAXI@Z 0052d350 f i sp_varsystemdispatcher.obj
 0001:0012c350       ??_ESPSystemNode@@UAEPAXI@Z 0052d350 f i sp_varsystemdispatcher.obj
 0001:0012c390       ?Get@SPVarSystemDispatcher@@QAE_NPAVSPGhost@@PAGAAVJWString@@@Z 0052d390 f   sp_varsystemdispatcher.obj
 0001:0012c500       ?Set@SPVarSystemDispatcher@@QAE_NPAVSPGhost@@PAG1@Z 0052d500 f   sp_varsystemdispatcher.obj
 0001:0012c5c0       ?VarGet@SPSystemNode@@UAE_NPAVSPGhost@@PAGAAVJWString@@PAVSPVarSystemNode@@@Z 0052d5c0 f   sp_varsystemdispatcher.obj
 0001:0012c7e0       ?GetIndex@SPPropListNode@@AAE?AVSPVarSystemDispatcherFindResult@@PAG0@Z 0052d7e0 f   sp_varsystemdispatcher.obj
 0001:0012c9d0       ?FindNode@SPPropListNode@@QAE?AVSPVarSystemDispatcherFindResult@@PAG@Z 0052d9d0 f   sp_varsystemdispatcher.obj
 0001:0012ca10       ?VarGet@SPPropListNode@@UAE_NPAVSPGhost@@PAGAAVJWString@@PAVSPVarSystemNode@@@Z 0052da10 f   sp_varsystemdispatcher.obj
 0001:0012cac0       ?VarSet@SPPropListNode@@UAE_NPAVSPGhost@@PAG1PAVSPVarSystemNode@@@Z 0052dac0 f   sp_varsystemdispatcher.obj
 0001:0012cb10       ?VarSet@SPHistory@@UAE_NPAVSPGhost@@PAG1PAVSPVarSystemNode@@@Z 0052db10 f   sp_varsystemnode.obj
 0001:0012cb10       ?VarSet@SPProp@@UAE_NPAVSPGhost@@PAG1PAVSPVarSystemNode@@@Z 0052db10 f   sp_varsystemnode.obj
 0001:0012cb10       ?VarSet@SPSystemNode@@UAE_NPAVSPGhost@@PAG1PAVSPVarSystemNode@@@Z 0052db10 f   sp_varsystemnode.obj
 0001:0012cb10       ?VarSet@SPVarSystemNode@@UAE_NPAVSPGhost@@PAG1PAV1@@Z 0052db10 f   sp_varsystemnode.obj
 0001:0012cb10       ?VarSet@SPGhostTime@@UAE_NPAVSPGhost@@PAG1PAVSPVarSystemNode@@@Z 0052db10 f   sp_varsystemnode.obj
 0001:0012cb10       ?VarGet@SPVarSystemNode@@UAE_NPAVSPGhost@@PAGAAVJWString@@PAV1@@Z 0052db10 f   sp_varsystemnode.obj
 0001:0012cb20       ?ParseIndex@SPVarSystemNode@@SA_NPBGAAJ@Z 0052db20 f   sp_varsystemnode.obj
 0001:0012cbe0       ?Release@SPVersionInfo@@QAEXXZ 0052dbe0 f   sp_versioninfo.obj
 0001:0012cc00       ?Open@SPVersionInfo@@QAEHPAD@Z 0052dc00 f   sp_versioninfo.obj
 0001:0012cca0       ?FileInfo@SPVersionInfo@@QAEPAUtagVS_FIXEDFILEINFO@@XZ 0052dca0 f   sp_versioninfo.obj
 0001:0012cce0       ?GetEntry@SPVersionInfo@@QAEPADPAD@Z 0052dce0 f   sp_versioninfo.obj
 0001:0012ce30       ?GetSPVistaExtend@@YAAAVSPVistaExtend@@XZ 0052de30 f   sp_vistaextend.obj
 0001:0012ce80       ??0SPVistaExtend@@QAE@XZ   0052de80 f   sp_vistaextend.obj
 0001:0012cf20       ??1SPVistaExtend@@QAE@XZ   0052df20 f   sp_vistaextend.obj
 0001:0012cf30       ?Init@SPVistaExtend@@QAEXXZ 0052df30 f   sp_vistaextend.obj
 0001:0012cf50       ?Release@SPVistaExtend@@QAEXXZ 0052df50 f   sp_vistaextend.obj
 0001:0012cf80       ?GetDWM@SPVistaExtend@@AAEPAVSPDynLoad@@XZ 0052df80 f   sp_vistaextend.obj
 0001:0012d060       ?GetVCOM@SPVistaExtend@@AAEPAVSPDynLoad@@XZ 0052e060 f   sp_vistaextend.obj
 0001:0012d180       ?SetAppID@SPVistaExtend@@QAE_NPBG@Z 0052e180 f   sp_vistaextend.obj
 0001:0012d2b0       ?DwmSetFlip3DExclude@SPVistaExtend@@QAE_NPAUHWND__@@_N@Z 0052e2b0 f   sp_vistaextend.obj
 0001:0012d2f0       ?CreateJumpList@SPVistaExtend@@QAE_NPBG00@Z 0052e2f0 f   sp_vistaextend.obj
 0001:0012d340       ?GetOpenSaveFileName@SPVistaExtend@@QAE_N_NPBU_GUID@@AAUtagOFNW@@@Z 0052e340 f   sp_vistaextend.obj
 0001:0012d950       ?ExtendedMessageBox@SPVistaExtend@@QAEHPAUHWND__@@PBG1I1H@Z 0052e950 f   sp_vistaextend.obj
 0001:0012de60       ?SetProgressState@SPVistaExtend@@QAE_NPAUHWND__@@I@Z 0052ee60 f   sp_vistaextend.obj
 0001:0012dea0       ?SetProgressValue@SPVistaExtend@@QAE_NPAUHWND__@@II@Z 0052eea0 f   sp_vistaextend.obj
 0001:0012dee0       ?SPGetVKInfoTable@@YAPBUtagSPVKInfo@@XZ 0052eee0 f   sp_vk.obj
 0001:0012def0       ?SPGetInfoFromVK@@YAPBUtagSPVKInfo@@H@Z 0052eef0 f   sp_vk.obj
 0001:0012df10       ?SPGetKeyNameFromVK@@YAPBGH@Z 0052ef10 f   sp_vk.obj
 0001:0012df30       ?SPGetVKFromName@@YAHPAG@Z 0052ef30 f   sp_vk.obj
 0001:0012df80       ?reserve@TiXmlString@@QAEXI@Z 0052ef80 f   tinystr.obj
 0001:0012e030       ?assign@TiXmlString@@QAEAAV1@PBDI@Z 0052f030 f   tinystr.obj
 0001:0012e100       ?append@TiXmlString@@QAEAAV1@PBDI@Z 0052f100 f   tinystr.obj
 0001:0012e150       ?init@TiXmlString@@AAEXII@Z 0052f150 f i tinystr.obj
 0001:0012e1a0       ?TiXmlFOpen@@YAPAU_iobuf@@PBD0@Z 0052f1a0 f   tinyxml.obj
 0001:0012e1c0       ?EncodeString@TiXmlBase@@SAXABVTiXmlString@@PAV2@@Z 0052f1c0 f   tinyxml.obj
 0001:0012e300       ??0TiXmlNode@@IAE@W4NodeType@0@@Z 0052f300 f   tinyxml.obj
 0001:0012e340       ??_ETiXmlNode@@UAEPAXI@Z   0052f340 f i tinyxml.obj
 0001:0012e340       ??_GTiXmlNode@@UAEPAXI@Z   0052f340 f i tinyxml.obj
 0001:0012e370       ??1TiXmlNode@@UAE@XZ       0052f370 f   tinyxml.obj
 0001:0012e3f0       ??1TiXmlBase@@UAE@XZ       0052f3f0 f i tinyxml.obj
 0001:0012e400       ??_GTiXmlBase@@UAEPAXI@Z   0052f400 f i tinyxml.obj
 0001:0012e400       ??_ETiXmlBase@@UAEPAXI@Z   0052f400 f i tinyxml.obj
 0001:0012e430       ?CopyTo@TiXmlNode@@IBEXPAV1@@Z 0052f430 f   tinyxml.obj
 0001:0012e470       ?Clear@TiXmlNode@@QAEXXZ   0052f470 f   tinyxml.obj
 0001:0012e4a0       ?LinkEndChild@TiXmlNode@@QAEPAV1@PAV1@@Z 0052f4a0 f   tinyxml.obj
 0001:0012e520       ?InsertEndChild@TiXmlNode@@QAEPAV1@ABV1@@Z 0052f520 f   tinyxml.obj
 0001:0012e580       ?FirstChild@TiXmlNode@@QBEPBV1@PBD@Z 0052f580 f   tinyxml.obj
 0001:0012e5e0       ?NextSibling@TiXmlNode@@QBEPBV1@PBD@Z 0052f5e0 f   tinyxml.obj
 0001:0012e640       ?FirstChildElement@TiXmlNode@@QBEPBVTiXmlElement@@PBD@Z 0052f640 f   tinyxml.obj
 0001:0012e690       ?GetDocument@TiXmlNode@@QBEPBVTiXmlDocument@@XZ 0052f690 f   tinyxml.obj
 0001:0012e6c0       ??0TiXmlElement@@QAE@PBD@Z 0052f6c0 f   tinyxml.obj
 0001:0012e740       ??_GTiXmlElement@@UAEPAXI@Z 0052f740 f i tinyxml.obj
 0001:0012e740       ??_ETiXmlElement@@UAEPAXI@Z 0052f740 f i tinyxml.obj
 0001:0012e770       ??1TiXmlElement@@UAE@XZ    0052f770 f   tinyxml.obj
 0001:0012e7d0       ?ClearThis@TiXmlElement@@IAEXXZ 0052f7d0 f   tinyxml.obj
 0001:0012e810       ?SetAttribute@TiXmlElement@@QAEXPBD0@Z 0052f810 f   tinyxml.obj
 0001:0012e850       ?Print@TiXmlElement@@UBEXPAU_iobuf@@H@Z 0052f850 f   tinyxml.obj
 0001:0012e990       ?CopyTo@TiXmlElement@@IBEXPAV1@@Z 0052f990 f   tinyxml.obj
 0001:0012ea00       ?Accept@TiXmlElement@@UBE_NPAVTiXmlVisitor@@@Z 0052fa00 f   tinyxml.obj
 0001:0012ea60       ?Clone@TiXmlElement@@UBEPAVTiXmlNode@@XZ 0052fa60 f   tinyxml.obj
 0001:0012eae0       ??0TiXmlDocument@@QAE@XZ   0052fae0 f   tinyxml.obj
 0001:0012eb70       ?LoadFile@TiXmlDocument@@QAE_NPBDW4TiXmlEncoding@@@Z 0052fb70 f   tinyxml.obj
 0001:0012ec80       ?LoadFile@TiXmlDocument@@QAE_NPAU_iobuf@@W4TiXmlEncoding@@@Z 0052fc80 f   tinyxml.obj
 0001:0012eda0       ?SaveFile@TiXmlDocument@@QBE_NPBD@Z 0052fda0 f   tinyxml.obj
 0001:0012edf0       ?SaveFile@TiXmlDocument@@QBE_NPAU_iobuf@@@Z 0052fdf0 f   tinyxml.obj
 0001:0012ee40       ?CopyTo@TiXmlDocument@@ABEXPAV1@@Z 0052fe40 f   tinyxml.obj
 0001:0012eeb0       ?Clone@TiXmlDocument@@MBEPAVTiXmlNode@@XZ 0052feb0 f   tinyxml.obj
 0001:0012ef30       ?Print@TiXmlDocument@@UBEXPAU_iobuf@@H@Z 0052ff30 f   tinyxml.obj
 0001:0012ef70       ?Accept@TiXmlDocument@@UBE_NPAVTiXmlVisitor@@@Z 0052ff70 f   tinyxml.obj
 0001:0012efb0       ?Next@TiXmlAttribute@@QBEPBV1@XZ 0052ffb0 f   tinyxml.obj
 0001:0012efd0       ?Print@TiXmlAttribute@@QBEXPAU_iobuf@@HPAVTiXmlString@@@Z 0052ffd0 f   tinyxml.obj
 0001:0012f190       ?find@TiXmlString@@QBEIDI@Z 00530190 f i tinyxml.obj
 0001:0012f1d0       ??_ETiXmlComment@@UAEPAXI@Z 005301d0 f i tinyxml.obj
 0001:0012f1d0       ??_GTiXmlComment@@UAEPAXI@Z 005301d0 f i tinyxml.obj
 0001:0012f200       ??1TiXmlComment@@UAE@XZ    00530200 f i tinyxml.obj
 0001:0012f210       ?Print@TiXmlComment@@UBEXPAU_iobuf@@H@Z 00530210 f   tinyxml.obj
 0001:0012f250       ?CopyTo@TiXmlUnknown@@IBEXPAV1@@Z 00530250 f   tinyxml.obj
 0001:0012f250       ?CopyTo@TiXmlComment@@IBEXPAV1@@Z 00530250 f   tinyxml.obj
 0001:0012f260       ?Accept@TiXmlComment@@UBE_NPAVTiXmlVisitor@@@Z 00530260 f   tinyxml.obj
 0001:0012f280       ?Clone@TiXmlComment@@UBEPAVTiXmlNode@@XZ 00530280 f   tinyxml.obj
 0001:0012f2c0       ?Print@TiXmlText@@UBEXPAU_iobuf@@H@Z 005302c0 f   tinyxml.obj
 0001:0012f3a0       ?CopyTo@TiXmlText@@IBEXPAV1@@Z 005303a0 f   tinyxml.obj
 0001:0012f3c0       ?Accept@TiXmlText@@UBE_NPAVTiXmlVisitor@@@Z 005303c0 f   tinyxml.obj
 0001:0012f3e0       ?Clone@TiXmlText@@MBEPAVTiXmlNode@@XZ 005303e0 f   tinyxml.obj
 0001:0012f490       ??0TiXmlDeclaration@@QAE@PBD00@Z 00530490 f   tinyxml.obj
 0001:0012f550       ?Print@TiXmlDeclaration@@UBEXPAU_iobuf@@HPAVTiXmlString@@@Z 00530550 f   tinyxml.obj
 0001:0012f720       ?CopyTo@TiXmlDeclaration@@IBEXPAV1@@Z 00530720 f   tinyxml.obj
 0001:0012f770       ?Accept@TiXmlDeclaration@@UBE_NPAVTiXmlVisitor@@@Z 00530770 f   tinyxml.obj
 0001:0012f790       ?Clone@TiXmlDeclaration@@UBEPAVTiXmlNode@@XZ 00530790 f   tinyxml.obj
 0001:0012f7e0       ?Print@TiXmlUnknown@@UBEXPAU_iobuf@@H@Z 005307e0 f   tinyxml.obj
 0001:0012f820       ?Accept@TiXmlUnknown@@UBE_NPAVTiXmlVisitor@@@Z 00530820 f   tinyxml.obj
 0001:0012f840       ?Clone@TiXmlUnknown@@UBEPAVTiXmlNode@@XZ 00530840 f   tinyxml.obj
 0001:0012f880       ?ToElement@TiXmlElement@@UBEPBV1@XZ 00530880 f i tinyxml.obj
 0001:0012f880       ?ToDeclaration@TiXmlDeclaration@@UBEPBV1@XZ 00530880 f i tinyxml.obj
 0001:0012f880       ?ToDocument@TiXmlDocument@@UAEPAV1@XZ 00530880 f i tinyxml.obj
 0001:0012f880       ?ToComment@TiXmlComment@@UAEPAV1@XZ 00530880 f i tinyxml.obj
 0001:0012f880       ?ToText@TiXmlText@@UAEPAV1@XZ 00530880 f i tinyxml.obj
 0001:0012f880       ?ToComment@TiXmlComment@@UBEPBV1@XZ 00530880 f i tinyxml.obj
 0001:0012f880       ?ToUnknown@TiXmlUnknown@@UBEPBV1@XZ 00530880 f i tinyxml.obj
 0001:0012f880       ?ToDocument@TiXmlDocument@@UBEPBV1@XZ 00530880 f i tinyxml.obj
 0001:0012f880       ?ToUnknown@TiXmlUnknown@@UAEPAV1@XZ 00530880 f i tinyxml.obj
 0001:0012f880       ?ToDeclaration@TiXmlDeclaration@@UAEPAV1@XZ 00530880 f i tinyxml.obj
 0001:0012f880       ?ToText@TiXmlText@@UBEPBV1@XZ 00530880 f i tinyxml.obj
 0001:0012f880       ?ToElement@TiXmlElement@@UAEPAV1@XZ 00530880 f i tinyxml.obj
 0001:0012f890       ??_GTiXmlUnknown@@UAEPAXI@Z 00530890 f i tinyxml.obj
 0001:0012f890       ??_ETiXmlUnknown@@UAEPAXI@Z 00530890 f i tinyxml.obj
 0001:0012f8c0       ??1TiXmlUnknown@@UAE@XZ    005308c0 f i tinyxml.obj
 0001:0012f8d0       ??0TiXmlAttributeSet@@QAE@XZ 005308d0 f   tinyxml.obj
 0001:0012f900       ?Print@TiXmlAttribute@@UBEXPAU_iobuf@@H@Z 00530900 f i tinyxml.obj
 0001:0012f920       ??_ETiXmlAttribute@@UAEPAXI@Z 00530920 f i tinyxml.obj
 0001:0012f920       ??_GTiXmlAttribute@@UAEPAXI@Z 00530920 f i tinyxml.obj
 0001:0012f950       ??1TiXmlAttribute@@UAE@XZ  00530950 f i tinyxml.obj
 0001:0012f9c0       ??1TiXmlAttributeSet@@QAE@XZ 005309c0 f   tinyxml.obj
 0001:0012fa30       ?Add@TiXmlAttributeSet@@QAEXPAVTiXmlAttribute@@@Z 00530a30 f   tinyxml.obj
 0001:0012fa50       ?Remove@TiXmlAttributeSet@@QAEXPAVTiXmlAttribute@@@Z 00530a50 f   tinyxml.obj
 0001:0012fa90       ?Find@TiXmlAttributeSet@@QBEPAVTiXmlAttribute@@PBD@Z 00530a90 f   tinyxml.obj
 0001:0012fb00       ?FindOrCreate@TiXmlAttributeSet@@QAEPAVTiXmlAttribute@@PBD@Z 00530b00 f   tinyxml.obj
 0001:0012fb80       ?FirstChild@TiXmlHandle@@QBE?AV1@XZ 00530b80 f   tinyxml.obj
 0001:0012fbb0       ?FirstChild@TiXmlHandle@@QBE?AV1@PBD@Z 00530bb0 f   tinyxml.obj
 0001:0012fbe0       ?FirstChildElement@TiXmlHandle@@QBE?AV1@PBD@Z 00530be0 f   tinyxml.obj
 0001:0012fc10       ?ConvertUTF32ToUTF8@TiXmlBase@@KAXKPADPAH@Z 00530c10 f   tinyxmlparser.obj
 0001:0012fd00       ?IsAlpha@TiXmlBase@@KAHEW4TiXmlEncoding@@@Z 00530d00 f   tinyxmlparser.obj
 0001:0012fd30       ?IsAlphaNum@TiXmlBase@@KAHEW4TiXmlEncoding@@@Z 00530d30 f   tinyxmlparser.obj
 0001:0012fd60       ?Stamp@TiXmlParsingData@@QAEXPBDW4TiXmlEncoding@@@Z 00530d60 f   tinyxmlparser.obj
 0001:0012ff60       ?SkipWhiteSpace@TiXmlBase@@KAPBDPBDW4TiXmlEncoding@@@Z 00530f60 f   tinyxmlparser.obj
 0001:00130030       ?ReadName@TiXmlBase@@KAPBDPBDPAVTiXmlString@@W4TiXmlEncoding@@@Z 00531030 f   tinyxmlparser.obj
 0001:001300d0       ?GetEntity@TiXmlBase@@KAPBDPBDPADPAHW4TiXmlEncoding@@@Z 005310d0 f   tinyxmlparser.obj
 0001:001302f0       ?StringEqual@TiXmlBase@@KA_NPBD0_NW4TiXmlEncoding@@@Z 005312f0 f   tinyxmlparser.obj
 0001:00130390       ?ReadText@TiXmlBase@@KAPBDPBDPAVTiXmlString@@_N02W4TiXmlEncoding@@@Z 00531390 f   tinyxmlparser.obj
 0001:00130630       ?Parse@TiXmlDocument@@UAEPBDPBDPAVTiXmlParsingData@@W4TiXmlEncoding@@@Z 00531630 f   tinyxmlparser.obj
 0001:00130810       ?SetError@TiXmlDocument@@QAEXHPBDPAVTiXmlParsingData@@W4TiXmlEncoding@@@Z 00531810 f   tinyxmlparser.obj
 0001:00130880       ?Identify@TiXmlNode@@IAEPAV1@PBDW4TiXmlEncoding@@@Z 00531880 f   tinyxmlparser.obj
 0001:00130ad0       ?Parse@TiXmlElement@@UAEPBDPBDPAVTiXmlParsingData@@W4TiXmlEncoding@@@Z 00531ad0 f   tinyxmlparser.obj
 0001:00130e60       ?ReadValue@TiXmlElement@@IAEPBDPBDPAVTiXmlParsingData@@W4TiXmlEncoding@@@Z 00531e60 f   tinyxmlparser.obj
 0001:00131000       ?Parse@TiXmlUnknown@@UAEPBDPBDPAVTiXmlParsingData@@W4TiXmlEncoding@@@Z 00532000 f   tinyxmlparser.obj
 0001:001310f0       ?Parse@TiXmlComment@@UAEPBDPBDPAVTiXmlParsingData@@W4TiXmlEncoding@@@Z 005320f0 f   tinyxmlparser.obj
 0001:00131220       ?Parse@TiXmlAttribute@@UAEPBDPBDPAVTiXmlParsingData@@W4TiXmlEncoding@@@Z 00532220 f   tinyxmlparser.obj
 0001:00131400       ?Parse@TiXmlText@@UAEPBDPBDPAVTiXmlParsingData@@W4TiXmlEncoding@@@Z 00532400 f   tinyxmlparser.obj
 0001:001315a0       ?Parse@TiXmlDeclaration@@UAEPBDPBDPAVTiXmlParsingData@@W4TiXmlEncoding@@@Z 005325a0 f   tinyxmlparser.obj
 0001:00131960       ?Blank@TiXmlText@@IBE_NXZ  00532960 f   tinyxmlparser.obj
 0001:001319c0       _VerQueryValueA@16         005329c0 f   version:VERSION.dll
 0001:001319c6       _GetFileVersionInfoA@16    005329c6 f   version:VERSION.dll
 0001:001319cc       _GetFileVersionInfoSizeA@8 005329cc f   version:VERSION.dll
 0001:001319d2       ___WSAFDIsSet@8            005329d2 f   wsock32:WSOCK32.dll
 0001:001319e0       _ssl_load_ciphers          005329e0 f   ssleay32:ssl_ciph.obj
 0001:00131c10       _ssl_cipher_get_evp        00532c10 f   ssleay32:ssl_ciph.obj
 0001:00132120       _ssl_get_handshake_digest  00533120 f   ssleay32:ssl_ciph.obj
 0001:00132170       _ssl_create_cipher_list    00533170 f   ssleay32:ssl_ciph.obj
 0001:00132fe0       _SSL_CIPHER_get_version    00533fe0 f   ssleay32:ssl_ciph.obj
 0001:00133020       _ssl3_comp_find            00534020 f   ssleay32:ssl_ciph.obj
 0001:00133070       _SSL_COMP_get_compression_methods 00534070 f   ssleay32:ssl_ciph.obj
 0001:00133080       _SSL_clear                 00534080 f   ssleay32:ssl_lib.obj
 0001:00133250       _SSL_new                   00534250 f   ssleay32:ssl_lib.obj
 0001:001334f0       _SSL_has_matching_session_id 005344f0 f   ssleay32:ssl_lib.obj
 0001:001335c0       _SSL_free                  005345c0 f   ssleay32:ssl_lib.obj
 0001:00133890       _EVP_CIPHER_iv_length      00534890 f   ssleay32:ssl_lib.obj
 0001:00133890       _EVP_PKEY_CTX_get0_peerkey 00534890 f   ssleay32:ssl_lib.obj
 0001:00133890       _SSL_get_rbio              00534890 f   ssleay32:ssl_lib.obj
 0001:00133890       _EC_KEY_get0_private_key   00534890 f   ssleay32:ssl_lib.obj
 0001:00133890       _ENGINE_get_DSA            00534890 f   ssleay32:ssl_lib.obj
 0001:001338a0       _SSL_set_fd                005348a0 f   ssleay32:ssl_lib.obj
 0001:00133950       _SSL_pending               00534950 f   ssleay32:ssl_lib.obj
 0001:00133970       _SSL_get_peer_certificate  00534970 f   ssleay32:ssl_lib.obj
 0001:001339c0       _SSL_connect               005349c0 f   ssleay32:ssl_lib.obj
 0001:00133ab0       _SSL_get_default_timeout   00534ab0 f   ssleay32:ssl_lib.obj
 0001:00133ac0       _SSL_read                  00534ac0 f   ssleay32:ssl_lib.obj
 0001:00133b20       _SSL_peek                  00534b20 f   ssleay32:ssl_lib.obj
 0001:00133b70       _SSL_write                 00534b70 f   ssleay32:ssl_lib.obj
 0001:00133be0       _SSL_shutdown              00534be0 f   ssleay32:ssl_lib.obj
 0001:00133c30       _SSL_ctrl                  00534c30 f   ssleay32:ssl_lib.obj
 0001:00133df0       _SSL_CTX_ctrl              00534df0 f   ssleay32:ssl_lib.obj
 0001:00134050       _ssl_cipher_ptr_id_cmp     00535050 f   ssleay32:ssl_lib.obj
 0001:00134080       _SSL_get_ciphers           00535080 f   ssleay32:ssl_lib.obj
 0001:001340b0       _ssl_get_ciphers_by_id     005350b0 f   ssleay32:ssl_lib.obj
 0001:001340e0       _SSL_set_cipher_list       005350e0 f   ssleay32:ssl_lib.obj
 0001:00134140       _ssl_cipher_list_to_bytes  00535140 f   ssleay32:ssl_lib.obj
 0001:00134230       _ssl_bytes_to_cipher_list  00535230 f   ssleay32:ssl_lib.obj
 0001:001343b0       _SSL_CTX_new               005353b0 f   ssleay32:ssl_lib.obj
 0001:00134810       _SSL_CTX_free              00535810 f   ssleay32:ssl_lib.obj
 0001:001349b0       _SSL_CTX_set_verify_depth  005359b0 f   ssleay32:ssl_lib.obj
 0001:001349d0       _ssl_check_srvr_ecc_cert_and_alg 005359d0 f   ssleay32:ssl_lib.obj
 0001:00134b50       _ssl_update_cache          00535b50 f   ssleay32:ssl_lib.obj
 0001:00134c30       _ssl_undefined_function    00535c30 f   ssleay32:ssl_lib.obj
 0001:00134c50       _ssl_undefined_void_function 00535c50 f   ssleay32:ssl_lib.obj
 0001:00134c70       _ssl_undefined_const_function 00535c70 f   ssleay32:ssl_lib.obj
 0001:00134c90       _SSL_get_current_cipher    00535c90 f   ssleay32:ssl_lib.obj
 0001:00134cb0       _ssl_init_wbio_buffer      00535cb0 f   ssleay32:ssl_lib.obj
 0001:00134d70       _ssl_free_wbio_buffer      00535d70 f   ssleay32:ssl_lib.obj
 0001:00134db0       _SSL_CTX_load_verify_locations 00535db0 f   ssleay32:ssl_lib.obj
 0001:00134dd0       _EC_GROUP_get_asn1_flag    00535dd0 f   ssleay32:ssl_lib.obj
 0001:00134dd0       _SSL_state                 00535dd0 f   ssleay32:ssl_lib.obj
 0001:00134de0       _SSL_get_verify_result     00535de0 f   ssleay32:ssl_lib.obj
 0001:00134df0       _ssl_replace_hash          00535df0 f   ssleay32:ssl_lib.obj
 0001:00134e30       _OBJ_bsearch_ssl_cipher_id 00535e30 f   ssleay32:ssl_lib.obj
 0001:00134ed0       _SSLv23_client_method      00535ed0 f   ssleay32:s23_clnt.obj
 0001:00134ee0       _ssl23_connect             00535ee0 f   ssleay32:s23_clnt.obj
 0001:00135a40       _SSL_load_error_strings    00536a40 f   ssleay32:ssl_err2.obj
 0001:00135a50       _SSL_library_init          00536a50 f   ssleay32:ssl_algs.obj
 0001:00135bf0       _SSL_SESSION_new           00536bf0 f   ssleay32:ssl_sess.obj
 0001:00135cc0       _ssl_get_new_session       00536cc0 f   ssleay32:ssl_sess.obj
 0001:001360a0       _SSL_CTX_add_session       005370a0 f   ssleay32:ssl_sess.obj
 0001:00136200       _SSL_CTX_remove_session    00537200 f   ssleay32:ssl_sess.obj
 0001:001362f0       _SSL_SESSION_free          005372f0 f   ssleay32:ssl_sess.obj
 0001:00136440       _SSL_CTX_flush_sessions    00537440 f   ssleay32:ssl_sess.obj
 0001:00136530       _ssl_clear_bad_session     00537530 f   ssleay32:ssl_sess.obj
 0001:00136630       _SSL_get_ex_data_X509_STORE_CTX_idx 00537630 f   ssleay32:ssl_cert.obj
 0001:001366e0       _ssl_cert_new              005376e0 f   ssleay32:ssl_cert.obj
 0001:00136760       _ssl_cert_dup              00537760 f   ssleay32:ssl_cert.obj
 0001:00136a10       _ssl_cert_free             00537a10 f   ssleay32:ssl_cert.obj
 0001:00136ab0       _ssl_cert_inst             00537ab0 f   ssleay32:ssl_cert.obj
 0001:00136b80       _ssl_sess_cert_new         00537b80 f   ssleay32:ssl_cert.obj
 0001:00136be0       _ssl_sess_cert_free        00537be0 f   ssleay32:ssl_cert.obj
 0001:00136c80       _ssl_set_peer_cert_type    00537c80 f   ssleay32:ssl_cert.obj
 0001:00136ca0       _ssl_verify_cert_chain     00537ca0 f   ssleay32:ssl_cert.obj
 0001:00136e60       _SSL_get_client_CA_list    00537e60 f   ssleay32:ssl_cert.obj
 0001:00136eb0       _dtls1_min_mtu             00537eb0 f   ssleay32:d1_both.obj
 0001:00136ec0       _dtls1_heartbeat           00537ec0 f   ssleay32:d1_both.obj
 0001:00136ff0       _ssl3_read_n               00537ff0 f   ssleay32:s3_pkt.obj
 0001:00137280       _ssl3_do_compress          00538280 f   ssleay32:s3_pkt.obj
 0001:001372d0       _ssl3_write_bytes          005382d0 f   ssleay32:s3_pkt.obj
 0001:00137790       _ssl3_write_pending        00538790 f   ssleay32:s3_pkt.obj
 0001:00137900       _ssl3_read_bytes           00538900 f   ssleay32:s3_pkt.obj
 0001:00138720       _ssl3_do_change_cipher_spec 00539720 f   ssleay32:s3_pkt.obj
 0001:00138800       _ssl3_send_alert           00539800 f   ssleay32:s3_pkt.obj
 0001:001388a0       _ssl3_dispatch_alert       005398a0 f   ssleay32:s3_pkt.obj
 0001:00138970       _SSL_CTX_SRP_CTX_free      00539970 f   ssleay32:tls_srp.obj
 0001:00138a60       _SSL_SRP_CTX_free          00539a60 f   ssleay32:tls_srp.obj
 0001:00138b50       _SSL_SRP_CTX_init          00539b50 f   ssleay32:tls_srp.obj
 0001:00138dc0       _SSL_CTX_SRP_CTX_init      00539dc0 f   ssleay32:tls_srp.obj
 0001:00138e40       _SRP_generate_client_master_secret 00539e40 f   ssleay32:tls_srp.obj
 0001:00138fe0       _SRP_Calc_A_param          00539fe0 f   ssleay32:tls_srp.obj
 0001:001390d0       _ssl3_num_ciphers          0053a0d0 f   ssleay32:s3_lib.obj
 0001:001390e0       _ssl3_get_cipher           0053a0e0 f   ssleay32:s3_lib.obj
 0001:00139110       _ssl3_pending              0053a110 f   ssleay32:s3_lib.obj
 0001:00139140       _ssl3_new                  0053a140 f   ssleay32:s3_lib.obj
 0001:001391b0       _ssl3_free                 0053a1b0 f   ssleay32:s3_lib.obj
 0001:001392b0       _ssl3_clear                0053a2b0 f   ssleay32:s3_lib.obj
 0001:00139450       _ssl3_ctrl                 0053a450 f   ssleay32:s3_lib.obj
 0001:001399d0       _ssl3_callback_ctrl        0053a9d0 f   ssleay32:s3_lib.obj
 0001:00139ac0       _ssl3_ctx_ctrl             0053aac0 f   ssleay32:s3_lib.obj
 0001:00139ff0       _ssl3_ctx_callback_ctrl    0053aff0 f   ssleay32:s3_lib.obj
 0001:0013a160       _ssl3_get_cipher_by_char   0053b160 f   ssleay32:s3_lib.obj
 0001:0013a1b0       _ssl3_put_cipher_by_char   0053b1b0 f   ssleay32:s3_lib.obj
 0001:0013a1f0       _ssl3_shutdown             0053b1f0 f   ssleay32:s3_lib.obj
 0001:0013a2b0       _ssl3_write                0053b2b0 f   ssleay32:s3_lib.obj
 0001:0013a3b0       _ssl3_read                 0053b3b0 f   ssleay32:s3_lib.obj
 0001:0013a490       _ssl3_peek                 0053b490 f   ssleay32:s3_lib.obj
 0001:0013a570       _ssl3_renegotiate          0053b570 f   ssleay32:s3_lib.obj
 0001:0013a5a0       _ssl3_renegotiate_check    0053b5a0 f   ssleay32:s3_lib.obj
 0001:0013a620       _ssl_get_algorithm2        0053b620 f   ssleay32:s3_lib.obj
 0001:0013a660       _ssl23_num_ciphers         0053b660 f   ssleay32:s23_lib.obj
 0001:0013a680       _ssl23_get_cipher          0053b680 f   ssleay32:s23_lib.obj
 0001:0013a6b0       _ssl23_get_cipher_by_char  0053b6b0 f   ssleay32:s23_lib.obj
 0001:0013a6d0       _ssl23_put_cipher_by_char  0053b6d0 f   ssleay32:s23_lib.obj
 0001:0013a700       _ssl23_read                0053b700 f   ssleay32:s23_lib.obj
 0001:0013a780       _ssl23_peek                0053b780 f   ssleay32:s23_lib.obj
 0001:0013a800       _ssl23_write               0053b800 f   ssleay32:s23_lib.obj
 0001:0013a880       _ssl3_do_write             0053b880 f   ssleay32:s3_both.obj
 0001:0013a920       _ssl3_send_finished        0053b920 f   ssleay32:s3_both.obj
 0001:0013aa60       _ssl3_get_finished         0053ba60 f   ssleay32:s3_both.obj
 0001:0013abd0       _ssl3_send_change_cipher_spec 0053bbd0 f   ssleay32:s3_both.obj
 0001:0013ac10       _ssl3_output_cert_chain    0053bc10 f   ssleay32:s3_both.obj
 0001:0013af30       _ssl3_get_message          0053bf30 f   ssleay32:s3_both.obj
 0001:0013b260       _ssl_cert_type             0053c260 f   ssleay32:s3_both.obj
 0001:0013b2f0       _ssl_verify_alarm_type     0053c2f0 f   ssleay32:s3_both.obj
 0001:0013b3b0       _ssl3_setup_read_buffer    0053c3b0 f   ssleay32:s3_both.obj
 0001:0013b500       _ssl3_setup_write_buffer   0053c500 f   ssleay32:s3_both.obj
 0001:0013b630       _ssl3_setup_buffers        0053c630 f   ssleay32:s3_both.obj
 0001:0013b660       _ssl3_release_write_buffer 0053c660 f   ssleay32:s3_both.obj
 0001:0013b720       _ssl3_release_read_buffer  0053c720 f   ssleay32:s3_both.obj
 0001:0013b7e0       _tls1_default_timeout      0053c7e0 f   ssleay32:t1_lib.obj
 0001:0013b7e0       _ssl3_default_timeout      0053c7e0 f   ssleay32:t1_lib.obj
 0001:0013b7f0       _tls1_new                  0053c7f0 f   ssleay32:t1_lib.obj
 0001:0013b820       _tls1_free                 0053c820 f   ssleay32:t1_lib.obj
 0001:0013b850       _tls1_clear                0053c850 f   ssleay32:t1_lib.obj
 0001:0013b870       _tls1_ec_curve_id2nid      0053c870 f   ssleay32:t1_lib.obj
 0001:0013b890       _tls1_ec_nid2curve_id      0053c890 f   ssleay32:t1_lib.obj
 0001:0013ba10       _ssl_add_clienthello_tlsext 0053ca10 f   ssleay32:t1_lib.obj
 0001:0013c2e0       _ssl_parse_serverhello_tlsext 0053d2e0 f   ssleay32:t1_lib.obj
 0001:0013c800       _ssl_prepare_clienthello_tlsext 0053d800 f   ssleay32:t1_lib.obj
 0001:0013c960       _ssl_check_serverhello_tlsext 0053d960 f   ssleay32:t1_lib.obj
 0001:0013cb10       _tls12_get_sigandhash      0053db10 f   ssleay32:t1_lib.obj
 0001:0013cbb0       _tls12_get_sigid           0053dbb0 f   ssleay32:t1_lib.obj
 0001:0013cbe0       _tls12_get_hash            0053dbe0 f   ssleay32:t1_lib.obj
 0001:0013cc40       _tls1_process_sigalgs      0053dc40 f   ssleay32:t1_lib.obj
 0001:0013cda0       _tls1_process_heartbeat    0053dda0 f   ssleay32:t1_lib.obj
 0001:0013cee0       _tls1_heartbeat            0053dee0 f   ssleay32:t1_lib.obj
 0001:0013d050       _TLSv1_2_client_method     0053e050 f   ssleay32:t1_clnt.obj
 0001:0013d060       _TLSv1_1_client_method     0053e060 f   ssleay32:t1_clnt.obj
 0001:0013d070       _TLSv1_client_method       0053e070 f   ssleay32:t1_clnt.obj
 0001:0013d0a0       _SSLv3_client_method       0053e0a0 f   ssleay32:s3_clnt.obj
 0001:0013d0b0       _ssl3_connect              0053e0b0 f   ssleay32:s3_clnt.obj
 0001:0013da50       _ssl3_client_hello         0053ea50 f   ssleay32:s3_clnt.obj
 0001:0013dcc0       _ssl3_get_server_hello     0053ecc0 f   ssleay32:s3_clnt.obj
 0001:0013e290       _ssl3_get_server_certificate 0053f290 f   ssleay32:s3_clnt.obj
 0001:0013e6e0       _ssl3_get_key_exchange     0053f6e0 f   ssleay32:s3_clnt.obj
 0001:0013f510       _ssl3_get_certificate_request 00540510 f   ssleay32:s3_clnt.obj
 0001:0013f8d0       _ssl3_get_new_session_ticket 005408d0 f   ssleay32:s3_clnt.obj
 0001:0013fae0       _ssl3_get_cert_status      00540ae0 f   ssleay32:s3_clnt.obj
 0001:0013fc40       _ssl3_send_client_key_exchange 00540c40 f   ssleay32:s3_clnt.obj
 0001:00140810       _ssl3_send_client_verify   00541810 f   ssleay32:s3_clnt.obj
 0001:00140bc0       _ssl3_send_client_certificate 00541bc0 f   ssleay32:s3_clnt.obj
 0001:00140da0       _ssl3_check_cert_and_algorithm 00541da0 f   ssleay32:s3_clnt.obj
 0001:00141070       _ssl3_send_next_proto      00542070 f   ssleay32:s3_clnt.obj
 0001:00141160       _SSLv2_client_method       00542160 f   ssleay32:s2_clnt.obj
 0001:00141170       _ssl2_connect              00542170 f   ssleay32:s2_clnt.obj
 0001:00142570       _ssl2_set_certificate      00543570 f   ssleay32:s2_clnt.obj
 0001:001427a0       _ssl23_default_timeout     005437a0 f   ssleay32:s2_lib.obj
 0001:001427a0       _ssl2_default_timeout      005437a0 f   ssleay32:s2_lib.obj
 0001:001427b0       _ssl2_num_ciphers          005437b0 f   ssleay32:s2_lib.obj
 0001:001427c0       _ssl2_get_cipher           005437c0 f   ssleay32:s2_lib.obj
 0001:001427e0       _ssl2_pending              005437e0 f   ssleay32:s2_lib.obj
 0001:00142810       _ssl2_new                  00543810 f   ssleay32:s2_lib.obj
 0001:001428f0       _ssl2_free                 005438f0 f   ssleay32:s2_lib.obj
 0001:00142940       _ssl2_clear                00543940 f   ssleay32:s2_lib.obj
 0001:00142990       _ssl2_ctrl                 00543990 f   ssleay32:s2_lib.obj
 0001:001429b0       _ssl2_get_cipher_by_char   005439b0 f   ssleay32:s2_lib.obj
 0001:00142a00       _ssl2_put_cipher_by_char   00543a00 f   ssleay32:s2_lib.obj
 0001:00142a40       _ssl2_generate_key_material 00543a40 f   ssleay32:s2_lib.obj
 0001:00142be0       _ssl2_return_error         00543be0 f   ssleay32:s2_lib.obj
 0001:00142c10       _ssl2_write_error          00543c10 f   ssleay32:s2_lib.obj
 0001:00142cc0       _ssl2_shutdown             00543cc0 f   ssleay32:s2_lib.obj
 0001:00142ce0       _ssl23_write_bytes         00543ce0 f   ssleay32:s23_pkt.obj
 0001:00142d60       _ssl23_read_bytes          00543d60 f   ssleay32:s23_pkt.obj
 0001:00142de0       _ssl3_change_cipher_state  00543de0 f   ssleay32:s3_enc.obj
 0001:00143280       _ssl3_setup_key_block      00544280 f   ssleay32:s3_enc.obj
 0001:00143620       _ssl3_cleanup_key_block    00544620 f   ssleay32:s3_enc.obj
 0001:00143680       _ssl3_enc                  00544680 f   ssleay32:s3_enc.obj
 0001:00143830       _ssl3_init_finished_mac    00544830 f   ssleay32:s3_enc.obj
 0001:001438d0       _ssl3_free_digest_list     005448d0 f   ssleay32:s3_enc.obj
 0001:00143930       _ssl3_finish_mac           00544930 f   ssleay32:s3_enc.obj
 0001:00143990       _ssl3_digest_cached_records 00544990 f   ssleay32:s3_enc.obj
 0001:00143b40       _ssl3_cert_verify_mac      00544b40 f   ssleay32:s3_enc.obj
 0001:00143b60       _ssl3_final_finish_mac     00544b60 f   ssleay32:s3_enc.obj
 0001:00143d60       _n_ssl3_mac                00544d60 f   ssleay32:s3_enc.obj
 0001:00143ef0       _ssl3_record_sequence_update 00544ef0 f   ssleay32:s3_enc.obj
 0001:00143f10       _ssl3_generate_master_secret 00544f10 f   ssleay32:s3_enc.obj
 0001:00144040       _ssl3_alert_code           00545040 f   ssleay32:s3_enc.obj
 0001:00144170       _ERR_load_SSL_strings      00545170 f   ssleay32:ssl_err.obj
 0001:001441a0       _dtls1_write_bytes         005451a0 f   ssleay32:d1_pkt.obj
 0001:001441f0       _do_dtls1_write            005451f0 f   ssleay32:d1_pkt.obj
 0001:00144500       _dtls1_start_timer         00545500 f   ssleay32:d1_lib.obj
 0001:001445b0       _tls1_change_cipher_state  005455b0 f   ssleay32:t1_enc.obj
 0001:00145020       _tls1_setup_key_block      00546020 f   ssleay32:t1_enc.obj
 0001:00145250       _tls1_enc                  00546250 f   ssleay32:t1_enc.obj
 0001:00145780       _tls1_cert_verify_mac      00546780 f   ssleay32:t1_enc.obj
 0001:00145860       _tls1_final_finish_mac     00546860 f   ssleay32:t1_enc.obj
 0001:001459d0       _tls1_mac                  005469d0 f   ssleay32:t1_enc.obj
 0001:00145bb0       _tls1_generate_master_secret 00546bb0 f   ssleay32:t1_enc.obj
 0001:00145c20       _tls1_export_keying_material 00546c20 f   ssleay32:t1_enc.obj
 0001:00145e00       _tls1_alert_code           00546e00 f   ssleay32:t1_enc.obj
 0001:00145fe0       _SSL_get_srtp_profiles     00546fe0 f   ssleay32:d1_srtp.obj
 0001:00146010       _ssl_add_clienthello_use_srtp_ext 00547010 f   ssleay32:d1_srtp.obj
 0001:00146110       _ssl_parse_serverhello_use_srtp_ext 00547110 f   ssleay32:d1_srtp.obj
 0001:00146270       _ssl_add_clienthello_renegotiate_ext 00547270 f   ssleay32:t1_reneg.obj
 0001:00146300       _ssl_parse_serverhello_renegotiate_ext 00547300 f   ssleay32:t1_reneg.obj
 0001:001464a0       _SSL_use_certificate       005474a0 f   ssleay32:ssl_rsa.obj
 0001:00146600       _SSL_use_PrivateKey        00547600 f   ssleay32:ssl_rsa.obj
 0001:001467c0       _ssl2_read                 005477c0 f   ssleay32:s2_pkt.obj
 0001:00146b40       _ssl2_peek                 00547b40 f   ssleay32:s2_pkt.obj
 0001:00146d30       _ssl2_write                00547d30 f   ssleay32:s2_pkt.obj
 0001:00147190       _ssl2_part_read            00548190 f   ssleay32:s2_pkt.obj
 0001:00147250       _ssl2_do_write             00548250 f   ssleay32:s2_pkt.obj
 0001:001472c0       _ssl2_enc_init             005482c0 f   ssleay32:s2_enc.obj
 0001:001474c0       _ssl2_enc                  005484c0 f   ssleay32:s2_enc.obj
 0001:00147520       _ssl2_mac                  00548520 f   ssleay32:s2_enc.obj
 0001:001475f0       _dtls1_enc                 005485f0 f   ssleay32:d1_enc.obj
 0001:001478d0       _SSLeay_version            005488d0 f   libeay32:cversion.obj
 0001:00147970       _CRYPTO_get_new_dynlockid  00548970 f   libeay32:cryptlib.obj
 0001:00147b30       _CRYPTO_destroy_dynlockid  00548b30 f   libeay32:cryptlib.obj
 0001:00147c30       _CRYPTO_get_dynlock_create_callback 00548c30 f   libeay32:cryptlib.obj
 0001:00147c40       _CRYPTO_get_dynlock_lock_callback 00548c40 f   libeay32:cryptlib.obj
 0001:00147c50       _CRYPTO_get_dynlock_destroy_callback 00548c50 f   libeay32:cryptlib.obj
 0001:00147c60       _CRYPTO_get_locking_callback 00548c60 f   libeay32:cryptlib.obj
 0001:00147c70       _CRYPTO_get_add_lock_callback 00548c70 f   libeay32:cryptlib.obj
 0001:00147c80       _CRYPTO_set_locking_callback 00548c80 f   libeay32:cryptlib.obj
 0001:00147ca0       _CRYPTO_THREADID_current   00548ca0 f   libeay32:cryptlib.obj
 0001:00147cf0       _CRYPTO_THREADID_cmp       00548cf0 f   libeay32:cryptlib.obj
 0001:00147d10       _CRYPTO_THREADID_cpy       00548d10 f   libeay32:cryptlib.obj
 0001:00147d30       _CRYPTO_lock               00548d30 f   libeay32:cryptlib.obj
 0001:00147e30       _CRYPTO_add_lock           00548e30 f   libeay32:cryptlib.obj
 0001:00148040       _OPENSSL_cpuid_setup       00549040 f   libeay32:cryptlib.obj
 0001:00148100       _OPENSSL_isservice         00549100 f   libeay32:cryptlib.obj
 0001:00148220       _OPENSSL_showfatal         00549220 f   libeay32:cryptlib.obj
 0001:00148300       _OpenSSLDie                00549300 f   libeay32:cryptlib.obj
 0001:00148330       _ERR_get_implementation    00549330 f   libeay32:err.obj
 0001:00148a70       _ERR_load_ERR_strings      00549a70 f   libeay32:err.obj
 0001:00148c60       _ERR_load_strings          00549c60 f   libeay32:err.obj
 0001:00148eb0       _ERR_unload_strings        00549eb0 f   libeay32:err.obj
 0001:00148ef0       _ERR_free_strings          00549ef0 f   libeay32:err.obj
 0001:00148f40       _ERR_put_error             00549f40 f   libeay32:err.obj
 0001:00149040       _ERR_clear_error           0054a040 f   libeay32:err.obj
 0001:001490c0       _ERR_get_error             0054a0c0 f   libeay32:err.obj
 0001:001490e0       _ERR_get_error_line_data   0054a0e0 f   libeay32:err.obj
 0001:00149110       _ERR_peek_error            0054a110 f   libeay32:err.obj
 0001:00149130       _ERR_peek_last_error       0054a130 f   libeay32:err.obj
 0001:001492a0       _ERR_error_string_n        0054a2a0 f   libeay32:err.obj
 0001:00149530       _ERR_error_string          0054a530 f   libeay32:err.obj
 0001:00149560       _ERR_func_error_string     0054a560 f   libeay32:err.obj
 0001:001495f0       _ERR_remove_state          0054a5f0 f   libeay32:err.obj
 0001:00149670       _ERR_get_state             0054a670 f   libeay32:err.obj
 0001:00149810       _ERR_get_next_error_library 0054a810 f   libeay32:err.obj
 0001:00149860       _ERR_add_error_data        0054a860 f   libeay32:err.obj
 0001:00149880       _ERR_add_error_vdata       0054a880 f   libeay32:err.obj
 0001:001499a0       _ERR_set_mark              0054a9a0 f   libeay32:err.obj
 0001:001499d0       _ERR_pop_to_mark           0054a9d0 f   libeay32:err.obj
 0001:00149ac0       _sk_set_cmp_func           0054aac0 f   libeay32:stack.obj
 0001:00149ae0       _sk_dup                    0054aae0 f   libeay32:stack.obj
 0001:00149bc0       _sk_new_null               0054abc0 f   libeay32:stack.obj
 0001:00149c40       _sk_new                    0054ac40 f   libeay32:stack.obj
 0001:00149cc0       _sk_insert                 0054acc0 f   libeay32:stack.obj
 0001:00149d70       _sk_delete_ptr             0054ad70 f   libeay32:stack.obj
 0001:00149dd0       _sk_delete                 0054add0 f   libeay32:stack.obj
 0001:00149e20       _sk_find                   0054ae20 f   libeay32:stack.obj
 0001:00149ec0       _sk_push                   0054aec0 f   libeay32:stack.obj
 0001:00149ee0       _sk_pop                    0054aee0 f   libeay32:stack.obj
 0001:00149f10       _sk_zero                   0054af10 f   libeay32:stack.obj
 0001:00149f30       _sk_pop_free               0054af30 f   libeay32:stack.obj
 0001:00149f80       _sk_free                   0054af80 f   libeay32:stack.obj
 0001:00149fb0       _sk_num                    0054afb0 f   libeay32:stack.obj
 0001:00149fd0       _sk_value                  0054afd0 f   libeay32:stack.obj
 0001:0014a000       _sk_set                    0054b000 f   libeay32:stack.obj
 0001:0014a030       _sk_sort                   0054b030 f   libeay32:stack.obj
 0001:0014a070       _sk_is_sorted              0054b070 f   libeay32:stack.obj
 0001:0014a090       _CRYPTO_get_ex_data_implementation 0054b090 f   libeay32:ex_data.obj
 0001:0014a940       _CRYPTO_cleanup_all_ex_data 0054b940 f   libeay32:ex_data.obj
 0001:0014a990       _CRYPTO_get_ex_new_index   0054b990 f   libeay32:ex_data.obj
 0001:0014aa00       _CRYPTO_new_ex_data        0054ba00 f   libeay32:ex_data.obj
 0001:0014aa70       _CRYPTO_free_ex_data       0054ba70 f   libeay32:ex_data.obj
 0001:0014aae0       _CRYPTO_set_ex_data        0054bae0 f   libeay32:ex_data.obj
 0001:0014ab70       _CRYPTO_get_ex_data        0054bb70 f   libeay32:ex_data.obj
 0001:0014abb0       _EVP_add_cipher            0054bbb0 f   libeay32:names.obj
 0001:0014ac10       _EVP_add_digest            0054bc10 f   libeay32:names.obj
 0001:0014acc0       _EVP_get_cipherbyname      0054bcc0 f   libeay32:names.obj
 0001:0014ace0       _EVP_get_digestbyname      0054bce0 f   libeay32:names.obj
 0001:0014ad00       _EVP_cleanup               0054bd00 f   libeay32:names.obj
 0001:0014ad40       _ENGINE_new                0054bd40 f   libeay32:eng_lib.obj
 0001:0014ada0       _engine_set_all_null       0054bda0 f   libeay32:eng_lib.obj
 0001:0014ade0       _engine_free_util          0054bde0 f   libeay32:eng_lib.obj
 0001:0014ae70       _ENGINE_free               0054be70 f   libeay32:eng_lib.obj
 0001:0014aef0       _engine_cleanup_add_first  0054bef0 f   libeay32:eng_lib.obj
 0001:0014af50       _engine_cleanup_add_last   0054bf50 f   libeay32:eng_lib.obj
 0001:0014afb0       _ENGINE_cleanup            0054bfb0 f   libeay32:eng_lib.obj
 0001:0014b000       _ENGINE_get_ex_new_index   0054c000 f   libeay32:eng_lib.obj
 0001:0014b030       _ENGINE_set_ex_data        0054c030 f   libeay32:eng_lib.obj
 0001:0014b050       _ENGINE_get_ex_data        0054c050 f   libeay32:eng_lib.obj
 0001:0014b070       _ENGINE_set_id             0054c070 f   libeay32:eng_lib.obj
 0001:0014b0b0       _ENGINE_set_name           0054c0b0 f   libeay32:eng_lib.obj
 0001:0014b0f0       _ENGINE_set_destroy_function 0054c0f0 f   libeay32:eng_lib.obj
 0001:0014b110       _ENGINE_set_init_function  0054c110 f   libeay32:eng_lib.obj
 0001:0014b130       _ENGINE_set_finish_function 0054c130 f   libeay32:eng_lib.obj
 0001:0014b150       _ENGINE_set_ctrl_function  0054c150 f   libeay32:eng_lib.obj
 0001:0014b170       _ENGINE_set_flags          0054c170 f   libeay32:eng_lib.obj
 0001:0014b190       _ENGINE_set_cmd_defns      0054c190 f   libeay32:eng_lib.obj
 0001:0014b1b0       _ENGINE_get_static_state   0054c1b0 f   libeay32:eng_lib.obj
 0001:0014b1c0       _CONF_modules_unload       0054c1c0 f   libeay32:conf_mod.obj
 0001:0014b2e0       _CONF_modules_free         0054c2e0 f   libeay32:conf_mod.obj
 0001:0014b460       _CONF_parse_list           0054c460 f   libeay32:conf_mod.obj
 0001:0014b550       _X509_CINF_it              0054c550 f   libeay32:x_x509.obj
 0001:0014b670       _X509_it                   0054c670 f   libeay32:x_x509.obj
 0001:0014b680       _d2i_X509                  0054c680 f   libeay32:x_x509.obj
 0001:0014b6a0       _i2d_X509                  0054c6a0 f   libeay32:x_x509.obj
 0001:0014b6c0       _X509_free                 0054c6c0 f   libeay32:x_x509.obj
 0001:0014b6e0       _X509_get_ex_new_index     0054c6e0 f   libeay32:x_x509.obj
 0001:0014b710       _X509_set_ex_data          0054c710 f   libeay32:x_x509.obj
 0001:0014b730       _X509_get_ex_data          0054c730 f   libeay32:x_x509.obj
 0001:0014b750       _d2i_X509_AUX              0054c750 f   libeay32:x_x509.obj
 0001:0014b7c0       _X509_subject_name_cmp     0054c7c0 f   libeay32:x509_cmp.obj
 0001:0014b850       _X509_CRL_cmp              0054c850 f   libeay32:x509_cmp.obj
 0001:0014b8e0       _X509_CRL_match            0054c8e0 f   libeay32:x509_cmp.obj
 0001:0014b910       _X509_get_subject_name     0054c910 f   libeay32:x509_cmp.obj
 0001:0014b920       _EVP_CIPHER_CTX_block_size 0054c920 f   libeay32:x509_cmp.obj
 0001:0014b920       _X509_get_serialNumber     0054c920 f   libeay32:x509_cmp.obj
 0001:0014b930       _X509_cmp                  0054c930 f   libeay32:x509_cmp.obj
 0001:0014b970       _X509_NAME_cmp             0054c970 f   libeay32:x509_cmp.obj
 0001:0014b9f0       _X509_NAME_hash            0054c9f0 f   libeay32:x509_cmp.obj
 0001:0014ba70       _X509_get_pubkey           0054ca70 f   libeay32:x509_cmp.obj
 0001:0014baa0       _X509_check_private_key    0054caa0 f   libeay32:x509_cmp.obj
 0001:0014bba0       _CRYPTO_get_mem_functions  0054cba0 f   libeay32:mem.obj
 0001:0014bc00       _CRYPTO_free_locked        0054cc00 f   libeay32:mem.obj
 0001:0014bc40       _CRYPTO_malloc             0054cc40 f   libeay32:mem.obj
 0001:0014bcb0       _CRYPTO_realloc            0054ccb0 f   libeay32:mem.obj
 0001:0014bd80       _CRYPTO_realloc_clean      0054cd80 f   libeay32:mem.obj
 0001:0014be90       _CRYPTO_free               0054ce90 f   libeay32:mem.obj
 0001:0014bed0       _X509_NAME_oneline         0054ced0 f   libeay32:x509_obj.obj
 0001:0014c1d0       _BIO_new                   0054d1d0 f   libeay32:bio_lib.obj
 0001:0014c280       _BIO_free                  0054d280 f   libeay32:bio_lib.obj
 0001:0014c300       _BIO_clear_flags           0054d300 f   libeay32:bio_lib.obj
 0001:0014c310       _BIO_test_flags            0054d310 f   libeay32:bio_lib.obj
 0001:0014c320       _BIO_set_flags             0054d320 f   libeay32:bio_lib.obj
 0001:0014c330       _BIO_read                  0054d330 f   libeay32:bio_lib.obj
 0001:0014c3e0       _BIO_write                 0054d3e0 f   libeay32:bio_lib.obj
 0001:0014c490       _BIO_puts                  0054d490 f   libeay32:bio_lib.obj
 0001:0014c530       _BIO_gets                  0054d530 f   libeay32:bio_lib.obj
 0001:0014c5d0       _BIO_indent                0054d5d0 f   libeay32:bio_lib.obj
 0001:0014c620       _BIO_int_ctrl              0054d620 f   libeay32:bio_lib.obj
 0001:0014c6c0       _BIO_ctrl                  0054d6c0 f   libeay32:bio_lib.obj
 0001:0014c760       _BIO_callback_ctrl         0054d760 f   libeay32:bio_lib.obj
 0001:0014c7f0       _BIO_push                  0054d7f0 f   libeay32:bio_lib.obj
 0001:0014c8a0       _BIO_pop                   0054d8a0 f   libeay32:bio_lib.obj
 0001:0014c950       _BIO_find_type             0054d950 f   libeay32:bio_lib.obj
 0001:0014c990       _BIO_next                  0054d990 f   libeay32:bio_lib.obj
 0001:0014c9b0       _BIO_free_all              0054d9b0 f   libeay32:bio_lib.obj
 0001:0014ca40       _BIO_copy_next_retry       0054da40 f   libeay32:bio_lib.obj
 0001:0014ca70       _i2a_ASN1_INTEGER          0054da70 f   libeay32:f_int.obj
 0001:0014cb80       _BIO_s_mem                 0054db80 f   libeay32:bss_mem.obj
 0001:0014cb90       _BIO_new_mem_buf           0054db90 f   libeay32:bss_mem.obj
 0001:0014d120       _check_defer               0054e120 f   libeay32:obj_dat.obj
 0001:0014d150       _OBJ_cleanup               0054e150 f   libeay32:obj_dat.obj
 0001:0014d220       _OBJ_nid2obj               0054e220 f   libeay32:obj_dat.obj
 0001:0014d2c0       _OBJ_nid2sn                0054e2c0 f   libeay32:obj_dat.obj
 0001:0014d360       _OBJ_nid2ln                0054e360 f   libeay32:obj_dat.obj
 0001:0014d400       _OBJ_obj2nid               0054e400 f   libeay32:obj_dat.obj
 0001:0014d4d0       _OBJ_txt2obj               0054e4d0 f   libeay32:obj_dat.obj
 0001:0014d790       _OBJ_obj2txt               0054e790 f   libeay32:obj_dat.obj
 0001:0014dbb0       _OBJ_txt2nid               0054ebb0 f   libeay32:obj_dat.obj
 0001:0014dc80       _OBJ_ln2nid                0054ec80 f   libeay32:obj_dat.obj
 0001:0014dd10       _OBJ_sn2nid                0054ed10 f   libeay32:obj_dat.obj
 0001:0014dda0       _OBJ_bsearch_              0054eda0 f   libeay32:obj_dat.obj
 0001:0014ddd0       _OBJ_bsearch_ex_           0054edd0 f   libeay32:obj_dat.obj
 0001:0014de80       _EVP_PKEY_bits             0054ee80 f   libeay32:p_lib.obj
 0001:0014deb0       _EVP_PKEY_size             0054eeb0 f   libeay32:p_lib.obj
 0001:0014dee0       _EVP_PKEY_copy_parameters  0054eee0 f   libeay32:p_lib.obj
 0001:0014df60       _EVP_PKEY_missing_parameters 0054ef60 f   libeay32:p_lib.obj
 0001:0014df80       _EVP_PKEY_cmp_parameters   0054ef80 f   libeay32:p_lib.obj
 0001:0014dfc0       _EVP_PKEY_cmp              0054efc0 f   libeay32:p_lib.obj
 0001:0014e010       _EVP_PKEY_new              0054f010 f   libeay32:p_lib.obj
 0001:0014e070       _EVP_PKEY_set_type         0054f070 f   libeay32:p_lib.obj
 0001:0014e190       _EVP_PKEY_assign           0054f190 f   libeay32:p_lib.obj
 0001:0014e1d0       _EVP_PKEY_type             0054f1d0 f   libeay32:p_lib.obj
 0001:0014e210       _EVP_PKEY_base_id          0054f210 f   libeay32:p_lib.obj
 0001:0014e250       _EVP_PKEY_free             0054f250 f   libeay32:p_lib.obj
 0001:0014e2d0       _EVP_PKEY_print_public     0054f2d0 f   libeay32:p_lib.obj
 0001:0014e340       _EVP_PKEY_get_default_digest_nid 0054f340 f   libeay32:p_lib.obj
 0001:0014e370       _ASN1_INTEGER_it           0054f370 f   libeay32:tasn_typ.obj
 0001:0014e380       _d2i_ASN1_INTEGER          0054f380 f   libeay32:tasn_typ.obj
 0001:0014e3a0       _i2d_ASN1_INTEGER          0054f3a0 f   libeay32:tasn_typ.obj
 0001:0014e3c0       _ASN1_INTEGER_new          0054f3c0 f   libeay32:tasn_typ.obj
 0001:0014e3d0       _ASN1_INTEGER_free         0054f3d0 f   libeay32:tasn_typ.obj
 0001:0014e3f0       _ASN1_ENUMERATED_it        0054f3f0 f   libeay32:tasn_typ.obj
 0001:0014e400       _d2i_ASN1_ENUMERATED       0054f400 f   libeay32:tasn_typ.obj
 0001:0014e420       _ASN1_ENUMERATED_free      0054f420 f   libeay32:tasn_typ.obj
 0001:0014e440       _ASN1_BIT_STRING_it        0054f440 f   libeay32:tasn_typ.obj
 0001:0014e450       _ASN1_BIT_STRING_new       0054f450 f   libeay32:tasn_typ.obj
 0001:0014e460       _ASN1_BIT_STRING_free      0054f460 f   libeay32:tasn_typ.obj
 0001:0014e480       _ASN1_OCTET_STRING_it      0054f480 f   libeay32:tasn_typ.obj
 0001:0014e490       _d2i_ASN1_OCTET_STRING     0054f490 f   libeay32:tasn_typ.obj
 0001:0014e4b0       _i2d_ASN1_OCTET_STRING     0054f4b0 f   libeay32:tasn_typ.obj
 0001:0014e4d0       _ASN1_OCTET_STRING_new     0054f4d0 f   libeay32:tasn_typ.obj
 0001:0014e4e0       _ASN1_OCTET_STRING_free    0054f4e0 f   libeay32:tasn_typ.obj
 0001:0014e500       _ASN1_NULL_it              0054f500 f   libeay32:tasn_typ.obj
 0001:0014e510       _ASN1_NULL_new             0054f510 f   libeay32:tasn_typ.obj
 0001:0014e520       _ASN1_OBJECT_it            0054f520 f   libeay32:tasn_typ.obj
 0001:0014e530       _ASN1_UTF8STRING_it        0054f530 f   libeay32:tasn_typ.obj
 0001:0014e540       _ASN1_IA5STRING_it         0054f540 f   libeay32:tasn_typ.obj
 0001:0014e550       _ASN1_GENERALIZEDTIME_it   0054f550 f   libeay32:tasn_typ.obj
 0001:0014e560       _ASN1_GENERALIZEDTIME_new  0054f560 f   libeay32:tasn_typ.obj
 0001:0014e570       _ASN1_GENERALIZEDTIME_free 0054f570 f   libeay32:tasn_typ.obj
 0001:0014e590       _ASN1_ANY_it               0054f590 f   libeay32:tasn_typ.obj
 0001:0014e5a0       _ASN1_SEQUENCE_it          0054f5a0 f   libeay32:tasn_typ.obj
 0001:0014e5b0       _d2i_ASN1_TYPE             0054f5b0 f   libeay32:tasn_typ.obj
 0001:0014e5d0       _i2d_ASN1_TYPE             0054f5d0 f   libeay32:tasn_typ.obj
 0001:0014e5f0       _ASN1_TYPE_new             0054f5f0 f   libeay32:tasn_typ.obj
 0001:0014e600       _ASN1_TYPE_free            0054f600 f   libeay32:tasn_typ.obj
 0001:0014e620       _ASN1_PRINTABLE_it         0054f620 f   libeay32:tasn_typ.obj
 0001:0014e630       _DISPLAYTEXT_it            0054f630 f   libeay32:tasn_typ.obj
 0001:0014e640       _DIRECTORYSTRING_it        0054f640 f   libeay32:tasn_typ.obj
 0001:0014e650       _ASN1_BOOLEAN_it           0054f650 f   libeay32:tasn_typ.obj
 0001:0014e660       _ASN1_FBOOLEAN_it          0054f660 f   libeay32:tasn_typ.obj
 0001:0014e670       _ASN1_OCTET_STRING_NDEF_it 0054f670 f   libeay32:tasn_typ.obj
 0001:0014e680       _d2i_ASN1_SEQUENCE_ANY     0054f680 f   libeay32:tasn_typ.obj
 0001:0014e6a0       _i2d_ASN1_SEQUENCE_ANY     0054f6a0 f   libeay32:tasn_typ.obj
 0001:0014e6c0       _i2d_ASN1_SET_ANY          0054f6c0 f   libeay32:tasn_typ.obj
 0001:0014e6e0       _ASN1_TIME_it              0054f6e0 f   libeay32:a_time.obj
 0001:0014e6f0       _ASN1_TIME_free            0054f6f0 f   libeay32:a_time.obj
 0001:0014e710       _ASN1_TIME_adj             0054f710 f   libeay32:a_time.obj
 0001:0014e7c0       _ASN1_TIME_check           0054f7c0 f   libeay32:a_time.obj
 0001:0014e7f0       _ASN1_TIME_to_generalizedtime 0054f7f0 f   libeay32:a_time.obj
 0001:0014e8d0       _X509_verify_cert_error_string 0054f8d0 f   libeay32:x509_txt.obj
 0001:0014eb60       _RAND_set_rand_method      0054fb60 f   libeay32:rand_lib.obj
 0001:0014eba0       _RAND_seed                 0054fba0 f   libeay32:rand_lib.obj
 0001:0014ec00       _RAND_add                  0054fc00 f   libeay32:rand_lib.obj
 0001:0014ec70       _RAND_bytes                0054fc70 f   libeay32:rand_lib.obj
 0001:0014ece0       _RAND_pseudo_bytes         0054fce0 f   libeay32:rand_lib.obj
 0001:0014ed50       _RAND_status               0054fd50 f   libeay32:rand_lib.obj
 0001:0014edb0       _ENGINE_load_builtin_engines 0054fdb0 f   libeay32:eng_all.obj
 0001:0014ee00       _ERR_load_crypto_strings   0054fe00 f   libeay32:err_all.obj
 0001:0014eea0       _MD5_Update                0054fea0 f   libeay32:md5_dgst.obj
 0001:0014efd0       _MD5_Final                 0054ffd0 f   libeay32:md5_dgst.obj
 0001:0014f110       _MD5_Init                  00550110 f   libeay32:md5_dgst.obj
 0001:0014f150       _SHA1_Update               00550150 f   libeay32:sha1dgst.obj
 0001:0014f280       _SHA1_Final                00550280 f   libeay32:sha1dgst.obj
 0001:0014f3e0       _SHA1_Init                 005503e0 f   libeay32:sha1dgst.obj
 0001:0014f420       _SHA224_Init               00550420 f   libeay32:sha256.obj
 0001:0014f480       _SHA256_Init               00550480 f   libeay32:sha256.obj
 0001:0014f4e0       _SHA224_Update             005504e0 f   libeay32:sha256.obj
 0001:0014f500       _SHA224_Final              00550500 f   libeay32:sha256.obj
 0001:0014f520       _SHA256_Update             00550520 f   libeay32:sha256.obj
 0001:0014f650       _SHA256_Final              00550650 f   libeay32:sha256.obj
 0001:0014f7e0       _SHA384_Init               005507e0 f   libeay32:sha512.obj
 0001:0014f880       _SHA512_Init               00550880 f   libeay32:sha512.obj
 0001:0014f920       _SHA512_Final              00550920 f   libeay32:sha512.obj
 0001:0014fbf0       _SHA384_Final              00550bf0 f   libeay32:sha512.obj
 0001:0014fc10       _SHA512_Update             00550c10 f   libeay32:sha512.obj
 0001:0014fd50       _SHA384_Update             00550d50 f   libeay32:sha512.obj
 0001:0014fdb0       _EVP_sha1                  00550db0 f   libeay32:m_sha1.obj
 0001:0014fe40       _EVP_sha224                00550e40 f   libeay32:m_sha1.obj
 0001:0014fe50       _EVP_sha256                00550e50 f   libeay32:m_sha1.obj
 0001:0014fee0       _EVP_sha384                00550ee0 f   libeay32:m_sha1.obj
 0001:0014fef0       _EVP_sha512                00550ef0 f   libeay32:m_sha1.obj
 0001:0014ff00       _HMAC_Init_ex              00550f00 f   libeay32:hmac.obj
 0001:001500e0       _HMAC_Update               005510e0 f   libeay32:hmac.obj
 0001:00150100       _HMAC_Final                00551100 f   libeay32:hmac.obj
 0001:00150180       _HMAC_CTX_init             00551180 f   libeay32:hmac.obj
 0001:001501b0       _HMAC_CTX_copy             005511b0 f   libeay32:hmac.obj
 0001:00150230       _HMAC_CTX_cleanup          00551230 f   libeay32:hmac.obj
 0001:00150270       _HMAC                      00551270 f   libeay32:hmac.obj
 0001:001503d0       _HMAC_CTX_set_flags        005513d0 f   libeay32:hmac.obj
 0001:00150460       _EVP_md5                   00551460 f   libeay32:m_md5.obj
 0001:00150470       _engine_unlocked_init      00551470 f   libeay32:eng_init.obj
 0001:001504b0       _engine_unlocked_finish    005514b0 f   libeay32:eng_init.obj
 0001:00150550       _ENGINE_init               00551550 f   libeay32:eng_init.obj
 0001:001505e0       _ENGINE_finish             005515e0 f   libeay32:eng_init.obj
 0001:001506d0       _EVP_PKEY_asn1_find        005516d0 f   libeay32:ameth_lib.obj
 0001:00150790       _EVP_PKEY_asn1_find_str    00551790 f   libeay32:ameth_lib.obj
 0001:001508a0       _EVP_PKEY_asn1_get0_info   005518a0 f   libeay32:ameth_lib.obj
 0001:001508f0       _EVP_PKEY_asn1_new         005518f0 f   libeay32:ameth_lib.obj
 0001:001509f0       _EVP_PKEY_asn1_free        005519f0 f   libeay32:ameth_lib.obj
 0001:00150a30       _EVP_PKEY_asn1_set_public  00551a30 f   libeay32:ameth_lib.obj
 0001:00150a60       _EVP_PKEY_asn1_set_private 00551a60 f   libeay32:ameth_lib.obj
 0001:00150a80       _EVP_PKEY_asn1_set_param   00551a80 f   libeay32:ameth_lib.obj
 0001:00150ab0       _EVP_PKEY_asn1_set_free    00551ab0 f   libeay32:ameth_lib.obj
 0001:00150ac0       _EVP_PKEY_asn1_set_ctrl    00551ac0 f   libeay32:ameth_lib.obj
 0001:00150ad0       _EVP_CIPHER_param_to_asn1  00551ad0 f   libeay32:evp_lib.obj
 0001:00150b40       _EVP_CIPHER_asn1_to_param  00551b40 f   libeay32:evp_lib.obj
 0001:00150bd0       _EVP_CIPHER_get_asn1_iv    00551bd0 f   libeay32:evp_lib.obj
 0001:00150c40       _EVP_CIPHER_set_asn1_iv    00551c40 f   libeay32:evp_lib.obj
 0001:00150c90       _EVP_CIPHER_type           00551c90 f   libeay32:evp_lib.obj
 0001:00150dc0       _EC_METHOD_get_field_type  00551dc0 f   libeay32:evp_lib.obj
 0001:00150dc0       _EVP_MD_pkey_type          00551dc0 f   libeay32:evp_lib.obj
 0001:00150dc0       _CRYPTO_THREADID_hash      00551dc0 f   libeay32:evp_lib.obj
 0001:00150dc0       _EVP_CIPHER_block_size     00551dc0 f   libeay32:evp_lib.obj
 0001:00150dc0       _EC_KEY_get0_group         00551dc0 f   libeay32:evp_lib.obj
 0001:00150dc0       _EC_GROUP_get0_generator   00551dc0 f   libeay32:evp_lib.obj
 0001:00150dd0       _EVP_Cipher                00551dd0 f   libeay32:evp_lib.obj
 0001:00150df0       _EVP_CIPHER_flags          00551df0 f   libeay32:evp_lib.obj
 0001:00150df0       _ENGINE_get_DH             00551df0 f   libeay32:evp_lib.obj
 0001:00150df0       _EC_KEY_get_enc_flags      00551df0 f   libeay32:evp_lib.obj
 0001:00150e00       _EVP_CIPHER_CTX_flags      00551e00 f   libeay32:evp_lib.obj
 0001:00150e10       _EVP_CIPHER_CTX_iv_length  00551e10 f   libeay32:evp_lib.obj
 0001:00150e10       _X509_get_issuer_name      00551e10 f   libeay32:evp_lib.obj
 0001:00150e20       _EC_KEY_get0_public_key    00551e20 f   libeay32:evp_lib.obj
 0001:00150e20       _EVP_PKEY_CTX_get0_pkey    00551e20 f   libeay32:evp_lib.obj
 0001:00150e20       _ASN1_STRING_data          00551e20 f   libeay32:evp_lib.obj
 0001:00150e20       _EVP_CIPHER_key_length     00551e20 f   libeay32:evp_lib.obj
 0001:00150e20       _ENGINE_get_RSA            00551e20 f   libeay32:evp_lib.obj
 0001:00150e30       _EVP_CIPHER_CTX_key_length 00551e30 f   libeay32:evp_lib.obj
 0001:00150e40       _SSL_version               00551e40 f   libeay32:evp_lib.obj
 0001:00150e40       _EVP_CIPHER_CTX_cipher     00551e40 f   libeay32:evp_lib.obj
 0001:00150e40       _EVP_PKEY_id               00551e40 f   libeay32:evp_lib.obj
 0001:00150e40       _EVP_CIPHER_nid            00551e40 f   libeay32:evp_lib.obj
 0001:00150e40       _EVP_MD_type               00551e40 f   libeay32:evp_lib.obj
 0001:00150e40       _EC_GROUP_method_of        00551e40 f   libeay32:evp_lib.obj
 0001:00150e50       _EC_GROUP_get_seed_len     00551e50 f   libeay32:evp_lib.obj
 0001:00150e50       _EVP_MD_block_size         00551e50 f   libeay32:evp_lib.obj
 0001:00150e60       _EVP_MD_size               00551e60 f   libeay32:evp_lib.obj
 0001:00150ea0       _EVP_MD_CTX_set_flags      00551ea0 f   libeay32:evp_lib.obj
 0001:00150eb0       _EVP_MD_CTX_clear_flags    00551eb0 f   libeay32:evp_lib.obj
 0001:00150ec0       _EVP_MD_CTX_test_flags     00551ec0 f   libeay32:evp_lib.obj
 0001:00150ed0       _EVP_enc_null              00551ed0 f   libeay32:e_null.obj
 0001:00151140       _COMP_zlib                 00552140 f   libeay32:c_zlib.obj
 0001:001511c0       _BIO_f_zlib                005521c0 f   libeay32:c_zlib.obj
 0001:00151870       _CRYPTO_mem_ctrl           00552870 f   libeay32:mem_dbg.obj
 0001:001519e0       _CRYPTO_push_info_         005529e0 f   libeay32:mem_dbg.obj
 0001:00151b80       _CRYPTO_pop_info           00552b80 f   libeay32:mem_dbg.obj
 0001:00151ca0       _BIO_printf                00552ca0 f   libeay32:b_print.obj
 0001:00152a70       _BIO_vprintf               00553a70 f   libeay32:b_print.obj
 0001:00152b20       _BIO_snprintf              00553b20 f   libeay32:b_print.obj
 0001:00152b80       _EVP_MD_CTX_init           00553b80 f   libeay32:digest.obj
 0001:00152ba0       _EVP_MD_CTX_create         00553ba0 f   libeay32:digest.obj
 0001:00152bd0       _EVP_DigestInit            00553bd0 f   libeay32:digest.obj
 0001:00152c00       _EVP_DigestInit_ex         00553c00 f   libeay32:digest.obj
 0001:00152db0       _EVP_DigestUpdate          00553db0 f   libeay32:digest.obj
 0001:00152dd0       _EVP_DigestFinal_ex        00553dd0 f   libeay32:digest.obj
 0001:00152e50       _EVP_MD_CTX_copy           00553e50 f   libeay32:digest.obj
 0001:00152e80       _EVP_MD_CTX_copy_ex        00553e80 f   libeay32:digest.obj
 0001:00153100       _EVP_Digest                00554100 f   libeay32:digest.obj
 0001:00153280       _EVP_MD_CTX_destroy        00554280 f   libeay32:digest.obj
 0001:00153330       _EVP_MD_CTX_cleanup        00554330 f   libeay32:digest.obj
 0001:001533d0       _COMP_CTX_new              005543d0 f   libeay32:comp_lib.obj
 0001:00153430       _COMP_CTX_free             00554430 f   libeay32:comp_lib.obj
 0001:00153460       _COMP_compress_block       00554460 f   libeay32:comp_lib.obj
 0001:001534b0       _COMP_expand_block         005544b0 f   libeay32:comp_lib.obj
 0001:00153500       _EVP_CIPHER_CTX_init       00554500 f   libeay32:evp_enc.obj
 0001:00153520       _EVP_CipherInit_ex         00554520 f   libeay32:evp_enc.obj
 0001:001538b0       _EVP_CipherUpdate          005548b0 f   libeay32:evp_enc.obj
 0001:001538f0       _EVP_CipherFinal_ex        005548f0 f   libeay32:evp_enc.obj
 0001:00153920       _EVP_EncryptInit_ex        00554920 f   libeay32:evp_enc.obj
 0001:00153950       _EVP_DecryptInit_ex        00554950 f   libeay32:evp_enc.obj
 0001:00153980       _EVP_EncryptUpdate         00554980 f   libeay32:evp_enc.obj
 0001:00153b70       _EVP_EncryptFinal_ex       00554b70 f   libeay32:evp_enc.obj
 0001:00153c70       _EVP_DecryptUpdate         00554c70 f   libeay32:evp_enc.obj
 0001:00153df0       _EVP_DecryptFinal_ex       00554df0 f   libeay32:evp_enc.obj
 0001:00153f50       _EVP_CIPHER_CTX_cleanup    00554f50 f   libeay32:evp_enc.obj
 0001:00153fc0       _EVP_CIPHER_CTX_set_key_length 00554fc0 f   libeay32:evp_enc.obj
 0001:00154090       _EVP_CIPHER_CTX_set_padding 00555090 f   libeay32:evp_enc.obj
 0001:001540c0       _EVP_CIPHER_CTX_ctrl       005550c0 f   libeay32:evp_enc.obj
 0001:00154150       _EVP_CIPHER_CTX_rand_key   00555150 f   libeay32:evp_enc.obj
 0001:00154200       _EVP_CIPHER_CTX_copy       00555200 f   libeay32:evp_enc.obj
 0001:00154340       _BUF_MEM_new               00555340 f   libeay32:buffer.obj
 0001:00154380       _BUF_MEM_free              00555380 f   libeay32:buffer.obj
 0001:001543c0       _BUF_MEM_grow              005553c0 f   libeay32:buffer.obj
 0001:001544a0       _BUF_MEM_grow_clean        005554a0 f   libeay32:buffer.obj
 0001:00154590       _X509_VERIFY_PARAM_new     00555590 f   libeay32:x509_vpm.obj
 0001:001545f0       _X509_VERIFY_PARAM_free    005555f0 f   libeay32:x509_vpm.obj
 0001:00154640       _X509_VERIFY_PARAM_inherit 00555640 f   libeay32:x509_vpm.obj
 0001:001547c0       _X509_VERIFY_PARAM_set1    005557c0 f   libeay32:x509_vpm.obj
 0001:001547f0       _X509_VERIFY_PARAM_set_depth 005557f0 f   libeay32:x509_vpm.obj
 0001:00154800       _X509_VERIFY_PARAM_lookup  00555800 f   libeay32:x509_vpm.obj
 0001:001548b0       _lh_new                    005558b0 f   libeay32:lhash.obj
 0001:00154980       _lh_free                   00555980 f   libeay32:lhash.obj
 0001:001549d0       _lh_insert                 005559d0 f   libeay32:lhash.obj
 0001:00154b50       _lh_delete                 00555b50 f   libeay32:lhash.obj
 0001:00154c70       _lh_retrieve               00555c70 f   libeay32:lhash.obj
 0001:00154cb0       _lh_doall                  00555cb0 f   libeay32:lhash.obj
 0001:00154cf0       _lh_doall_arg              00555cf0 f   libeay32:lhash.obj
 0001:00154df0       _lh_strhash                00555df0 f   libeay32:lhash.obj
 0001:00154e60       _lh_num_items              00555e60 f   libeay32:lhash.obj
 0001:00154e80       _X509_NAME_ENTRY_it        00555e80 f   libeay32:x_name.obj
 0001:00154e90       _X509_NAME_ENTRY_new       00555e90 f   libeay32:x_name.obj
 0001:00154ea0       _X509_NAME_ENTRY_free      00555ea0 f   libeay32:x_name.obj
 0001:00154ec0       _X509_NAME_ENTRY_dup       00555ec0 f   libeay32:x_name.obj
 0001:00154ee0       _X509_NAME_ENTRIES_it      00555ee0 f   libeay32:x_name.obj
 0001:00154ef0       _X509_NAME_it              00555ef0 f   libeay32:x_name.obj
 0001:00154f00       _d2i_X509_NAME             00555f00 f   libeay32:x_name.obj
 0001:00154f20       _i2d_X509_NAME             00555f20 f   libeay32:x_name.obj
 0001:00154f40       _X509_NAME_new             00555f40 f   libeay32:x_name.obj
 0001:00154f50       _X509_NAME_free            00555f50 f   libeay32:x_name.obj
 0001:00154f70       _X509_NAME_dup             00555f70 f   libeay32:x_name.obj
 0001:001557c0       _OCSP_SIGNATURE_it         005567c0 f   libeay32:ocsp_asn.obj
 0001:001557d0       _OCSP_CERTID_it            005567d0 f   libeay32:ocsp_asn.obj
 0001:001557e0       _OCSP_ONEREQ_it            005567e0 f   libeay32:ocsp_asn.obj
 0001:001557f0       _OCSP_REQINFO_it           005567f0 f   libeay32:ocsp_asn.obj
 0001:00155800       _OCSP_RESPBYTES_it         00556800 f   libeay32:ocsp_asn.obj
 0001:00155810       _OCSP_RESPID_it            00556810 f   libeay32:ocsp_asn.obj
 0001:00155820       _i2d_OCSP_RESPID           00556820 f   libeay32:ocsp_asn.obj
 0001:00155840       _OCSP_RESPID_free          00556840 f   libeay32:ocsp_asn.obj
 0001:00155860       _OCSP_REVOKEDINFO_it       00556860 f   libeay32:ocsp_asn.obj
 0001:00155870       _OCSP_CERTSTATUS_it        00556870 f   libeay32:ocsp_asn.obj
 0001:00155880       _OCSP_SINGLERESP_it        00556880 f   libeay32:ocsp_asn.obj
 0001:00155890       _OCSP_RESPDATA_it          00556890 f   libeay32:ocsp_asn.obj
 0001:001558a0       _OCSP_CRLID_it             005568a0 f   libeay32:ocsp_asn.obj
 0001:001558b0       _OCSP_SERVICELOC_it        005568b0 f   libeay32:ocsp_asn.obj
 0001:001558c0       _X509_EXTENSION_it         005568c0 f   libeay32:x_exten.obj
 0001:001558d0       _X509_EXTENSION_free       005568d0 f   libeay32:x_exten.obj
 0001:001558f0       _i2d_X509_EXTENSIONS       005568f0 f   libeay32:x_exten.obj
 0001:00155910       _BIO_s_socket              00556910 f   libeay32:bss_sock.obj
 0001:00155bf0       _X509_LOOKUP_ctrl          00556bf0 f   libeay32:x509_lu.obj
 0001:00155c30       _X509_STORE_new            00556c30 f   libeay32:x509_lu.obj
 0001:00155d30       _X509_STORE_free           00556d30 f   libeay32:x509_lu.obj
 0001:00155e40       _X509_STORE_add_lookup     00556e40 f   libeay32:x509_lu.obj
 0001:00155f00       _X509_STORE_get_by_subject 00556f00 f   libeay32:x509_lu.obj
 0001:00156060       _X509_STORE_add_cert       00557060 f   libeay32:x509_lu.obj
 0001:00156190       _X509_STORE_add_crl        00557190 f   libeay32:x509_lu.obj
 0001:001563b0       _X509_STORE_get1_certs     005573b0 f   libeay32:x509_lu.obj
 0001:00156560       _X509_STORE_get1_crls      00557560 f   libeay32:x509_lu.obj
 0001:00156700       _X509_OBJECT_retrieve_match 00557700 f   libeay32:x509_lu.obj
 0001:00156800       _X509_STORE_CTX_get1_issuer 00557800 f   libeay32:x509_lu.obj
 0001:00156a30       _OBJ_find_sigid_algs       00557a30 f   libeay32:obj_xref.obj
 0001:00156ac0       _OBJ_find_sigid_by_algs    00557ac0 f   libeay32:obj_xref.obj
 0001:00156b80       _OBJ_sigid_free            00557b80 f   libeay32:obj_xref.obj
 0001:00156bc0       _X509_check_purpose        00557bc0 f   libeay32:v3_purp.obj
 0001:00157250       _X509_check_ca             00558250 f   libeay32:v3_purp.obj
 0001:00157800       _X509_check_issued         00558800 f   libeay32:v3_purp.obj
 0001:00157890       _X509_check_akid           00558890 f   libeay32:v3_purp.obj
 0001:00157960       _DH_new                    00558960 f   libeay32:dh_lib.obj
 0001:00157970       _DH_new_method             00558970 f   libeay32:dh_lib.obj
 0001:00157ae0       _DH_free                   00558ae0 f   libeay32:dh_lib.obj
 0001:00157bd0       _DH_size                   00558bd0 f   libeay32:dh_lib.obj
 0001:00157bf0       _RSA_size                  00558bf0 f   libeay32:rsa_crpt.obj
 0001:00157c10       _RSA_public_encrypt        00558c10 f   libeay32:rsa_crpt.obj
 0001:00157c40       _RSA_private_encrypt       00558c40 f   libeay32:rsa_crpt.obj
 0001:00157c70       _RSA_private_decrypt       00558c70 f   libeay32:rsa_crpt.obj
 0001:00157ca0       _RSA_public_decrypt        00558ca0 f   libeay32:rsa_crpt.obj
 0001:00157cd0       _RSA_flags                 00558cd0 f   libeay32:rsa_crpt.obj
 0001:00157cf0       _RSA_setup_blinding        00558cf0 f   libeay32:rsa_crpt.obj
 0001:00157f30       _BIO_f_buffer              00558f30 f   libeay32:bf_buff.obj
 0001:001588c0       _X509_STORE_load_locations 005598c0 f   libeay32:x509_d2.obj
 0001:00158960       _BUF_strdup                00559960 f   libeay32:buf_str.obj
 0001:001589e0       _BUF_memdup                005599e0 f   libeay32:buf_str.obj
 0001:00158a40       _BUF_strlcpy               00559a40 f   libeay32:buf_str.obj
 0001:00158a80       _BUF_strlcat               00559a80 f   libeay32:buf_str.obj
 0001:00158b00       _EVP_ecdsa                 00559b00 f   libeay32:m_ecdsa.obj
 0001:00158b10       _EVP_dss1                  00559b10 f   libeay32:m_dss1.obj
 0001:00158c10       _OBJ_NAME_get              00559c10 f   libeay32:o_names.obj
 0001:00158cf0       _OBJ_NAME_add              00559cf0 f   libeay32:o_names.obj
 0001:00158de0       _OBJ_NAME_cleanup          00559de0 f   libeay32:o_names.obj
 0001:00159100       _EVP_seed_cbc              0055a100 f   libeay32:e_seed.obj
 0001:00159130       _EVP_camellia_128_cbc      0055a130 f   libeay32:e_camellia.obj
 0001:00159340       _EVP_camellia_256_cbc      0055a340 f   libeay32:e_camellia.obj
 0001:00159490       _ssl2_ctx_ctrl             0055a490 f   libeay32:e_aes_cbc_hmac_sha1.obj
 0001:00159490       _EVP_aes_128_cbc_hmac_sha1 0055a490 f   libeay32:e_aes_cbc_hmac_sha1.obj
 0001:00159490       _jpeg_mem_init             0055a490 f   libeay32:e_aes_cbc_hmac_sha1.obj
 0001:00159490       _ssl2_callback_ctrl        0055a490 f   libeay32:e_aes_cbc_hmac_sha1.obj
 0001:00159490       _EVP_aes_256_cbc_hmac_sha1 0055a490 f   libeay32:e_aes_cbc_hmac_sha1.obj
 0001:00159490       _ssl2_ctx_callback_ctrl    0055a490 f   libeay32:e_aes_cbc_hmac_sha1.obj
 0001:00159ca0       _EVP_aes_128_cbc           0055aca0 f   libeay32:e_aes.obj
